GAS LISTING C:\Users\21030\AppData\Local\Temp/cchtovzi.s 			page 1


   1               		.file	"usbdrv.c"
   2               	__SREG__ = 0x3f
   3               	__SP_H__ = 0x3e
   4               	__SP_L__ = 0x3d
   5               	__CCP__  = 0x34
   6               	__tmp_reg__ = 0
   7               	__zero_reg__ = 1
   8               		.section	.debug_abbrev,"",@progbits
   9               	.Ldebug_abbrev0:
  10               		.section	.debug_info,"",@progbits
  11               	.Ldebug_info0:
  12               		.section	.debug_line,"",@progbits
  13               	.Ldebug_line0:
  14               		.text
  15               	.Ltext0:
  16               	.global	usbInit
  17               		.type	usbInit, @function
  18               	usbInit:
  19               	.LFB14:
  20               	.LM1:
  21               	/* prologue: function */
  22               	/* frame size = 0 */
  23               	.LM2:
  24 0000 85B7      		in r24,85-32
  25 0002 8260      		ori r24,lo8(2)
  26 0004 85BF      		out 85-32,r24
  27               	.LM3:
  28 0006 8BB7      		in r24,91-32
  29 0008 8064      		ori r24,lo8(64)
  30 000a 8BBF      		out 91-32,r24
  31               	.LBB59:
  32               	.LBB60:
  33               	.LM4:
  34 000c 8BE4      		ldi r24,lo8(75)
  35 000e 8093 0000 		sts usbTxStatus1+1,r24
  36               	.LM5:
  37 0012 8093 0000 		sts usbTxStatus3+1,r24
  38               	.LBE60:
  39               	.LBE59:
  40               	.LM6:
  41 0016 8AE5      		ldi r24,lo8(90)
  42 0018 8093 0000 		sts usbTxStatus1,r24
  43               	.LM7:
  44 001c 8093 0000 		sts usbTxStatus3,r24
  45               	/* epilogue start */
  46               	.LM8:
  47 0020 0895      		ret
  48               	.LFE14:
  49               		.size	usbInit, .-usbInit
  50               	.global	usbPoll
  51               		.type	usbPoll, @function
  52               	usbPoll:
  53               	.LFB13:
  54               	.LM9:
  55 0022 1F93      		push r17
  56 0024 CF93      		push r28
  57 0026 DF93      		push r29
GAS LISTING C:\Users\21030\AppData\Local\Temp/cchtovzi.s 			page 2


  58               	/* prologue: function */
  59               	/* frame size = 0 */
  60               	.LM10:
  61 0028 6091 0000 		lds r22,usbRxLen
  62 002c 6350      		subi r22,lo8(-(-3))
  63               	.LM11:
  64 002e 67FD      		sbrc r22,7
  65 0030 00C0      		rjmp .L4
  66               	.LM12:
  67 0032 8091 0000 		lds r24,usbInputBufOffset
  68 0036 CCE0      		ldi r28,lo8(12)
  69 0038 D0E0      		ldi r29,hi8(12)
  70 003a C81B      		sub r28,r24
  71 003c D109      		sbc r29,__zero_reg__
  72 003e C050      		subi r28,lo8(-(usbRxBuf))
  73 0040 D040      		sbci r29,hi8(-(usbRxBuf))
  74               	.LBB61:
  75               	.LBB62:
  76               	.LM13:
  77 0042 8091 0000 		lds r24,usbRxToken
  78 0046 8D32      		cpi r24,lo8(45)
  79 0048 01F0      		breq .+2
  80 004a 00C0      		rjmp .L5
  81               	.LBB64:
  82               	.LM14:
  83 004c 6830      		cpi r22,lo8(8)
  84 004e 01F0      		breq .+2
  85 0050 00C0      		rjmp .L6
  86               	.LM15:
  87 0052 83EC      		ldi r24,lo8(-61)
  88 0054 8093 0000 		sts usbTxBuf,r24
  89               	.LM16:
  90 0058 8AE5      		ldi r24,lo8(90)
  91 005a 8093 0000 		sts usbTxLen,r24
  92               	.LM17:
  93 005e 1092 0000 		sts usbMsgFlags,__zero_reg__
  94               	.LM18:
  95 0062 8881      		ld r24,Y
  96 0064 8076      		andi r24,lo8(96)
  97 0066 01F0      		breq .L7
  98               	.LBE64:
  99               	.LBE62:
 100               	.LM19:
 101 0068 CE01      		movw r24,r28
 102 006a 0E94 0000 		call usbFunctionSetup
 103 006e 282F      		mov r18,r24
 104               	.LVL0:
 105 0070 00C0      		rjmp .L8
 106               	.LVL1:
 107               	.L7:
 108               	.LBB77:
 109               	.LBB63:
 110               	.LBB65:
 111               	.LBB66:
 112               	.LM20:
 113 0072 9A81      		ldd r25,Y+2
 114               	.LVL2:
GAS LISTING C:\Users\21030\AppData\Local\Temp/cchtovzi.s 			page 3


 115               	.LM21:
 116 0074 1092 0000 		sts usbTxBuf+9,__zero_reg__
 117               	.LBB67:
 118               	.LM22:
 119 0078 8981      		ldd r24,Y+1
 120               	.LVL3:
 121               	.LM23:
 122 007a 8823      		tst r24
 123 007c 01F4      		brne .L9
 124               	.LBB68:
 125               	.LM24:
 126 007e 1092 0000 		sts usbTxBuf+10,__zero_reg__
 127 0082 22E0      		ldi r18,lo8(2)
 128               	.LVL4:
 129 0084 00C0      		rjmp .L46
 130               	.LVL5:
 131               	.L9:
 132               	.LBE68:
 133               	.LM25:
 134 0086 8530      		cpi r24,lo8(5)
 135 0088 01F4      		brne .L11
 136               	.LM26:
 137 008a 9093 0000 		sts usbNewDeviceAddr,r25
 138 008e 00C0      		rjmp .L48
 139               	.L11:
 140               	.LM27:
 141 0090 8630      		cpi r24,lo8(6)
 142 0092 01F4      		brne .L12
 143               	.LBB69:
 144               	.LBB70:
 145               	.LBB71:
 146               	.LM28:
 147 0094 8B81      		ldd r24,Y+3
 148               	.LVL6:
 149               	.LM29:
 150 0096 8130      		cpi r24,lo8(1)
 151 0098 01F4      		brne .L13
 152               	.LM30:
 153 009a 80E0      		ldi r24,lo8(usbDescriptorDevice)
 154 009c 90E0      		ldi r25,hi8(usbDescriptorDevice)
 155               	.LVL7:
 156 009e 00C0      		rjmp .L45
 157               	.LVL8:
 158               	.L13:
 159               	.LM31:
 160 00a0 8230      		cpi r24,lo8(2)
 161 00a2 01F0      		breq .L44
 162               	.L15:
 163               	.LM32:
 164 00a4 8330      		cpi r24,lo8(3)
 165 00a6 01F4      		brne .L16
 166               	.LBB72:
 167               	.LM33:
 168 00a8 8A81      		ldd r24,Y+2
 169               	.LVL9:
 170               	.LM34:
 171 00aa 8823      		tst r24
GAS LISTING C:\Users\21030\AppData\Local\Temp/cchtovzi.s 			page 4


 172 00ac 01F4      		brne .L17
 173               	.LM35:
 174 00ae 80E0      		ldi r24,lo8(usbDescriptorString0)
 175 00b0 90E0      		ldi r25,hi8(usbDescriptorString0)
 176               	.LVL10:
 177 00b2 9093 0000 		sts (usbMsgPtr)+1,r25
 178 00b6 8093 0000 		sts usbMsgPtr,r24
 179 00ba 24E0      		ldi r18,lo8(4)
 180               	.LVL11:
 181 00bc 00C0      		rjmp .L14
 182               	.LVL12:
 183               	.L17:
 184               	.LM36:
 185 00be 8130      		cpi r24,lo8(1)
 186 00c0 01F4      		brne .L18
 187               	.LM37:
 188 00c2 80E0      		ldi r24,lo8(usbDescriptorStringVendor)
 189 00c4 90E0      		ldi r25,hi8(usbDescriptorStringVendor)
 190               	.LVL13:
 191 00c6 9093 0000 		sts (usbMsgPtr)+1,r25
 192 00ca 8093 0000 		sts usbMsgPtr,r24
 193 00ce 2CE0      		ldi r18,lo8(12)
 194               	.LVL14:
 195 00d0 00C0      		rjmp .L14
 196               	.LVL15:
 197               	.L18:
 198               	.LM38:
 199 00d2 8230      		cpi r24,lo8(2)
 200 00d4 01F4      		brne .L19
 201               	.LM39:
 202 00d6 80E0      		ldi r24,lo8(usbDescriptorStringDevice)
 203 00d8 90E0      		ldi r25,hi8(usbDescriptorStringDevice)
 204               	.LVL16:
 205               	.L45:
 206 00da 9093 0000 		sts (usbMsgPtr)+1,r25
 207 00de 8093 0000 		sts usbMsgPtr,r24
 208 00e2 22E1      		ldi r18,lo8(18)
 209               	.LVL17:
 210 00e4 00C0      		rjmp .L14
 211               	.LVL18:
 212               	.L16:
 213               	.LBE72:
 214               	.LM40:
 215 00e6 8132      		cpi r24,lo8(33)
 216 00e8 01F0      		breq .L44
 217               	.L20:
 218               	.LM41:
 219 00ea 8232      		cpi r24,lo8(34)
 220 00ec 01F4      		brne .L19
 221               	.L44:
 222               	.LBE71:
 223               	.LBE70:
 224               	.LM42:
 225 00ee CE01      		movw r24,r28
 226               	.LVL19:
 227 00f0 0E94 0000 		call usbFunctionDescriptor
 228               	.LVL20:
GAS LISTING C:\Users\21030\AppData\Local\Temp/cchtovzi.s 			page 5


 229 00f4 282F      		mov r18,r24
 230               	.LVL21:
 231 00f6 00C0      		rjmp .L14
 232               	.LVL22:
 233               	.L19:
 234 00f8 20E0      		ldi r18,lo8(0)
 235               	.LVL23:
 236               	.L14:
 237               	.LBB73:
 238               	.LM43:
 239 00fa 80E4      		ldi r24,lo8(64)
 240               	.LVL24:
 241 00fc 8093 0000 		sts usbMsgFlags,r24
 242 0100 00C0      		rjmp .L8
 243               	.LVL25:
 244               	.L12:
 245               	.LBE73:
 246               	.LBE69:
 247               	.LM44:
 248 0102 8830      		cpi r24,lo8(8)
 249 0104 01F4      		brne .L21
 250 0106 21E0      		ldi r18,lo8(1)
 251               	.LVL26:
 252 0108 80E0      		ldi r24,lo8(usbConfiguration)
 253 010a 90E0      		ldi r25,hi8(usbConfiguration)
 254               	.LVL27:
 255 010c 00C0      		rjmp .L10
 256               	.LVL28:
 257               	.L21:
 258               	.LM45:
 259 010e 8930      		cpi r24,lo8(9)
 260 0110 01F4      		brne .L22
 261               	.LM46:
 262 0112 9093 0000 		sts usbConfiguration,r25
 263 0116 00C0      		rjmp .L48
 264               	.L22:
 265               	.LM47:
 266 0118 8A30      		cpi r24,lo8(10)
 267 011a 01F4      		brne .L23
 268 011c 21E0      		ldi r18,lo8(1)
 269               	.LVL29:
 270 011e 00C0      		rjmp .L46
 271               	.LVL30:
 272               	.L23:
 273               	.LM48:
 274 0120 8B30      		cpi r24,lo8(11)
 275 0122 01F4      		brne .L48
 276               	.L24:
 277               	.LBB74:
 278               	.LBB75:
 279               	.LM49:
 280 0124 8BE4      		ldi r24,lo8(75)
 281               	.LVL31:
 282 0126 8093 0000 		sts usbTxStatus1+1,r24
 283               	.LM50:
 284 012a 8093 0000 		sts usbTxStatus3+1,r24
 285               	.LVL32:
GAS LISTING C:\Users\21030\AppData\Local\Temp/cchtovzi.s 			page 6


 286               	.L48:
 287 012e 20E0      		ldi r18,lo8(0)
 288               	.LVL33:
 289               	.L46:
 290 0130 80E0      		ldi r24,lo8(usbTxBuf+9)
 291 0132 90E0      		ldi r25,hi8(usbTxBuf+9)
 292               	.LVL34:
 293               	.L10:
 294               	.LBE75:
 295               	.LBE74:
 296               	.LBE67:
 297               	.LM51:
 298 0134 9093 0000 		sts (usbMsgPtr)+1,r25
 299 0138 8093 0000 		sts usbMsgPtr,r24
 300 013c 00C0      		rjmp .L25
 301               	.LVL35:
 302               	.L8:
 303               	.LBE66:
 304               	.LBE65:
 305               	.LM52:
 306 013e 2F3F      		cpi r18,lo8(-1)
 307 0140 01F4      		brne .L25
 308               	.LM53:
 309 0142 8881      		ld r24,Y
 310 0144 87FD      		sbrc r24,7
 311               	.LM54:
 312 0146 2E81      		ldd r18,Y+6
 313               	.L26:
 314               	.LM55:
 315 0148 80E8      		ldi r24,lo8(-128)
 316 014a 8093 0000 		sts usbMsgFlags,r24
 317 014e 00C0      		rjmp .L28
 318               	.LVL36:
 319               	.L25:
 320               	.LM56:
 321 0150 8F81      		ldd r24,Y+7
 322               	.LVL37:
 323 0152 8823      		tst r24
 324 0154 01F4      		brne .L28
 325 0156 8E81      		ldd r24,Y+6
 326               	.LVL38:
 327 0158 8217      		cp r24,r18
 328 015a 00F0      		brlo .L27
 329               	.LVL39:
 330               	.L28:
 331 015c 822F      		mov r24,r18
 332               	.LVL40:
 333               	.L27:
 334               	.LM57:
 335 015e 8093 0000 		sts usbMsgLen,r24
 336 0162 00C0      		rjmp .L6
 337               	.LVL41:
 338               	.L5:
 339               	.LBE63:
 340               	.LM58:
 341 0164 8091 0000 		lds r24,usbMsgFlags
 342 0168 87FF      		sbrs r24,7
GAS LISTING C:\Users\21030\AppData\Local\Temp/cchtovzi.s 			page 7


 343 016a 00C0      		rjmp .L6
 344               	.LBE77:
 345               	.LM59:
 346 016c CE01      		movw r24,r28
 347 016e 0E94 0000 		call usbFunctionWrite
 348               	.LBB78:
 349               	.LBB76:
 350               	.LM60:
 351 0172 8F3F      		cpi r24,lo8(-1)
 352               	.LVL42:
 353 0174 01F4      		brne .L29
 354               	.LM61:
 355 0176 8EE1      		ldi r24,lo8(30)
 356               	.LVL43:
 357 0178 8093 0000 		sts usbTxLen,r24
 358 017c 00C0      		rjmp .L6
 359               	.LVL44:
 360               	.L29:
 361               	.LM62:
 362 017e 8823      		tst r24
 363 0180 01F0      		breq .L6
 364               	.LM63:
 365 0182 1092 0000 		sts usbMsgLen,__zero_reg__
 366               	.LVL45:
 367               	.L6:
 368               	.LBE76:
 369               	.LBE78:
 370               	.LBE61:
 371               	.LM64:
 372 0186 1092 0000 		sts usbRxLen,__zero_reg__
 373               	.L4:
 374               	.LM65:
 375 018a 8091 0000 		lds r24,usbTxLen
 376               	.LVL46:
 377 018e 84FF      		sbrs r24,4
 378 0190 00C0      		rjmp .L30
 379               	.LM66:
 380 0192 8091 0000 		lds r24,usbMsgLen
 381 0196 8F3F      		cpi r24,lo8(-1)
 382 0198 01F4      		brne .+2
 383 019a 00C0      		rjmp .L30
 384 019c 182F      		mov r17,r24
 385               	.LVL47:
 386 019e 8930      		cpi r24,lo8(9)
 387 01a0 00F0      		brlo .L31
 388 01a2 18E0      		ldi r17,lo8(8)
 389               	.L31:
 390               	.LBB79:
 391               	.LBB80:
 392               	.LM67:
 393 01a4 811B      		sub r24,r17
 394 01a6 8093 0000 		sts usbMsgLen,r24
 395               	.LM68:
 396 01aa 8091 0000 		lds r24,usbTxBuf
 397 01ae 98E8      		ldi r25,lo8(-120)
 398               	.LVL48:
 399 01b0 8927      		eor r24,r25
GAS LISTING C:\Users\21030\AppData\Local\Temp/cchtovzi.s 			page 8


 400 01b2 8093 0000 		sts usbTxBuf,r24
 401               	.LBB81:
 402               	.LBB82:
 403               	.LM69:
 404 01b6 1123      		tst r17
 405 01b8 01F0      		breq .L32
 406               	.LBB83:
 407               	.LM70:
 408 01ba 2091 0000 		lds r18,usbMsgPtr
 409 01be 3091 0000 		lds r19,(usbMsgPtr)+1
 410               	.LVL49:
 411               	.LM71:
 412 01c2 8091 0000 		lds r24,usbMsgFlags
 413 01c6 86FF      		sbrs r24,6
 414 01c8 00C0      		rjmp .L33
 415 01ca 912F      		mov r25,r17
 416 01cc F901      		movw r30,r18
 417 01ce A0E0      		ldi r26,lo8(usbTxBuf+1)
 418 01d0 B0E0      		ldi r27,hi8(usbTxBuf+1)
 419               	.LVL50:
 420               	.L34:
 421               	.LBB84:
 422               	.LBB85:
 423               	.LM72:
 424               	/* #APP */
 425               	 ;  504 "usbdrv/usbdrv.c" 1
 426 01d2 8491      		lpm r24, Z
 427               		
 428               	 ;  0 "" 2
 429               	.LVL51:
 430               	/* #NOAPP */
 431               	.LBE85:
 432               	.LM73:
 433 01d4 8D93      		st X+,r24
 434               	.LM74:
 435 01d6 3196      		adiw r30,1
 436               	.LBE84:
 437               	.LM75:
 438 01d8 9150      		subi r25,lo8(-(-1))
 439 01da 01F4      		brne .L34
 440 01dc 00C0      		rjmp .L47
 441               	.LVL52:
 442               	.L33:
 443               	.LM76:
 444 01de 912F      		mov r25,r17
 445 01e0 D901      		movw r26,r18
 446 01e2 E0E0      		ldi r30,lo8(usbTxBuf+1)
 447 01e4 F0E0      		ldi r31,hi8(usbTxBuf+1)
 448               	.LVL53:
 449               	.L36:
 450               	.LM77:
 451 01e6 8D91      		ld r24,X+
 452 01e8 8193      		st Z+,r24
 453               	.LM78:
 454 01ea 9150      		subi r25,lo8(-(-1))
 455 01ec 01F4      		brne .L36
 456               	.LVL54:
GAS LISTING C:\Users\21030\AppData\Local\Temp/cchtovzi.s 			page 9


 457               	.L47:
 458               	.LM79:
 459 01ee C901      		movw r24,r18
 460               	.LVL55:
 461 01f0 0196      		adiw r24,1
 462               	.LVL56:
 463 01f2 1150      		subi r17,lo8(-(-1))
 464               	.LVL57:
 465 01f4 810F      		add r24,r17
 466 01f6 911D      		adc r25,__zero_reg__
 467 01f8 1F5F      		subi r17,lo8(-(1))
 468               	.LM80:
 469 01fa 9093 0000 		sts (usbMsgPtr)+1,r25
 470 01fe 8093 0000 		sts usbMsgPtr,r24
 471               	.LVL58:
 472               	.L32:
 473               	.LBE83:
 474               	.LBE82:
 475               	.LBE81:
 476               	.LM81:
 477 0202 80E0      		ldi r24,lo8(usbTxBuf+1)
 478 0204 90E0      		ldi r25,hi8(usbTxBuf+1)
 479               	.LVL59:
 480 0206 612F      		mov r22,r17
 481 0208 0E94 0000 		call usbCrc16Append
 482               	.LVL60:
 483               	.LM82:
 484 020c 612F      		mov r22,r17
 485               	.LVL61:
 486 020e 6C5F      		subi r22,lo8(-(4))
 487               	.LM83:
 488 0210 6C30      		cpi r22,lo8(12)
 489 0212 01F0      		breq .L37
 490               	.LM84:
 491 0214 8FEF      		ldi r24,lo8(-1)
 492 0216 8093 0000 		sts usbMsgLen,r24
 493               	.L37:
 494               	.LM85:
 495 021a 6093 0000 		sts usbTxLen,r22
 496               	.LVL62:
 497               	.L30:
 498 021e 94E1      		ldi r25,lo8(20)
 499               	.LVL63:
 500               	.L39:
 501               	.LBE80:
 502               	.LBE79:
 503               	.LBB86:
 504               	.LM86:
 505 0220 80B3      		in r24,48-32
 506               	.LM87:
 507 0222 8C70      		andi r24,lo8(12)
 508 0224 01F4      		brne .L40
 509               	.LBE86:
 510               	.LM88:
 511 0226 9150      		subi r25,lo8(-(-1))
 512 0228 01F4      		brne .L39
 513               	.LM89:
GAS LISTING C:\Users\21030\AppData\Local\Temp/cchtovzi.s 			page 10


 514 022a 1092 0000 		sts usbNewDeviceAddr,__zero_reg__
 515               	.LM90:
 516 022e 1092 0000 		sts usbDeviceAddr,__zero_reg__
 517               	.L40:
 518               	/* epilogue start */
 519               	.LM91:
 520 0232 DF91      		pop r29
 521 0234 CF91      		pop r28
 522 0236 1F91      		pop r17
 523               	.LVL64:
 524 0238 0895      		ret
 525               	.LFE13:
 526               		.size	usbPoll, .-usbPoll
 527               		.type	usbGenericSetInterrupt, @function
 528               	usbGenericSetInterrupt:
 529               	.LFB4:
 530               	.LM92:
 531               	.LVL65:
 532 023a 1F93      		push r17
 533 023c CF93      		push r28
 534 023e DF93      		push r29
 535               	/* prologue: function */
 536               	/* frame size = 0 */
 537 0240 DC01      		movw r26,r24
 538 0242 162F      		mov r17,r22
 539 0244 EA01      		movw r28,r20
 540               	.LM93:
 541 0246 8881      		ld r24,Y
 542               	.LVL66:
 543 0248 84FF      		sbrs r24,4
 544 024a 00C0      		rjmp .L50
 545               	.LVL67:
 546               	.LM94:
 547 024c 8981      		ldd r24,Y+1
 548 024e 98E8      		ldi r25,lo8(-120)
 549 0250 8927      		eor r24,r25
 550 0252 8983      		std Y+1,r24
 551 0254 00C0      		rjmp .L51
 552               	.L50:
 553               	.LM95:
 554 0256 8AE5      		ldi r24,lo8(90)
 555 0258 8883      		st Y,r24
 556               	.L51:
 557               	.LM96:
 558 025a AE01      		movw r20,r28
 559               	.LVL68:
 560 025c 4E5F      		subi r20,lo8(-(2))
 561 025e 5F4F      		sbci r21,hi8(-(2))
 562               	.LM97:
 563 0260 212F      		mov r18,r17
 564               	.LVL69:
 565 0262 FA01      		movw r30,r20
 566               	.LVL70:
 567               	.L52:
 568               	.LM98:
 569 0264 8D91      		ld r24,X+
 570 0266 8193      		st Z+,r24
GAS LISTING C:\Users\21030\AppData\Local\Temp/cchtovzi.s 			page 11


 571               	.LM99:
 572 0268 2150      		subi r18,lo8(-(-1))
 573 026a 1216      		cp __zero_reg__,r18
 574 026c 04F0      		brlt .L52
 575               	.LM100:
 576 026e CA01      		movw r24,r20
 577 0270 612F      		mov r22,r17
 578 0272 0E94 0000 		call usbCrc16Append
 579               	.LVL71:
 580               	.LM101:
 581 0276 1C5F      		subi r17,lo8(-(4))
 582 0278 1883      		st Y,r17
 583               	/* epilogue start */
 584               	.LM102:
 585 027a DF91      		pop r29
 586 027c CF91      		pop r28
 587               	.LVL72:
 588 027e 1F91      		pop r17
 589               	.LVL73:
 590 0280 0895      		ret
 591               	.LFE4:
 592               		.size	usbGenericSetInterrupt, .-usbGenericSetInterrupt
 593               	.global	usbSetInterrupt3
 594               		.type	usbSetInterrupt3, @function
 595               	usbSetInterrupt3:
 596               	.LFB6:
 597               	.LM103:
 598               	.LVL74:
 599               	/* prologue: function */
 600               	/* frame size = 0 */
 601               	.LM104:
 602 0282 40E0      		ldi r20,lo8(usbTxStatus3)
 603 0284 50E0      		ldi r21,hi8(usbTxStatus3)
 604 0286 0E94 0000 		call usbGenericSetInterrupt
 605               	.LVL75:
 606               	/* epilogue start */
 607               	.LM105:
 608 028a 0895      		ret
 609               	.LFE6:
 610               		.size	usbSetInterrupt3, .-usbSetInterrupt3
 611               	.global	usbSetInterrupt
 612               		.type	usbSetInterrupt, @function
 613               	usbSetInterrupt:
 614               	.LFB5:
 615               	.LM106:
 616               	.LVL76:
 617               	/* prologue: function */
 618               	/* frame size = 0 */
 619               	.LM107:
 620 028c 40E0      		ldi r20,lo8(usbTxStatus1)
 621 028e 50E0      		ldi r21,hi8(usbTxStatus1)
 622 0290 0E94 0000 		call usbGenericSetInterrupt
 623               	.LVL77:
 624               	/* epilogue start */
 625               	.LM108:
 626 0294 0895      		ret
 627               	.LFE5:
GAS LISTING C:\Users\21030\AppData\Local\Temp/cchtovzi.s 			page 12


 628               		.size	usbSetInterrupt, .-usbSetInterrupt
 629               	.global	usbTxLen
 630               		.data
 631               		.type	usbTxLen, @object
 632               		.size	usbTxLen, 1
 633               	usbTxLen:
 634 0000 5A        		.byte	90
 635               	.global	usbDescriptorString0
 636               		.section	.progmem.data,"a",@progbits
 637               		.type	usbDescriptorString0, @object
 638               		.size	usbDescriptorString0, 4
 639               	usbDescriptorString0:
 640 0000 04        		.byte	4
 641 0001 03        		.byte	3
 642 0002 09        		.byte	9
 643 0003 04        		.byte	4
 644               	.global	usbDescriptorStringVendor
 645               		.type	usbDescriptorStringVendor, @object
 646               		.size	usbDescriptorStringVendor, 12
 647               	usbDescriptorStringVendor:
 648 0004 1203      		.word	786
 649 0006 4C00      		.word	76
 650 0008 4500      		.word	69
 651 000a 4500      		.word	69
 652 000c 4B00      		.word	75
 653 000e 5500      		.word	85
 654               	.global	usbDescriptorStringDevice
 655               		.type	usbDescriptorStringDevice, @object
 656               		.size	usbDescriptorStringDevice, 18
 657               	usbDescriptorStringDevice:
 658 0010 1203      		.word	786
 659 0012 4D00      		.word	77
 660 0014 5800      		.word	88
 661 0016 2D00      		.word	45
 662 0018 3100      		.word	49
 663 001a 3800      		.word	56
 664 001c 2F00      		.word	47
 665 001e 3300      		.word	51
 666 0020 3000      		.word	48
 667               	.global	usbDescriptorDevice
 668               		.type	usbDescriptorDevice, @object
 669               		.size	usbDescriptorDevice, 18
 670               	usbDescriptorDevice:
 671 0022 12        		.byte	18
 672 0023 01        		.byte	1
 673 0024 10        		.byte	16
 674 0025 01        		.byte	1
 675 0026 00        		.byte	0
 676 0027 00        		.byte	0
 677 0028 00        		.byte	0
 678 0029 08        		.byte	8
 679 002a 42        		.byte	66
 680 002b 42        		.byte	66
 681 002c 31        		.byte	49
 682 002d E1        		.byte	-31
 683 002e 00        		.byte	0
 684 002f 01        		.byte	1
GAS LISTING C:\Users\21030\AppData\Local\Temp/cchtovzi.s 			page 13


 685 0030 01        		.byte	1
 686 0031 02        		.byte	2
 687 0032 00        		.byte	0
 688 0033 01        		.byte	1
 689               		.data
 690               		.type	usbMsgLen, @object
 691               		.size	usbMsgLen, 1
 692               	usbMsgLen:
 693 0001 FF        		.byte	-1
 694               		.lcomm usbMsgFlags,1
 695               		.comm usbMsgPtr,2,1
 696               		.comm usbRxToken,1,1
 697               		.comm usbConfiguration,1,1
 698               		.comm usbTxStatus1,12,1
 699               		.comm usbTxStatus3,12,1
 700               		.comm usbRxBuf,22,1
 701               		.comm usbInputBufOffset,1,1
 702               		.comm usbDeviceAddr,1,1
 703               		.comm usbNewDeviceAddr,1,1
 704               		.comm usbRxLen,1,1
 705               		.comm usbCurrentTok,1,1
 706               		.comm usbTxBuf,11,1
 707               		.section	.debug_frame,"",@progbits
 708               	.Lframe0:
 709 0000 0C00 0000 		.long	.LECIE0-.LSCIE0
 710               	.LSCIE0:
 711 0004 FFFF FFFF 		.long	0xffffffff
 712 0008 01        		.byte	0x1
 713 0009 00        		.string	""
 714 000a 01        		.uleb128 0x1
 715 000b 7F        		.sleb128 -1
 716 000c 24        		.byte	0x24
 717 000d 0C        		.byte	0xc
 718 000e 20        		.uleb128 0x20
 719 000f 00        		.uleb128 0x0
 720               		.p2align	2
 721               	.LECIE0:
 722               	.LSFDE0:
 723 0010 0C00 0000 		.long	.LEFDE0-.LASFDE0
 724               	.LASFDE0:
 725 0014 0000 0000 		.long	.Lframe0
 726 0018 0000 0000 		.long	.LFB14
 727 001c 2200 0000 		.long	.LFE14-.LFB14
 728               		.p2align	2
 729               	.LEFDE0:
 730               	.LSFDE2:
 731 0020 0C00 0000 		.long	.LEFDE2-.LASFDE2
 732               	.LASFDE2:
 733 0024 0000 0000 		.long	.Lframe0
 734 0028 0000 0000 		.long	.LFB13
 735 002c 1802 0000 		.long	.LFE13-.LFB13
 736               		.p2align	2
 737               	.LEFDE2:
 738               	.LSFDE4:
 739 0030 0C00 0000 		.long	.LEFDE4-.LASFDE4
 740               	.LASFDE4:
 741 0034 0000 0000 		.long	.Lframe0
GAS LISTING C:\Users\21030\AppData\Local\Temp/cchtovzi.s 			page 14


 742 0038 0000 0000 		.long	.LFB4
 743 003c 4800 0000 		.long	.LFE4-.LFB4
 744               		.p2align	2
 745               	.LEFDE4:
 746               	.LSFDE6:
 747 0040 0C00 0000 		.long	.LEFDE6-.LASFDE6
 748               	.LASFDE6:
 749 0044 0000 0000 		.long	.Lframe0
 750 0048 0000 0000 		.long	.LFB6
 751 004c 0A00 0000 		.long	.LFE6-.LFB6
 752               		.p2align	2
 753               	.LEFDE6:
 754               	.LSFDE8:
 755 0050 0C00 0000 		.long	.LEFDE8-.LASFDE8
 756               	.LASFDE8:
 757 0054 0000 0000 		.long	.Lframe0
 758 0058 0000 0000 		.long	.LFB5
 759 005c 0A00 0000 		.long	.LFE5-.LFB5
 760               		.p2align	2
 761               	.LEFDE8:
 762               		.text
 763               	.Letext0:
 764               		.section	.debug_loc,"",@progbits
 765               	.Ldebug_loc0:
 766               	.LLST2:
 767 0000 7000 0000 		.long	.LVL0-.Ltext0
 768 0004 7200 0000 		.long	.LVL1-.Ltext0
 769 0008 0100      		.word	0x1
 770 000a 62        		.byte	0x62
 771 000b 8400 0000 		.long	.LVL4-.Ltext0
 772 000f 8600 0000 		.long	.LVL5-.Ltext0
 773 0013 0100      		.word	0x1
 774 0015 62        		.byte	0x62
 775 0016 BC00 0000 		.long	.LVL11-.Ltext0
 776 001a BE00 0000 		.long	.LVL12-.Ltext0
 777 001e 0100      		.word	0x1
 778 0020 62        		.byte	0x62
 779 0021 D000 0000 		.long	.LVL14-.Ltext0
 780 0025 D200 0000 		.long	.LVL15-.Ltext0
 781 0029 0100      		.word	0x1
 782 002b 62        		.byte	0x62
 783 002c E400 0000 		.long	.LVL17-.Ltext0
 784 0030 E600 0000 		.long	.LVL18-.Ltext0
 785 0034 0100      		.word	0x1
 786 0036 62        		.byte	0x62
 787 0037 F600 0000 		.long	.LVL21-.Ltext0
 788 003b F800 0000 		.long	.LVL22-.Ltext0
 789 003f 0100      		.word	0x1
 790 0041 62        		.byte	0x62
 791 0042 FA00 0000 		.long	.LVL23-.Ltext0
 792 0046 0201 0000 		.long	.LVL25-.Ltext0
 793 004a 0100      		.word	0x1
 794 004c 62        		.byte	0x62
 795 004d 0801 0000 		.long	.LVL26-.Ltext0
 796 0051 0E01 0000 		.long	.LVL28-.Ltext0
 797 0055 0100      		.word	0x1
 798 0057 62        		.byte	0x62
GAS LISTING C:\Users\21030\AppData\Local\Temp/cchtovzi.s 			page 15


 799 0058 1E01 0000 		.long	.LVL29-.Ltext0
 800 005c 2001 0000 		.long	.LVL30-.Ltext0
 801 0060 0100      		.word	0x1
 802 0062 62        		.byte	0x62
 803 0063 3001 0000 		.long	.LVL33-.Ltext0
 804 0067 5801 0000 		.long	.LVL38-.Ltext0
 805 006b 0100      		.word	0x1
 806 006d 62        		.byte	0x62
 807 006e 5801 0000 		.long	.LVL38-.Ltext0
 808 0072 5C01 0000 		.long	.LVL39-.Ltext0
 809 0076 0100      		.word	0x1
 810 0078 68        		.byte	0x68
 811 0079 5C01 0000 		.long	.LVL39-.Ltext0
 812 007d 5E01 0000 		.long	.LVL40-.Ltext0
 813 0081 0100      		.word	0x1
 814 0083 62        		.byte	0x62
 815 0084 5E01 0000 		.long	.LVL40-.Ltext0
 816 0088 6401 0000 		.long	.LVL41-.Ltext0
 817 008c 0100      		.word	0x1
 818 008e 68        		.byte	0x68
 819 008f 8601 0000 		.long	.LVL45-.Ltext0
 820 0093 8E01 0000 		.long	.LVL46-.Ltext0
 821 0097 0100      		.word	0x1
 822 0099 68        		.byte	0x68
 823 009a 8E01 0000 		.long	.LVL46-.Ltext0
 824 009e C201 0000 		.long	.LVL49-.Ltext0
 825 00a2 0100      		.word	0x1
 826 00a4 62        		.byte	0x62
 827 00a5 0202 0000 		.long	.LVL58-.Ltext0
 828 00a9 0C02 0000 		.long	.LVL60-.Ltext0
 829 00ad 0100      		.word	0x1
 830 00af 62        		.byte	0x62
 831 00b0 1E02 0000 		.long	.LVL62-.Ltext0
 832 00b4 3A02 0000 		.long	.LFE13-.Ltext0
 833 00b8 0100      		.word	0x1
 834 00ba 62        		.byte	0x62
 835 00bb 0000 0000 		.long	0x0
 836 00bf 0000 0000 		.long	0x0
 837               	.LLST3:
 838 00c3 0C01 0000 		.long	.LVL27-.Ltext0
 839 00c7 0E01 0000 		.long	.LVL28-.Ltext0
 840 00cb 0600      		.word	0x6
 841 00cd 68        		.byte	0x68
 842 00ce 93        		.byte	0x93
 843 00cf 01        		.uleb128 0x1
 844 00d0 69        		.byte	0x69
 845 00d1 93        		.byte	0x93
 846 00d2 01        		.uleb128 0x1
 847 00d3 3401 0000 		.long	.LVL34-.Ltext0
 848 00d7 3E01 0000 		.long	.LVL35-.Ltext0
 849 00db 0600      		.word	0x6
 850 00dd 68        		.byte	0x68
 851 00de 93        		.byte	0x93
 852 00df 01        		.uleb128 0x1
 853 00e0 69        		.byte	0x69
 854 00e1 93        		.byte	0x93
 855 00e2 01        		.uleb128 0x1
GAS LISTING C:\Users\21030\AppData\Local\Temp/cchtovzi.s 			page 16


 856 00e3 5001 0000 		.long	.LVL36-.Ltext0
 857 00e7 5201 0000 		.long	.LVL37-.Ltext0
 858 00eb 0600      		.word	0x6
 859 00ed 68        		.byte	0x68
 860 00ee 93        		.byte	0x93
 861 00ef 01        		.uleb128 0x1
 862 00f0 69        		.byte	0x69
 863 00f1 93        		.byte	0x93
 864 00f2 01        		.uleb128 0x1
 865 00f3 0000 0000 		.long	0x0
 866 00f7 0000 0000 		.long	0x0
 867               	.LLST4:
 868 00fb 7400 0000 		.long	.LVL2-.Ltext0
 869 00ff F400 0000 		.long	.LVL20-.Ltext0
 870 0103 0100      		.word	0x1
 871 0105 69        		.byte	0x69
 872 0106 F800 0000 		.long	.LVL22-.Ltext0
 873 010a 6401 0000 		.long	.LVL41-.Ltext0
 874 010e 0100      		.word	0x1
 875 0110 69        		.byte	0x69
 876 0111 8601 0000 		.long	.LVL45-.Ltext0
 877 0115 B001 0000 		.long	.LVL48-.Ltext0
 878 0119 0100      		.word	0x1
 879 011b 69        		.byte	0x69
 880 011c 1E02 0000 		.long	.LVL62-.Ltext0
 881 0120 2002 0000 		.long	.LVL63-.Ltext0
 882 0124 0100      		.word	0x1
 883 0126 69        		.byte	0x69
 884 0127 0000 0000 		.long	0x0
 885 012b 0000 0000 		.long	0x0
 886               	.LLST5:
 887 012f 7A00 0000 		.long	.LVL3-.Ltext0
 888 0133 9600 0000 		.long	.LVL6-.Ltext0
 889 0137 0100      		.word	0x1
 890 0139 68        		.byte	0x68
 891 013a 0201 0000 		.long	.LVL25-.Ltext0
 892 013e 0C01 0000 		.long	.LVL27-.Ltext0
 893 0142 0100      		.word	0x1
 894 0144 68        		.byte	0x68
 895 0145 0E01 0000 		.long	.LVL28-.Ltext0
 896 0149 2601 0000 		.long	.LVL31-.Ltext0
 897 014d 0100      		.word	0x1
 898 014f 68        		.byte	0x68
 899 0150 2E01 0000 		.long	.LVL32-.Ltext0
 900 0154 3401 0000 		.long	.LVL34-.Ltext0
 901 0158 0100      		.word	0x1
 902 015a 68        		.byte	0x68
 903 015b 0000 0000 		.long	0x0
 904 015f 0000 0000 		.long	0x0
 905               	.LLST6:
 906 0163 9600 0000 		.long	.LVL6-.Ltext0
 907 0167 9E00 0000 		.long	.LVL7-.Ltext0
 908 016b 0100      		.word	0x1
 909 016d 68        		.byte	0x68
 910 016e A000 0000 		.long	.LVL8-.Ltext0
 911 0172 AA00 0000 		.long	.LVL9-.Ltext0
 912 0176 0100      		.word	0x1
GAS LISTING C:\Users\21030\AppData\Local\Temp/cchtovzi.s 			page 17


 913 0178 68        		.byte	0x68
 914 0179 E600 0000 		.long	.LVL18-.Ltext0
 915 017d F000 0000 		.long	.LVL19-.Ltext0
 916 0181 0100      		.word	0x1
 917 0183 68        		.byte	0x68
 918 0184 F800 0000 		.long	.LVL22-.Ltext0
 919 0188 FC00 0000 		.long	.LVL24-.Ltext0
 920 018c 0100      		.word	0x1
 921 018e 68        		.byte	0x68
 922 018f 0000 0000 		.long	0x0
 923 0193 0000 0000 		.long	0x0
 924               	.LLST7:
 925 0197 AA00 0000 		.long	.LVL9-.Ltext0
 926 019b B200 0000 		.long	.LVL10-.Ltext0
 927 019f 0100      		.word	0x1
 928 01a1 68        		.byte	0x68
 929 01a2 BE00 0000 		.long	.LVL12-.Ltext0
 930 01a6 C600 0000 		.long	.LVL13-.Ltext0
 931 01aa 0100      		.word	0x1
 932 01ac 68        		.byte	0x68
 933 01ad D200 0000 		.long	.LVL15-.Ltext0
 934 01b1 DA00 0000 		.long	.LVL16-.Ltext0
 935 01b5 0100      		.word	0x1
 936 01b7 68        		.byte	0x68
 937 01b8 F800 0000 		.long	.LVL22-.Ltext0
 938 01bc FC00 0000 		.long	.LVL24-.Ltext0
 939 01c0 0100      		.word	0x1
 940 01c2 68        		.byte	0x68
 941 01c3 0000 0000 		.long	0x0
 942 01c7 0000 0000 		.long	0x0
 943               	.LLST8:
 944 01cb 7401 0000 		.long	.LVL42-.Ltext0
 945 01cf 7801 0000 		.long	.LVL43-.Ltext0
 946 01d3 0100      		.word	0x1
 947 01d5 68        		.byte	0x68
 948 01d6 7E01 0000 		.long	.LVL44-.Ltext0
 949 01da 8E01 0000 		.long	.LVL46-.Ltext0
 950 01de 0100      		.word	0x1
 951 01e0 68        		.byte	0x68
 952 01e1 0000 0000 		.long	0x0
 953 01e5 0000 0000 		.long	0x0
 954               	.LLST9:
 955 01e9 9E01 0000 		.long	.LVL47-.Ltext0
 956 01ed D201 0000 		.long	.LVL50-.Ltext0
 957 01f1 0100      		.word	0x1
 958 01f3 61        		.byte	0x61
 959 01f4 D201 0000 		.long	.LVL50-.Ltext0
 960 01f8 DE01 0000 		.long	.LVL52-.Ltext0
 961 01fc 0100      		.word	0x1
 962 01fe 69        		.byte	0x69
 963 01ff DE01 0000 		.long	.LVL52-.Ltext0
 964 0203 E601 0000 		.long	.LVL53-.Ltext0
 965 0207 0100      		.word	0x1
 966 0209 61        		.byte	0x61
 967 020a E601 0000 		.long	.LVL53-.Ltext0
 968 020e F401 0000 		.long	.LVL57-.Ltext0
 969 0212 0100      		.word	0x1
GAS LISTING C:\Users\21030\AppData\Local\Temp/cchtovzi.s 			page 18


 970 0214 69        		.byte	0x69
 971 0215 F401 0000 		.long	.LVL57-.Ltext0
 972 0219 3802 0000 		.long	.LVL64-.Ltext0
 973 021d 0100      		.word	0x1
 974 021f 61        		.byte	0x61
 975 0220 0000 0000 		.long	0x0
 976 0224 0000 0000 		.long	0x0
 977               	.LLST10:
 978 0228 D201 0000 		.long	.LVL50-.Ltext0
 979 022c DE01 0000 		.long	.LVL52-.Ltext0
 980 0230 0600      		.word	0x6
 981 0232 6A        		.byte	0x6a
 982 0233 93        		.byte	0x93
 983 0234 01        		.uleb128 0x1
 984 0235 6B        		.byte	0x6b
 985 0236 93        		.byte	0x93
 986 0237 01        		.uleb128 0x1
 987 0238 E601 0000 		.long	.LVL53-.Ltext0
 988 023c 0C02 0000 		.long	.LVL60-.Ltext0
 989 0240 0600      		.word	0x6
 990 0242 6E        		.byte	0x6e
 991 0243 93        		.byte	0x93
 992 0244 01        		.uleb128 0x1
 993 0245 6F        		.byte	0x6f
 994 0246 93        		.byte	0x93
 995 0247 01        		.uleb128 0x1
 996 0248 0000 0000 		.long	0x0
 997 024c 0000 0000 		.long	0x0
 998               	.LLST11:
 999 0250 C201 0000 		.long	.LVL49-.Ltext0
 1000 0254 D201 0000 		.long	.LVL50-.Ltext0
 1001 0258 0600      		.word	0x6
 1002 025a 62        		.byte	0x62
 1003 025b 93        		.byte	0x93
 1004 025c 01        		.uleb128 0x1
 1005 025d 63        		.byte	0x63
 1006 025e 93        		.byte	0x93
 1007 025f 01        		.uleb128 0x1
 1008 0260 D201 0000 		.long	.LVL50-.Ltext0
 1009 0264 DE01 0000 		.long	.LVL52-.Ltext0
 1010 0268 0600      		.word	0x6
 1011 026a 6E        		.byte	0x6e
 1012 026b 93        		.byte	0x93
 1013 026c 01        		.uleb128 0x1
 1014 026d 6F        		.byte	0x6f
 1015 026e 93        		.byte	0x93
 1016 026f 01        		.uleb128 0x1
 1017 0270 DE01 0000 		.long	.LVL52-.Ltext0
 1018 0274 E601 0000 		.long	.LVL53-.Ltext0
 1019 0278 0600      		.word	0x6
 1020 027a 62        		.byte	0x62
 1021 027b 93        		.byte	0x93
 1022 027c 01        		.uleb128 0x1
 1023 027d 63        		.byte	0x63
 1024 027e 93        		.byte	0x93
 1025 027f 01        		.uleb128 0x1
 1026 0280 E601 0000 		.long	.LVL53-.Ltext0
GAS LISTING C:\Users\21030\AppData\Local\Temp/cchtovzi.s 			page 19


 1027 0284 F201 0000 		.long	.LVL56-.Ltext0
 1028 0288 0600      		.word	0x6
 1029 028a 6A        		.byte	0x6a
 1030 028b 93        		.byte	0x93
 1031 028c 01        		.uleb128 0x1
 1032 028d 6B        		.byte	0x6b
 1033 028e 93        		.byte	0x93
 1034 028f 01        		.uleb128 0x1
 1035 0290 F201 0000 		.long	.LVL56-.Ltext0
 1036 0294 0602 0000 		.long	.LVL59-.Ltext0
 1037 0298 0600      		.word	0x6
 1038 029a 68        		.byte	0x68
 1039 029b 93        		.byte	0x93
 1040 029c 01        		.uleb128 0x1
 1041 029d 69        		.byte	0x69
 1042 029e 93        		.byte	0x93
 1043 029f 01        		.uleb128 0x1
 1044 02a0 0000 0000 		.long	0x0
 1045 02a4 0000 0000 		.long	0x0
 1046               	.LLST12:
 1047 02a8 D401 0000 		.long	.LVL51-.Ltext0
 1048 02ac DE01 0000 		.long	.LVL52-.Ltext0
 1049 02b0 0100      		.word	0x1
 1050 02b2 68        		.byte	0x68
 1051 02b3 EE01 0000 		.long	.LVL54-.Ltext0
 1052 02b7 F001 0000 		.long	.LVL55-.Ltext0
 1053 02bb 0100      		.word	0x1
 1054 02bd 68        		.byte	0x68
 1055 02be 0000 0000 		.long	0x0
 1056 02c2 0000 0000 		.long	0x0
 1057               	.LLST14:
 1058 02c6 3A02 0000 		.long	.LVL65-.Ltext0
 1059 02ca 4802 0000 		.long	.LVL66-.Ltext0
 1060 02ce 0600      		.word	0x6
 1061 02d0 68        		.byte	0x68
 1062 02d1 93        		.byte	0x93
 1063 02d2 01        		.uleb128 0x1
 1064 02d3 69        		.byte	0x69
 1065 02d4 93        		.byte	0x93
 1066 02d5 01        		.uleb128 0x1
 1067 02d6 4802 0000 		.long	.LVL66-.Ltext0
 1068 02da 7602 0000 		.long	.LVL71-.Ltext0
 1069 02de 0600      		.word	0x6
 1070 02e0 6A        		.byte	0x6a
 1071 02e1 93        		.byte	0x93
 1072 02e2 01        		.uleb128 0x1
 1073 02e3 6B        		.byte	0x6b
 1074 02e4 93        		.byte	0x93
 1075 02e5 01        		.uleb128 0x1
 1076 02e6 0000 0000 		.long	0x0
 1077 02ea 0000 0000 		.long	0x0
 1078               	.LLST15:
 1079 02ee 3A02 0000 		.long	.LVL65-.Ltext0
 1080 02f2 4C02 0000 		.long	.LVL67-.Ltext0
 1081 02f6 0100      		.word	0x1
 1082 02f8 66        		.byte	0x66
 1083 02f9 4C02 0000 		.long	.LVL67-.Ltext0
GAS LISTING C:\Users\21030\AppData\Local\Temp/cchtovzi.s 			page 20


 1084 02fd 8002 0000 		.long	.LVL73-.Ltext0
 1085 0301 0100      		.word	0x1
 1086 0303 61        		.byte	0x61
 1087 0304 0000 0000 		.long	0x0
 1088 0308 0000 0000 		.long	0x0
 1089               	.LLST16:
 1090 030c 3A02 0000 		.long	.LVL65-.Ltext0
 1091 0310 4C02 0000 		.long	.LVL67-.Ltext0
 1092 0314 0600      		.word	0x6
 1093 0316 64        		.byte	0x64
 1094 0317 93        		.byte	0x93
 1095 0318 01        		.uleb128 0x1
 1096 0319 65        		.byte	0x65
 1097 031a 93        		.byte	0x93
 1098 031b 01        		.uleb128 0x1
 1099 031c 4C02 0000 		.long	.LVL67-.Ltext0
 1100 0320 7E02 0000 		.long	.LVL72-.Ltext0
 1101 0324 0600      		.word	0x6
 1102 0326 6C        		.byte	0x6c
 1103 0327 93        		.byte	0x93
 1104 0328 01        		.uleb128 0x1
 1105 0329 6D        		.byte	0x6d
 1106 032a 93        		.byte	0x93
 1107 032b 01        		.uleb128 0x1
 1108 032c 0000 0000 		.long	0x0
 1109 0330 0000 0000 		.long	0x0
 1110               	.LLST17:
 1111 0334 5C02 0000 		.long	.LVL68-.Ltext0
 1112 0338 6402 0000 		.long	.LVL70-.Ltext0
 1113 033c 0600      		.word	0x6
 1114 033e 64        		.byte	0x64
 1115 033f 93        		.byte	0x93
 1116 0340 01        		.uleb128 0x1
 1117 0341 65        		.byte	0x65
 1118 0342 93        		.byte	0x93
 1119 0343 01        		.uleb128 0x1
 1120 0344 6402 0000 		.long	.LVL70-.Ltext0
 1121 0348 7602 0000 		.long	.LVL71-.Ltext0
 1122 034c 0600      		.word	0x6
 1123 034e 6E        		.byte	0x6e
 1124 034f 93        		.byte	0x93
 1125 0350 01        		.uleb128 0x1
 1126 0351 6F        		.byte	0x6f
 1127 0352 93        		.byte	0x93
 1128 0353 01        		.uleb128 0x1
 1129 0354 0000 0000 		.long	0x0
 1130 0358 0000 0000 		.long	0x0
 1131               	.LLST18:
 1132 035c 6202 0000 		.long	.LVL69-.Ltext0
 1133 0360 7602 0000 		.long	.LVL71-.Ltext0
 1134 0364 0100      		.word	0x1
 1135 0366 62        		.byte	0x62
 1136 0367 0000 0000 		.long	0x0
 1137 036b 0000 0000 		.long	0x0
 1138               	.LLST20:
 1139 036f 8202 0000 		.long	.LVL74-.Ltext0
 1140 0373 8A02 0000 		.long	.LVL75-.Ltext0
GAS LISTING C:\Users\21030\AppData\Local\Temp/cchtovzi.s 			page 21


 1141 0377 0600      		.word	0x6
 1142 0379 68        		.byte	0x68
 1143 037a 93        		.byte	0x93
 1144 037b 01        		.uleb128 0x1
 1145 037c 69        		.byte	0x69
 1146 037d 93        		.byte	0x93
 1147 037e 01        		.uleb128 0x1
 1148 037f 0000 0000 		.long	0x0
 1149 0383 0000 0000 		.long	0x0
 1150               	.LLST21:
 1151 0387 8202 0000 		.long	.LVL74-.Ltext0
 1152 038b 8A02 0000 		.long	.LVL75-.Ltext0
 1153 038f 0100      		.word	0x1
 1154 0391 66        		.byte	0x66
 1155 0392 0000 0000 		.long	0x0
 1156 0396 0000 0000 		.long	0x0
 1157               	.LLST23:
 1158 039a 8C02 0000 		.long	.LVL76-.Ltext0
 1159 039e 9402 0000 		.long	.LVL77-.Ltext0
 1160 03a2 0600      		.word	0x6
 1161 03a4 68        		.byte	0x68
 1162 03a5 93        		.byte	0x93
 1163 03a6 01        		.uleb128 0x1
 1164 03a7 69        		.byte	0x69
 1165 03a8 93        		.byte	0x93
 1166 03a9 01        		.uleb128 0x1
 1167 03aa 0000 0000 		.long	0x0
 1168 03ae 0000 0000 		.long	0x0
 1169               	.LLST24:
 1170 03b2 8C02 0000 		.long	.LVL76-.Ltext0
 1171 03b6 9402 0000 		.long	.LVL77-.Ltext0
 1172 03ba 0100      		.word	0x1
 1173 03bc 66        		.byte	0x66
 1174 03bd 0000 0000 		.long	0x0
 1175 03c1 0000 0000 		.long	0x0
 1176               		.section	.debug_info
 1177 0000 FE08 0000 		.long	0x8fe
 1178 0004 0200      		.word	0x2
 1179 0006 0000 0000 		.long	.Ldebug_abbrev0
 1180 000a 04        		.byte	0x4
 1181 000b 01        		.uleb128 0x1
 1182 000c 0000 0000 		.long	.LASF75
 1183 0010 01        		.byte	0x1
 1184 0011 0000 0000 		.long	.LASF76
 1185 0015 0000 0000 		.long	.LASF77
 1186 0019 0000 0000 		.long	.Ltext0
 1187 001d 0000 0000 		.long	.Letext0
 1188 0021 0000 0000 		.long	.Ldebug_line0
 1189 0025 02        		.uleb128 0x2
 1190 0026 01        		.byte	0x1
 1191 0027 06        		.byte	0x6
 1192 0028 0000 0000 		.long	.LASF0
 1193 002c 03        		.uleb128 0x3
 1194 002d 0000 0000 		.long	.LASF2
 1195 0031 02        		.byte	0x2
 1196 0032 7A        		.byte	0x7a
 1197 0033 3700 0000 		.long	0x37
GAS LISTING C:\Users\21030\AppData\Local\Temp/cchtovzi.s 			page 22


 1198 0037 02        		.uleb128 0x2
 1199 0038 01        		.byte	0x1
 1200 0039 08        		.byte	0x8
 1201 003a 0000 0000 		.long	.LASF1
 1202 003e 04        		.uleb128 0x4
 1203 003f 02        		.byte	0x2
 1204 0040 05        		.byte	0x5
 1205 0041 696E 7400 		.string	"int"
 1206 0045 03        		.uleb128 0x3
 1207 0046 0000 0000 		.long	.LASF3
 1208 004a 02        		.byte	0x2
 1209 004b 7C        		.byte	0x7c
 1210 004c 5000 0000 		.long	0x50
 1211 0050 02        		.uleb128 0x2
 1212 0051 02        		.byte	0x2
 1213 0052 07        		.byte	0x7
 1214 0053 0000 0000 		.long	.LASF4
 1215 0057 02        		.uleb128 0x2
 1216 0058 04        		.byte	0x4
 1217 0059 05        		.byte	0x5
 1218 005a 0000 0000 		.long	.LASF5
 1219 005e 02        		.uleb128 0x2
 1220 005f 04        		.byte	0x4
 1221 0060 07        		.byte	0x7
 1222 0061 0000 0000 		.long	.LASF6
 1223 0065 02        		.uleb128 0x2
 1224 0066 08        		.byte	0x8
 1225 0067 05        		.byte	0x5
 1226 0068 0000 0000 		.long	.LASF7
 1227 006c 02        		.uleb128 0x2
 1228 006d 08        		.byte	0x8
 1229 006e 07        		.byte	0x7
 1230 006f 0000 0000 		.long	.LASF8
 1231 0073 05        		.uleb128 0x5
 1232 0074 01        		.byte	0x1
 1233 0075 06        		.byte	0x6
 1234 0076 05        		.uleb128 0x5
 1235 0077 01        		.byte	0x1
 1236 0078 08        		.byte	0x8
 1237 0079 06        		.uleb128 0x6
 1238 007a 0000 0000 		.long	.LASF14
 1239 007e 0C        		.byte	0xc
 1240 007f 03        		.byte	0x3
 1241 0080 A002      		.word	0x2a0
 1242 0082 A500 0000 		.long	0xa5
 1243 0086 07        		.uleb128 0x7
 1244 0087 6C65 6E00 		.string	"len"
 1245 008b 03        		.byte	0x3
 1246 008c A102      		.word	0x2a1
 1247 008e A500 0000 		.long	0xa5
 1248 0092 02        		.byte	0x2
 1249 0093 23        		.byte	0x23
 1250 0094 00        		.uleb128 0x0
 1251 0095 08        		.uleb128 0x8
 1252 0096 0000 0000 		.long	.LASF9
 1253 009a 03        		.byte	0x3
 1254 009b A202      		.word	0x2a2
GAS LISTING C:\Users\21030\AppData\Local\Temp/cchtovzi.s 			page 23


 1255 009d AA00 0000 		.long	0xaa
 1256 00a1 02        		.byte	0x2
 1257 00a2 23        		.byte	0x23
 1258 00a3 01        		.uleb128 0x1
 1259 00a4 00        		.byte	0x0
 1260 00a5 09        		.uleb128 0x9
 1261 00a6 3700 0000 		.long	0x37
 1262 00aa 0A        		.uleb128 0xa
 1263 00ab 3700 0000 		.long	0x37
 1264 00af BA00 0000 		.long	0xba
 1265 00b3 0B        		.uleb128 0xb
 1266 00b4 BA00 0000 		.long	0xba
 1267 00b8 0A        		.byte	0xa
 1268 00b9 00        		.byte	0x0
 1269 00ba 05        		.uleb128 0x5
 1270 00bb 02        		.byte	0x2
 1271 00bc 07        		.byte	0x7
 1272 00bd 0C        		.uleb128 0xc
 1273 00be 0000 0000 		.long	.LASF10
 1274 00c2 03        		.byte	0x3
 1275 00c3 A302      		.word	0x2a3
 1276 00c5 7900 0000 		.long	0x79
 1277 00c9 0D        		.uleb128 0xd
 1278 00ca 0000 0000 		.long	.LASF78
 1279 00ce 02        		.byte	0x2
 1280 00cf 03        		.byte	0x3
 1281 00d0 AC02      		.word	0x2ac
 1282 00d2 EF00 0000 		.long	0xef
 1283 00d6 0E        		.uleb128 0xe
 1284 00d7 0000 0000 		.long	.LASF11
 1285 00db 03        		.byte	0x3
 1286 00dc AD02      		.word	0x2ad
 1287 00de 5000 0000 		.long	0x50
 1288 00e2 0E        		.uleb128 0xe
 1289 00e3 0000 0000 		.long	.LASF12
 1290 00e7 03        		.byte	0x3
 1291 00e8 AE02      		.word	0x2ae
 1292 00ea EF00 0000 		.long	0xef
 1293 00ee 00        		.byte	0x0
 1294 00ef 0A        		.uleb128 0xa
 1295 00f0 3700 0000 		.long	0x37
 1296 00f4 FF00 0000 		.long	0xff
 1297 00f8 0B        		.uleb128 0xb
 1298 00f9 BA00 0000 		.long	0xba
 1299 00fd 01        		.byte	0x1
 1300 00fe 00        		.byte	0x0
 1301 00ff 0C        		.uleb128 0xc
 1302 0100 0000 0000 		.long	.LASF13
 1303 0104 03        		.byte	0x3
 1304 0105 AF02      		.word	0x2af
 1305 0107 C900 0000 		.long	0xc9
 1306 010b 0F        		.uleb128 0xf
 1307 010c 0000 0000 		.long	.LASF15
 1308 0110 08        		.byte	0x8
 1309 0111 03        		.byte	0x3
 1310 0112 BF        		.byte	0xbf
 1311 0113 6301 0000 		.long	0x163
GAS LISTING C:\Users\21030\AppData\Local\Temp/cchtovzi.s 			page 24


 1312 0117 08        		.uleb128 0x8
 1313 0118 0000 0000 		.long	.LASF16
 1314 011c 03        		.byte	0x3
 1315 011d B202      		.word	0x2b2
 1316 011f 3700 0000 		.long	0x37
 1317 0123 02        		.byte	0x2
 1318 0124 23        		.byte	0x23
 1319 0125 00        		.uleb128 0x0
 1320 0126 08        		.uleb128 0x8
 1321 0127 0000 0000 		.long	.LASF17
 1322 012b 03        		.byte	0x3
 1323 012c B302      		.word	0x2b3
 1324 012e 3700 0000 		.long	0x37
 1325 0132 02        		.byte	0x2
 1326 0133 23        		.byte	0x23
 1327 0134 01        		.uleb128 0x1
 1328 0135 08        		.uleb128 0x8
 1329 0136 0000 0000 		.long	.LASF18
 1330 013a 03        		.byte	0x3
 1331 013b B402      		.word	0x2b4
 1332 013d FF00 0000 		.long	0xff
 1333 0141 02        		.byte	0x2
 1334 0142 23        		.byte	0x23
 1335 0143 02        		.uleb128 0x2
 1336 0144 08        		.uleb128 0x8
 1337 0145 0000 0000 		.long	.LASF19
 1338 0149 03        		.byte	0x3
 1339 014a B502      		.word	0x2b5
 1340 014c FF00 0000 		.long	0xff
 1341 0150 02        		.byte	0x2
 1342 0151 23        		.byte	0x23
 1343 0152 04        		.uleb128 0x4
 1344 0153 08        		.uleb128 0x8
 1345 0154 0000 0000 		.long	.LASF20
 1346 0158 03        		.byte	0x3
 1347 0159 B602      		.word	0x2b6
 1348 015b FF00 0000 		.long	0xff
 1349 015f 02        		.byte	0x2
 1350 0160 23        		.byte	0x23
 1351 0161 06        		.uleb128 0x6
 1352 0162 00        		.byte	0x0
 1353 0163 0C        		.uleb128 0xc
 1354 0164 0000 0000 		.long	.LASF21
 1355 0168 03        		.byte	0x3
 1356 0169 B702      		.word	0x2b7
 1357 016b 0B01 0000 		.long	0x10b
 1358 016f 10        		.uleb128 0x10
 1359 0170 0000 0000 		.long	.LASF24
 1360 0174 01        		.byte	0x1
 1361 0175 C4        		.byte	0xc4
 1362 0176 01        		.byte	0x1
 1363 0177 03        		.byte	0x3
 1364 0178 11        		.uleb128 0x11
 1365 0179 0000 0000 		.long	.LASF26
 1366 017d 01        		.byte	0x1
 1367 017e 3601      		.word	0x136
 1368 0180 01        		.byte	0x1
GAS LISTING C:\Users\21030\AppData\Local\Temp/cchtovzi.s 			page 25


 1369 0181 3700 0000 		.long	0x37
 1370 0185 03        		.byte	0x3
 1371 0186 CA01 0000 		.long	0x1ca
 1372 018a 12        		.uleb128 0x12
 1373 018b 7271 00   		.string	"rq"
 1374 018e 01        		.byte	0x1
 1375 018f 3501      		.word	0x135
 1376 0191 CA01 0000 		.long	0x1ca
 1377 0195 13        		.uleb128 0x13
 1378 0196 6C65 6E00 		.string	"len"
 1379 019a 01        		.byte	0x1
 1380 019b 3701      		.word	0x137
 1381 019d 3700 0000 		.long	0x37
 1382 01a1 14        		.uleb128 0x14
 1383 01a2 0000 0000 		.long	.LASF22
 1384 01a6 01        		.byte	0x1
 1385 01a7 3801      		.word	0x138
 1386 01a9 3700 0000 		.long	0x37
 1387 01ad 15        		.uleb128 0x15
 1388 01ae 14        		.uleb128 0x14
 1389 01af 0000 0000 		.long	.LASF23
 1390 01b3 01        		.byte	0x1
 1391 01b4 3A01      		.word	0x13a
 1392 01b6 3700 0000 		.long	0x37
 1393 01ba 15        		.uleb128 0x15
 1394 01bb 14        		.uleb128 0x14
 1395 01bc 0000 0000 		.long	.LASF23
 1396 01c0 01        		.byte	0x1
 1397 01c1 4501      		.word	0x145
 1398 01c3 3700 0000 		.long	0x37
 1399 01c7 00        		.byte	0x0
 1400 01c8 00        		.byte	0x0
 1401 01c9 00        		.byte	0x0
 1402 01ca 16        		.uleb128 0x16
 1403 01cb 02        		.byte	0x2
 1404 01cc 6301 0000 		.long	0x163
 1405 01d0 10        		.uleb128 0x10
 1406 01d1 0000 0000 		.long	.LASF25
 1407 01d5 01        		.byte	0x1
 1408 01d6 CE        		.byte	0xce
 1409 01d7 01        		.byte	0x1
 1410 01d8 03        		.byte	0x3
 1411 01d9 11        		.uleb128 0x11
 1412 01da 0000 0000 		.long	.LASF27
 1413 01de 01        		.byte	0x1
 1414 01df 6901      		.word	0x169
 1415 01e1 01        		.byte	0x1
 1416 01e2 3700 0000 		.long	0x37
 1417 01e6 03        		.byte	0x3
 1418 01e7 6902 0000 		.long	0x269
 1419 01eb 12        		.uleb128 0x12
 1420 01ec 7271 00   		.string	"rq"
 1421 01ef 01        		.byte	0x1
 1422 01f0 6801      		.word	0x168
 1423 01f2 CA01 0000 		.long	0x1ca
 1424 01f6 13        		.uleb128 0x13
 1425 01f7 6C65 6E00 		.string	"len"
GAS LISTING C:\Users\21030\AppData\Local\Temp/cchtovzi.s 			page 26


 1426 01fb 01        		.byte	0x1
 1427 01fc 6A01      		.word	0x16a
 1428 01fe 3700 0000 		.long	0x37
 1429 0202 14        		.uleb128 0x14
 1430 0203 0000 0000 		.long	.LASF28
 1431 0207 01        		.byte	0x1
 1432 0208 6B01      		.word	0x16b
 1433 020a 6902 0000 		.long	0x269
 1434 020e 14        		.uleb128 0x14
 1435 020f 0000 0000 		.long	.LASF29
 1436 0213 01        		.byte	0x1
 1437 0214 6C01      		.word	0x16c
 1438 0216 3700 0000 		.long	0x37
 1439 021a 17        		.uleb128 0x17
 1440 021b 0000 0000 		.long	.LASF46
 1441 021f 01        		.byte	0x1
 1442 0220 9B01      		.word	0x19b
 1443 0222 15        		.uleb128 0x15
 1444 0223 14        		.uleb128 0x14
 1445 0224 0000 0000 		.long	.LASF23
 1446 0228 01        		.byte	0x1
 1447 0229 7201      		.word	0x172
 1448 022b 3700 0000 		.long	0x37
 1449 022f 18        		.uleb128 0x18
 1450 0230 4102 0000 		.long	0x241
 1451 0234 14        		.uleb128 0x14
 1452 0235 0000 0000 		.long	.LASF30
 1453 0239 01        		.byte	0x1
 1454 023a 7401      		.word	0x174
 1455 023c 3700 0000 		.long	0x37
 1456 0240 00        		.byte	0x0
 1457 0241 18        		.uleb128 0x18
 1458 0242 6602 0000 		.long	0x266
 1459 0246 19        		.uleb128 0x19
 1460 0247 8A01 0000 		.long	0x18a
 1461 024b 15        		.uleb128 0x15
 1462 024c 1A        		.uleb128 0x1a
 1463 024d 9501 0000 		.long	0x195
 1464 0251 1A        		.uleb128 0x1a
 1465 0252 A101 0000 		.long	0x1a1
 1466 0256 15        		.uleb128 0x15
 1467 0257 1A        		.uleb128 0x1a
 1468 0258 AE01 0000 		.long	0x1ae
 1469 025c 15        		.uleb128 0x15
 1470 025d 1A        		.uleb128 0x1a
 1471 025e BB01 0000 		.long	0x1bb
 1472 0262 00        		.byte	0x0
 1473 0263 00        		.byte	0x0
 1474 0264 00        		.byte	0x0
 1475 0265 00        		.byte	0x0
 1476 0266 1B        		.uleb128 0x1b
 1477 0267 00        		.byte	0x0
 1478 0268 00        		.byte	0x0
 1479 0269 16        		.uleb128 0x16
 1480 026a 02        		.byte	0x2
 1481 026b 3700 0000 		.long	0x37
 1482 026f 11        		.uleb128 0x11
GAS LISTING C:\Users\21030\AppData\Local\Temp/cchtovzi.s 			page 27


 1483 0270 0000 0000 		.long	.LASF31
 1484 0274 01        		.byte	0x1
 1485 0275 EC01      		.word	0x1ec
 1486 0277 01        		.byte	0x1
 1487 0278 3700 0000 		.long	0x37
 1488 027c 01        		.byte	0x1
 1489 027d D602 0000 		.long	0x2d6
 1490 0281 1C        		.uleb128 0x1c
 1491 0282 0000 0000 		.long	.LASF32
 1492 0286 01        		.byte	0x1
 1493 0287 EB01      		.word	0x1eb
 1494 0289 6902 0000 		.long	0x269
 1495 028d 12        		.uleb128 0x12
 1496 028e 6C65 6E00 		.string	"len"
 1497 0292 01        		.byte	0x1
 1498 0293 EB01      		.word	0x1eb
 1499 0295 3700 0000 		.long	0x37
 1500 0299 15        		.uleb128 0x15
 1501 029a 13        		.uleb128 0x13
 1502 029b 6900      		.string	"i"
 1503 029d 01        		.byte	0x1
 1504 029e F401      		.word	0x1f4
 1505 02a0 3700 0000 		.long	0x37
 1506 02a4 13        		.uleb128 0x13
 1507 02a5 7200      		.string	"r"
 1508 02a7 01        		.byte	0x1
 1509 02a8 F501      		.word	0x1f5
 1510 02aa D602 0000 		.long	0x2d6
 1511 02ae 15        		.uleb128 0x15
 1512 02af 13        		.uleb128 0x13
 1513 02b0 6300      		.string	"c"
 1514 02b2 01        		.byte	0x1
 1515 02b3 F801      		.word	0x1f8
 1516 02b5 3700 0000 		.long	0x37
 1517 02b9 15        		.uleb128 0x15
 1518 02ba 14        		.uleb128 0x14
 1519 02bb 0000 0000 		.long	.LASF33
 1520 02bf 01        		.byte	0x1
 1521 02c0 F801      		.word	0x1f8
 1522 02c2 4500 0000 		.long	0x45
 1523 02c6 14        		.uleb128 0x14
 1524 02c7 0000 0000 		.long	.LASF34
 1525 02cb 01        		.byte	0x1
 1526 02cc F801      		.word	0x1f8
 1527 02ce 2C00 0000 		.long	0x2c
 1528 02d2 00        		.byte	0x0
 1529 02d3 00        		.byte	0x0
 1530 02d4 00        		.byte	0x0
 1531 02d5 00        		.byte	0x0
 1532 02d6 02        		.uleb128 0x2
 1533 02d7 02        		.byte	0x2
 1534 02d8 07        		.byte	0x7
 1535 02d9 0000 0000 		.long	.LASF35
 1536 02dd 1D        		.uleb128 0x1d
 1537 02de 0000 0000 		.long	.LASF39
 1538 02e2 01        		.byte	0x1
 1539 02e3 A601      		.word	0x1a6
GAS LISTING C:\Users\21030\AppData\Local\Temp/cchtovzi.s 			page 28


 1540 02e5 01        		.byte	0x1
 1541 02e6 03        		.byte	0x3
 1542 02e7 9003 0000 		.long	0x390
 1543 02eb 1C        		.uleb128 0x1c
 1544 02ec 0000 0000 		.long	.LASF32
 1545 02f0 01        		.byte	0x1
 1546 02f1 A501      		.word	0x1a5
 1547 02f3 6902 0000 		.long	0x269
 1548 02f7 12        		.uleb128 0x12
 1549 02f8 6C65 6E00 		.string	"len"
 1550 02fc 01        		.byte	0x1
 1551 02fd A501      		.word	0x1a5
 1552 02ff 3700 0000 		.long	0x37
 1553 0303 13        		.uleb128 0x13
 1554 0304 7271 00   		.string	"rq"
 1555 0307 01        		.byte	0x1
 1556 0308 A701      		.word	0x1a7
 1557 030a CA01 0000 		.long	0x1ca
 1558 030e 18        		.uleb128 0x18
 1559 030f 8103 0000 		.long	0x381
 1560 0313 14        		.uleb128 0x14
 1561 0314 0000 0000 		.long	.LASF36
 1562 0318 01        		.byte	0x1
 1563 0319 B901      		.word	0x1b9
 1564 031b 3700 0000 		.long	0x37
 1565 031f 14        		.uleb128 0x14
 1566 0320 0000 0000 		.long	.LASF37
 1567 0324 01        		.byte	0x1
 1568 0325 BD01      		.word	0x1bd
 1569 0327 3700 0000 		.long	0x37
 1570 032b 15        		.uleb128 0x15
 1571 032c 19        		.uleb128 0x19
 1572 032d EB01 0000 		.long	0x1eb
 1573 0331 15        		.uleb128 0x15
 1574 0332 1A        		.uleb128 0x1a
 1575 0333 F601 0000 		.long	0x1f6
 1576 0337 1A        		.uleb128 0x1a
 1577 0338 0202 0000 		.long	0x202
 1578 033c 1A        		.uleb128 0x1a
 1579 033d 0E02 0000 		.long	0x20e
 1580 0341 1E        		.uleb128 0x1e
 1581 0342 1A02 0000 		.long	0x21a
 1582 0346 15        		.uleb128 0x15
 1583 0347 1A        		.uleb128 0x1a
 1584 0348 2302 0000 		.long	0x223
 1585 034c 18        		.uleb128 0x18
 1586 034d 5703 0000 		.long	0x357
 1587 0351 1A        		.uleb128 0x1a
 1588 0352 3402 0000 		.long	0x234
 1589 0356 00        		.byte	0x0
 1590 0357 18        		.uleb128 0x18
 1591 0358 7C03 0000 		.long	0x37c
 1592 035c 19        		.uleb128 0x19
 1593 035d 8A01 0000 		.long	0x18a
 1594 0361 15        		.uleb128 0x15
 1595 0362 1A        		.uleb128 0x1a
 1596 0363 9501 0000 		.long	0x195
GAS LISTING C:\Users\21030\AppData\Local\Temp/cchtovzi.s 			page 29


 1597 0367 1A        		.uleb128 0x1a
 1598 0368 A101 0000 		.long	0x1a1
 1599 036c 15        		.uleb128 0x15
 1600 036d 1A        		.uleb128 0x1a
 1601 036e AE01 0000 		.long	0x1ae
 1602 0372 15        		.uleb128 0x15
 1603 0373 1A        		.uleb128 0x1a
 1604 0374 BB01 0000 		.long	0x1bb
 1605 0378 00        		.byte	0x0
 1606 0379 00        		.byte	0x0
 1607 037a 00        		.byte	0x0
 1608 037b 00        		.byte	0x0
 1609 037c 1B        		.uleb128 0x1b
 1610 037d 00        		.byte	0x0
 1611 037e 00        		.byte	0x0
 1612 037f 00        		.byte	0x0
 1613 0380 00        		.byte	0x0
 1614 0381 15        		.uleb128 0x15
 1615 0382 14        		.uleb128 0x14
 1616 0383 0000 0000 		.long	.LASF38
 1617 0387 01        		.byte	0x1
 1618 0388 DB01      		.word	0x1db
 1619 038a 3700 0000 		.long	0x37
 1620 038e 00        		.byte	0x0
 1621 038f 00        		.byte	0x0
 1622 0390 1D        		.uleb128 0x1d
 1623 0391 0000 0000 		.long	.LASF40
 1624 0395 01        		.byte	0x1
 1625 0396 0E02      		.word	0x20e
 1626 0398 01        		.byte	0x1
 1627 0399 03        		.byte	0x3
 1628 039a E203 0000 		.long	0x3e2
 1629 039e 14        		.uleb128 0x14
 1630 039f 0000 0000 		.long	.LASF41
 1631 03a3 01        		.byte	0x1
 1632 03a4 0F02      		.word	0x20f
 1633 03a6 3700 0000 		.long	0x37
 1634 03aa 13        		.uleb128 0x13
 1635 03ab 6C65 6E00 		.string	"len"
 1636 03af 01        		.byte	0x1
 1637 03b0 1002      		.word	0x210
 1638 03b2 3700 0000 		.long	0x37
 1639 03b6 15        		.uleb128 0x15
 1640 03b7 19        		.uleb128 0x19
 1641 03b8 8D02 0000 		.long	0x28d
 1642 03bc 19        		.uleb128 0x19
 1643 03bd 8102 0000 		.long	0x281
 1644 03c1 15        		.uleb128 0x15
 1645 03c2 1A        		.uleb128 0x1a
 1646 03c3 9A02 0000 		.long	0x29a
 1647 03c7 1A        		.uleb128 0x1a
 1648 03c8 A402 0000 		.long	0x2a4
 1649 03cc 15        		.uleb128 0x15
 1650 03cd 1A        		.uleb128 0x1a
 1651 03ce AF02 0000 		.long	0x2af
 1652 03d2 15        		.uleb128 0x15
 1653 03d3 1A        		.uleb128 0x1a
GAS LISTING C:\Users\21030\AppData\Local\Temp/cchtovzi.s 			page 30


 1654 03d4 BA02 0000 		.long	0x2ba
 1655 03d8 1A        		.uleb128 0x1a
 1656 03d9 C602 0000 		.long	0x2c6
 1657 03dd 00        		.byte	0x0
 1658 03de 00        		.byte	0x0
 1659 03df 00        		.byte	0x0
 1660 03e0 00        		.byte	0x0
 1661 03e1 00        		.byte	0x0
 1662 03e2 1D        		.uleb128 0x1d
 1663 03e3 0000 0000 		.long	.LASF42
 1664 03e7 01        		.byte	0x1
 1665 03e8 2802      		.word	0x228
 1666 03ea 01        		.byte	0x1
 1667 03eb 03        		.byte	0x3
 1668 03ec FD03 0000 		.long	0x3fd
 1669 03f0 1C        		.uleb128 0x1c
 1670 03f1 0000 0000 		.long	.LASF43
 1671 03f5 01        		.byte	0x1
 1672 03f6 2702      		.word	0x227
 1673 03f8 3700 0000 		.long	0x37
 1674 03fc 00        		.byte	0x0
 1675 03fd 1F        		.uleb128 0x1f
 1676 03fe 01        		.byte	0x1
 1677 03ff 0000 0000 		.long	.LASF44
 1678 0403 01        		.byte	0x1
 1679 0404 6302      		.word	0x263
 1680 0406 01        		.byte	0x1
 1681 0407 0000 0000 		.long	.LFB14
 1682 040b 0000 0000 		.long	.LFE14
 1683 040f 02        		.byte	0x2
 1684 0410 90        		.byte	0x90
 1685 0411 20        		.uleb128 0x20
 1686 0412 2704 0000 		.long	0x427
 1687 0416 20        		.uleb128 0x20
 1688 0417 6F01 0000 		.long	0x16f
 1689 041b 0000 0000 		.long	.LBB59
 1690 041f 0000 0000 		.long	.LBE59
 1691 0423 01        		.byte	0x1
 1692 0424 6B02      		.word	0x26b
 1693 0426 00        		.byte	0x0
 1694 0427 1F        		.uleb128 0x1f
 1695 0428 01        		.byte	0x1
 1696 0429 0000 0000 		.long	.LASF45
 1697 042d 01        		.byte	0x1
 1698 042e 3902      		.word	0x239
 1699 0430 01        		.byte	0x1
 1700 0431 0000 0000 		.long	.LFB13
 1701 0435 0000 0000 		.long	.LFE13
 1702 0439 02        		.byte	0x2
 1703 043a 90        		.byte	0x90
 1704 043b 20        		.uleb128 0x20
 1705 043c 1B06 0000 		.long	0x61b
 1706 0440 13        		.uleb128 0x13
 1707 0441 6C65 6E00 		.string	"len"
 1708 0445 01        		.byte	0x1
 1709 0446 3A02      		.word	0x23a
 1710 0448 2500 0000 		.long	0x25
GAS LISTING C:\Users\21030\AppData\Local\Temp/cchtovzi.s 			page 31


 1711 044c 21        		.uleb128 0x21
 1712 044d 6900      		.string	"i"
 1713 044f 01        		.byte	0x1
 1714 0450 3B02      		.word	0x23b
 1715 0452 3700 0000 		.long	0x37
 1716 0456 01        		.byte	0x1
 1717 0457 69        		.byte	0x69
 1718 0458 17        		.uleb128 0x17
 1719 0459 0000 0000 		.long	.LASF47
 1720 045d 01        		.byte	0x1
 1721 045e 5C02      		.word	0x25c
 1722 0460 22        		.uleb128 0x22
 1723 0461 DD02 0000 		.long	0x2dd
 1724 0465 0000 0000 		.long	.LBB61
 1725 0469 0000 0000 		.long	.LBE61
 1726 046d 01        		.byte	0x1
 1727 046e 4502      		.word	0x245
 1728 0470 7705 0000 		.long	0x577
 1729 0474 19        		.uleb128 0x19
 1730 0475 F702 0000 		.long	0x2f7
 1731 0479 19        		.uleb128 0x19
 1732 047a EB02 0000 		.long	0x2eb
 1733 047e 23        		.uleb128 0x23
 1734 047f 0000 0000 		.long	.Ldebug_ranges0+0x0
 1735 0483 1A        		.uleb128 0x1a
 1736 0484 0303 0000 		.long	0x303
 1737 0488 24        		.uleb128 0x24
 1738 0489 0000 0000 		.long	.Ldebug_ranges0+0x20
 1739 048d 6205 0000 		.long	0x562
 1740 0491 25        		.uleb128 0x25
 1741 0492 1303 0000 		.long	0x313
 1742 0496 0000 0000 		.long	.LLST2
 1743 049a 1A        		.uleb128 0x1a
 1744 049b 1F03 0000 		.long	0x31f
 1745 049f 26        		.uleb128 0x26
 1746 04a0 D901 0000 		.long	0x1d9
 1747 04a4 0000 0000 		.long	.LBB65
 1748 04a8 0000 0000 		.long	.LBE65
 1749 04ac 01        		.byte	0x1
 1750 04ad C101      		.word	0x1c1
 1751 04af 19        		.uleb128 0x19
 1752 04b0 EB01 0000 		.long	0x1eb
 1753 04b4 27        		.uleb128 0x27
 1754 04b5 0000 0000 		.long	.LBB66
 1755 04b9 0000 0000 		.long	.LBE66
 1756 04bd 1A        		.uleb128 0x1a
 1757 04be F601 0000 		.long	0x1f6
 1758 04c2 25        		.uleb128 0x25
 1759 04c3 0202 0000 		.long	0x202
 1760 04c7 0000 0000 		.long	.LLST3
 1761 04cb 25        		.uleb128 0x25
 1762 04cc 0E02 0000 		.long	0x20e
 1763 04d0 0000 0000 		.long	.LLST4
 1764 04d4 1E        		.uleb128 0x1e
 1765 04d5 1A02 0000 		.long	0x21a
 1766 04d9 27        		.uleb128 0x27
 1767 04da 0000 0000 		.long	.LBB67
GAS LISTING C:\Users\21030\AppData\Local\Temp/cchtovzi.s 			page 32


 1768 04de 0000 0000 		.long	.LBE67
 1769 04e2 25        		.uleb128 0x25
 1770 04e3 2302 0000 		.long	0x223
 1771 04e7 0000 0000 		.long	.LLST5
 1772 04eb 28        		.uleb128 0x28
 1773 04ec 0000 0000 		.long	.LBB68
 1774 04f0 0000 0000 		.long	.LBE68
 1775 04f4 FE04 0000 		.long	0x4fe
 1776 04f8 1A        		.uleb128 0x1a
 1777 04f9 3402 0000 		.long	0x234
 1778 04fd 00        		.byte	0x0
 1779 04fe 22        		.uleb128 0x22
 1780 04ff 7801 0000 		.long	0x178
 1781 0503 0000 0000 		.long	.LBB69
 1782 0507 0000 0000 		.long	.LBE69
 1783 050b 01        		.byte	0x1
 1784 050c 8801      		.word	0x188
 1785 050e 4E05 0000 		.long	0x54e
 1786 0512 19        		.uleb128 0x19
 1787 0513 8A01 0000 		.long	0x18a
 1788 0517 23        		.uleb128 0x23
 1789 0518 0000 0000 		.long	.Ldebug_ranges0+0x38
 1790 051c 1A        		.uleb128 0x1a
 1791 051d 9501 0000 		.long	0x195
 1792 0521 1A        		.uleb128 0x1a
 1793 0522 A101 0000 		.long	0x1a1
 1794 0526 27        		.uleb128 0x27
 1795 0527 0000 0000 		.long	.LBB71
 1796 052b 0000 0000 		.long	.LBE71
 1797 052f 25        		.uleb128 0x25
 1798 0530 AE01 0000 		.long	0x1ae
 1799 0534 0000 0000 		.long	.LLST6
 1800 0538 27        		.uleb128 0x27
 1801 0539 0000 0000 		.long	.LBB72
 1802 053d 0000 0000 		.long	.LBE72
 1803 0541 25        		.uleb128 0x25
 1804 0542 BB01 0000 		.long	0x1bb
 1805 0546 0000 0000 		.long	.LLST7
 1806 054a 00        		.byte	0x0
 1807 054b 00        		.byte	0x0
 1808 054c 00        		.byte	0x0
 1809 054d 00        		.byte	0x0
 1810 054e 20        		.uleb128 0x20
 1811 054f 6F01 0000 		.long	0x16f
 1812 0553 0000 0000 		.long	.LBB74
 1813 0557 0000 0000 		.long	.LBE74
 1814 055b 01        		.byte	0x1
 1815 055c 9401      		.word	0x194
 1816 055e 00        		.byte	0x0
 1817 055f 00        		.byte	0x0
 1818 0560 00        		.byte	0x0
 1819 0561 00        		.byte	0x0
 1820 0562 27        		.uleb128 0x27
 1821 0563 0000 0000 		.long	.LBB76
 1822 0567 0000 0000 		.long	.LBE76
 1823 056b 25        		.uleb128 0x25
 1824 056c 8203 0000 		.long	0x382
GAS LISTING C:\Users\21030\AppData\Local\Temp/cchtovzi.s 			page 33


 1825 0570 0000 0000 		.long	.LLST8
 1826 0574 00        		.byte	0x0
 1827 0575 00        		.byte	0x0
 1828 0576 00        		.byte	0x0
 1829 0577 22        		.uleb128 0x22
 1830 0578 9003 0000 		.long	0x390
 1831 057c 0000 0000 		.long	.LBB79
 1832 0580 0000 0000 		.long	.LBE79
 1833 0584 01        		.byte	0x1
 1834 0585 4F02      		.word	0x24f
 1835 0587 0406 0000 		.long	0x604
 1836 058b 27        		.uleb128 0x27
 1837 058c 0000 0000 		.long	.LBB80
 1838 0590 0000 0000 		.long	.LBE80
 1839 0594 25        		.uleb128 0x25
 1840 0595 9E03 0000 		.long	0x39e
 1841 0599 0000 0000 		.long	.LLST9
 1842 059d 29        		.uleb128 0x29
 1843 059e AA03 0000 		.long	0x3aa
 1844 05a2 01        		.byte	0x1
 1845 05a3 66        		.byte	0x66
 1846 05a4 26        		.uleb128 0x26
 1847 05a5 6F02 0000 		.long	0x26f
 1848 05a9 0000 0000 		.long	.LBB81
 1849 05ad 0000 0000 		.long	.LBE81
 1850 05b1 01        		.byte	0x1
 1851 05b2 1702      		.word	0x217
 1852 05b4 19        		.uleb128 0x19
 1853 05b5 8D02 0000 		.long	0x28d
 1854 05b9 2A        		.uleb128 0x2a
 1855 05ba 8102 0000 		.long	0x281
 1856 05be 0000 0000 		.long	.LLST10
 1857 05c2 27        		.uleb128 0x27
 1858 05c3 0000 0000 		.long	.LBB83
 1859 05c7 0000 0000 		.long	.LBE83
 1860 05cb 1A        		.uleb128 0x1a
 1861 05cc 9A02 0000 		.long	0x29a
 1862 05d0 25        		.uleb128 0x25
 1863 05d1 A402 0000 		.long	0x2a4
 1864 05d5 0000 0000 		.long	.LLST11
 1865 05d9 27        		.uleb128 0x27
 1866 05da 0000 0000 		.long	.LBB84
 1867 05de 0000 0000 		.long	.LBE84
 1868 05e2 1A        		.uleb128 0x1a
 1869 05e3 AF02 0000 		.long	0x2af
 1870 05e7 27        		.uleb128 0x27
 1871 05e8 0000 0000 		.long	.LBB85
 1872 05ec 0000 0000 		.long	.LBE85
 1873 05f0 1A        		.uleb128 0x1a
 1874 05f1 BA02 0000 		.long	0x2ba
 1875 05f5 25        		.uleb128 0x25
 1876 05f6 C602 0000 		.long	0x2c6
 1877 05fa 0000 0000 		.long	.LLST12
 1878 05fe 00        		.byte	0x0
 1879 05ff 00        		.byte	0x0
 1880 0600 00        		.byte	0x0
 1881 0601 00        		.byte	0x0
GAS LISTING C:\Users\21030\AppData\Local\Temp/cchtovzi.s 			page 34


 1882 0602 00        		.byte	0x0
 1883 0603 00        		.byte	0x0
 1884 0604 27        		.uleb128 0x27
 1885 0605 0000 0000 		.long	.LBB86
 1886 0609 0000 0000 		.long	.LBE86
 1887 060d 14        		.uleb128 0x14
 1888 060e 0000 0000 		.long	.LASF48
 1889 0612 01        		.byte	0x1
 1890 0613 5302      		.word	0x253
 1891 0615 3700 0000 		.long	0x37
 1892 0619 00        		.byte	0x0
 1893 061a 00        		.byte	0x0
 1894 061b 2B        		.uleb128 0x2b
 1895 061c 0000 0000 		.long	.LASF79
 1896 0620 01        		.byte	0x1
 1897 0621 DC        		.byte	0xdc
 1898 0622 01        		.byte	0x1
 1899 0623 0000 0000 		.long	.LFB4
 1900 0627 0000 0000 		.long	.LFE4
 1901 062b 02        		.byte	0x2
 1902 062c 90        		.byte	0x90
 1903 062d 20        		.uleb128 0x20
 1904 062e 7A06 0000 		.long	0x67a
 1905 0632 2C        		.uleb128 0x2c
 1906 0633 0000 0000 		.long	.LASF32
 1907 0637 01        		.byte	0x1
 1908 0638 DB        		.byte	0xdb
 1909 0639 6902 0000 		.long	0x269
 1910 063d 0000 0000 		.long	.LLST14
 1911 0641 2D        		.uleb128 0x2d
 1912 0642 6C65 6E00 		.string	"len"
 1913 0646 01        		.byte	0x1
 1914 0647 DB        		.byte	0xdb
 1915 0648 3700 0000 		.long	0x37
 1916 064c 0000 0000 		.long	.LLST15
 1917 0650 2C        		.uleb128 0x2c
 1918 0651 0000 0000 		.long	.LASF49
 1919 0655 01        		.byte	0x1
 1920 0656 DB        		.byte	0xdb
 1921 0657 7A06 0000 		.long	0x67a
 1922 065b 0000 0000 		.long	.LLST16
 1923 065f 2E        		.uleb128 0x2e
 1924 0660 7000      		.string	"p"
 1925 0662 01        		.byte	0x1
 1926 0663 DD        		.byte	0xdd
 1927 0664 6902 0000 		.long	0x269
 1928 0668 0000 0000 		.long	.LLST17
 1929 066c 2E        		.uleb128 0x2e
 1930 066d 6900      		.string	"i"
 1931 066f 01        		.byte	0x1
 1932 0670 DE        		.byte	0xde
 1933 0671 2500 0000 		.long	0x25
 1934 0675 0000 0000 		.long	.LLST18
 1935 0679 00        		.byte	0x0
 1936 067a 16        		.uleb128 0x16
 1937 067b 02        		.byte	0x2
 1938 067c BD00 0000 		.long	0xbd
GAS LISTING C:\Users\21030\AppData\Local\Temp/cchtovzi.s 			page 35


 1939 0680 2F        		.uleb128 0x2f
 1940 0681 01        		.byte	0x1
 1941 0682 0000 0000 		.long	.LASF50
 1942 0686 01        		.byte	0x1
 1943 0687 FB        		.byte	0xfb
 1944 0688 01        		.byte	0x1
 1945 0689 0000 0000 		.long	.LFB6
 1946 068d 0000 0000 		.long	.LFE6
 1947 0691 02        		.byte	0x2
 1948 0692 90        		.byte	0x90
 1949 0693 20        		.uleb128 0x20
 1950 0694 B706 0000 		.long	0x6b7
 1951 0698 2C        		.uleb128 0x2c
 1952 0699 0000 0000 		.long	.LASF32
 1953 069d 01        		.byte	0x1
 1954 069e FA        		.byte	0xfa
 1955 069f 6902 0000 		.long	0x269
 1956 06a3 0000 0000 		.long	.LLST20
 1957 06a7 2D        		.uleb128 0x2d
 1958 06a8 6C65 6E00 		.string	"len"
 1959 06ac 01        		.byte	0x1
 1960 06ad FA        		.byte	0xfa
 1961 06ae 3700 0000 		.long	0x37
 1962 06b2 0000 0000 		.long	.LLST21
 1963 06b6 00        		.byte	0x0
 1964 06b7 2F        		.uleb128 0x2f
 1965 06b8 01        		.byte	0x1
 1966 06b9 0000 0000 		.long	.LASF51
 1967 06bd 01        		.byte	0x1
 1968 06be F4        		.byte	0xf4
 1969 06bf 01        		.byte	0x1
 1970 06c0 0000 0000 		.long	.LFB5
 1971 06c4 0000 0000 		.long	.LFE5
 1972 06c8 02        		.byte	0x2
 1973 06c9 90        		.byte	0x90
 1974 06ca 20        		.uleb128 0x20
 1975 06cb EE06 0000 		.long	0x6ee
 1976 06cf 2C        		.uleb128 0x2c
 1977 06d0 0000 0000 		.long	.LASF32
 1978 06d4 01        		.byte	0x1
 1979 06d5 F3        		.byte	0xf3
 1980 06d6 6902 0000 		.long	0x269
 1981 06da 0000 0000 		.long	.LLST23
 1982 06de 2D        		.uleb128 0x2d
 1983 06df 6C65 6E00 		.string	"len"
 1984 06e3 01        		.byte	0x1
 1985 06e4 F3        		.byte	0xf3
 1986 06e5 3700 0000 		.long	0x37
 1987 06e9 0000 0000 		.long	.LLST24
 1988 06ed 00        		.byte	0x0
 1989 06ee 30        		.uleb128 0x30
 1990 06ef 0000 0000 		.long	.LASF52
 1991 06f3 01        		.byte	0x1
 1992 06f4 2F        		.byte	0x2f
 1993 06f5 3700 0000 		.long	0x37
 1994 06f9 05        		.byte	0x5
 1995 06fa 03        		.byte	0x3
GAS LISTING C:\Users\21030\AppData\Local\Temp/cchtovzi.s 			page 36


 1996 06fb 0000 0000 		.long	usbMsgLen
 1997 06ff 30        		.uleb128 0x30
 1998 0700 0000 0000 		.long	.LASF53
 1999 0704 01        		.byte	0x1
 2000 0705 30        		.byte	0x30
 2001 0706 3700 0000 		.long	0x37
 2002 070a 05        		.byte	0x5
 2003 070b 03        		.byte	0x3
 2004 070c 0000 0000 		.long	usbMsgFlags
 2005 0710 31        		.uleb128 0x31
 2006 0711 0000 0000 		.long	.LASF54
 2007 0715 01        		.byte	0x1
 2008 0716 2E        		.byte	0x2e
 2009 0717 D602 0000 		.long	0x2d6
 2010 071b 01        		.byte	0x1
 2011 071c 05        		.byte	0x5
 2012 071d 03        		.byte	0x3
 2013 071e 0000 0000 		.long	usbMsgPtr
 2014 0722 31        		.uleb128 0x31
 2015 0723 0000 0000 		.long	.LASF55
 2016 0727 01        		.byte	0x1
 2017 0728 1D        		.byte	0x1d
 2018 0729 3700 0000 		.long	0x37
 2019 072d 01        		.byte	0x1
 2020 072e 05        		.byte	0x5
 2021 072f 03        		.byte	0x3
 2022 0730 0000 0000 		.long	usbRxToken
 2023 0734 31        		.uleb128 0x31
 2024 0735 0000 0000 		.long	.LASF56
 2025 0739 01        		.byte	0x1
 2026 073a 1A        		.byte	0x1a
 2027 073b 3700 0000 		.long	0x37
 2028 073f 01        		.byte	0x1
 2029 0740 05        		.byte	0x5
 2030 0741 03        		.byte	0x3
 2031 0742 0000 0000 		.long	usbConfiguration
 2032 0746 0A        		.uleb128 0xa
 2033 0747 5607 0000 		.long	0x756
 2034 074b 5607 0000 		.long	0x756
 2035 074f 0B        		.uleb128 0xb
 2036 0750 BA00 0000 		.long	0xba
 2037 0754 11        		.byte	0x11
 2038 0755 00        		.byte	0x0
 2039 0756 02        		.uleb128 0x2
 2040 0757 01        		.byte	0x1
 2041 0758 06        		.byte	0x6
 2042 0759 0000 0000 		.long	.LASF57
 2043 075d 31        		.uleb128 0x31
 2044 075e 0000 0000 		.long	.LASF58
 2045 0762 01        		.byte	0x1
 2046 0763 6D        		.byte	0x6d
 2047 0764 6F07 0000 		.long	0x76f
 2048 0768 01        		.byte	0x1
 2049 0769 05        		.byte	0x5
 2050 076a 03        		.byte	0x3
 2051 076b 0000 0000 		.long	usbDescriptorDevice
 2052 076f 32        		.uleb128 0x32
GAS LISTING C:\Users\21030\AppData\Local\Temp/cchtovzi.s 			page 37


 2053 0770 4607 0000 		.long	0x746
 2054 0774 0A        		.uleb128 0xa
 2055 0775 5607 0000 		.long	0x756
 2056 0779 7F07 0000 		.long	0x77f
 2057 077d 33        		.uleb128 0x33
 2058 077e 00        		.byte	0x0
 2059 077f 34        		.uleb128 0x34
 2060 0780 0000 0000 		.long	.LASF59
 2061 0784 03        		.byte	0x3
 2062 0785 E601      		.word	0x1e6
 2063 0787 8D07 0000 		.long	0x78d
 2064 078b 01        		.byte	0x1
 2065 078c 01        		.byte	0x1
 2066 078d 32        		.uleb128 0x32
 2067 078e 7407 0000 		.long	0x774
 2068 0792 34        		.uleb128 0x34
 2069 0793 0000 0000 		.long	.LASF60
 2070 0797 03        		.byte	0x3
 2071 0798 EC01      		.word	0x1ec
 2072 079a A007 0000 		.long	0x7a0
 2073 079e 01        		.byte	0x1
 2074 079f 01        		.byte	0x1
 2075 07a0 32        		.uleb128 0x32
 2076 07a1 7407 0000 		.long	0x774
 2077 07a5 0A        		.uleb128 0xa
 2078 07a6 5607 0000 		.long	0x756
 2079 07aa B507 0000 		.long	0x7b5
 2080 07ae 0B        		.uleb128 0xb
 2081 07af BA00 0000 		.long	0xba
 2082 07b3 03        		.byte	0x3
 2083 07b4 00        		.byte	0x0
 2084 07b5 31        		.uleb128 0x31
 2085 07b6 0000 0000 		.long	.LASF61
 2086 07ba 01        		.byte	0x1
 2087 07bb 44        		.byte	0x44
 2088 07bc C707 0000 		.long	0x7c7
 2089 07c0 01        		.byte	0x1
 2090 07c1 05        		.byte	0x5
 2091 07c2 03        		.byte	0x3
 2092 07c3 0000 0000 		.long	usbDescriptorString0
 2093 07c7 32        		.uleb128 0x32
 2094 07c8 A507 0000 		.long	0x7a5
 2095 07cc 0A        		.uleb128 0xa
 2096 07cd 3E00 0000 		.long	0x3e
 2097 07d1 DC07 0000 		.long	0x7dc
 2098 07d5 0B        		.uleb128 0xb
 2099 07d6 BA00 0000 		.long	0xba
 2100 07da 05        		.byte	0x5
 2101 07db 00        		.byte	0x0
 2102 07dc 31        		.uleb128 0x31
 2103 07dd 0000 0000 		.long	.LASF62
 2104 07e1 01        		.byte	0x1
 2105 07e2 4E        		.byte	0x4e
 2106 07e3 EE07 0000 		.long	0x7ee
 2107 07e7 01        		.byte	0x1
 2108 07e8 05        		.byte	0x5
 2109 07e9 03        		.byte	0x3
GAS LISTING C:\Users\21030\AppData\Local\Temp/cchtovzi.s 			page 38


 2110 07ea 0000 0000 		.long	usbDescriptorStringVendor
 2111 07ee 32        		.uleb128 0x32
 2112 07ef CC07 0000 		.long	0x7cc
 2113 07f3 0A        		.uleb128 0xa
 2114 07f4 3E00 0000 		.long	0x3e
 2115 07f8 0308 0000 		.long	0x803
 2116 07fc 0B        		.uleb128 0xb
 2117 07fd BA00 0000 		.long	0xba
 2118 0801 08        		.byte	0x8
 2119 0802 00        		.byte	0x0
 2120 0803 31        		.uleb128 0x31
 2121 0804 0000 0000 		.long	.LASF63
 2122 0808 01        		.byte	0x1
 2123 0809 57        		.byte	0x57
 2124 080a 1508 0000 		.long	0x815
 2125 080e 01        		.byte	0x1
 2126 080f 05        		.byte	0x5
 2127 0810 03        		.byte	0x3
 2128 0811 0000 0000 		.long	usbDescriptorStringDevice
 2129 0815 32        		.uleb128 0x32
 2130 0816 F307 0000 		.long	0x7f3
 2131 081a 0A        		.uleb128 0xa
 2132 081b 3E00 0000 		.long	0x3e
 2133 081f 2508 0000 		.long	0x825
 2134 0823 33        		.uleb128 0x33
 2135 0824 00        		.byte	0x0
 2136 0825 34        		.uleb128 0x34
 2137 0826 0000 0000 		.long	.LASF64
 2138 082a 03        		.byte	0x3
 2139 082b 0402      		.word	0x204
 2140 082d 3308 0000 		.long	0x833
 2141 0831 01        		.byte	0x1
 2142 0832 01        		.byte	0x1
 2143 0833 32        		.uleb128 0x32
 2144 0834 1A08 0000 		.long	0x81a
 2145 0838 31        		.uleb128 0x31
 2146 0839 0000 0000 		.long	.LASF65
 2147 083d 01        		.byte	0x1
 2148 083e 24        		.byte	0x24
 2149 083f BD00 0000 		.long	0xbd
 2150 0843 01        		.byte	0x1
 2151 0844 05        		.byte	0x5
 2152 0845 03        		.byte	0x3
 2153 0846 0000 0000 		.long	usbTxStatus1
 2154 084a 31        		.uleb128 0x31
 2155 084b 0000 0000 		.long	.LASF66
 2156 084f 01        		.byte	0x1
 2157 0850 26        		.byte	0x26
 2158 0851 BD00 0000 		.long	0xbd
 2159 0855 01        		.byte	0x1
 2160 0856 05        		.byte	0x5
 2161 0857 03        		.byte	0x3
 2162 0858 0000 0000 		.long	usbTxStatus3
 2163 085c 0A        		.uleb128 0xa
 2164 085d 3700 0000 		.long	0x37
 2165 0861 6C08 0000 		.long	0x86c
 2166 0865 0B        		.uleb128 0xb
GAS LISTING C:\Users\21030\AppData\Local\Temp/cchtovzi.s 			page 39


 2167 0866 BA00 0000 		.long	0xba
 2168 086a 15        		.byte	0x15
 2169 086b 00        		.byte	0x0
 2170 086c 31        		.uleb128 0x31
 2171 086d 0000 0000 		.long	.LASF67
 2172 0871 01        		.byte	0x1
 2173 0872 16        		.byte	0x16
 2174 0873 5C08 0000 		.long	0x85c
 2175 0877 01        		.byte	0x1
 2176 0878 05        		.byte	0x5
 2177 0879 03        		.byte	0x3
 2178 087a 0000 0000 		.long	usbRxBuf
 2179 087e 31        		.uleb128 0x31
 2180 087f 0000 0000 		.long	.LASF68
 2181 0883 01        		.byte	0x1
 2182 0884 17        		.byte	0x17
 2183 0885 3700 0000 		.long	0x37
 2184 0889 01        		.byte	0x1
 2185 088a 05        		.byte	0x5
 2186 088b 03        		.byte	0x3
 2187 088c 0000 0000 		.long	usbInputBufOffset
 2188 0890 31        		.uleb128 0x31
 2189 0891 0000 0000 		.long	.LASF69
 2190 0895 01        		.byte	0x1
 2191 0896 18        		.byte	0x18
 2192 0897 3700 0000 		.long	0x37
 2193 089b 01        		.byte	0x1
 2194 089c 05        		.byte	0x5
 2195 089d 03        		.byte	0x3
 2196 089e 0000 0000 		.long	usbDeviceAddr
 2197 08a2 31        		.uleb128 0x31
 2198 08a3 0000 0000 		.long	.LASF70
 2199 08a7 01        		.byte	0x1
 2200 08a8 19        		.byte	0x19
 2201 08a9 3700 0000 		.long	0x37
 2202 08ad 01        		.byte	0x1
 2203 08ae 05        		.byte	0x5
 2204 08af 03        		.byte	0x3
 2205 08b0 0000 0000 		.long	usbNewDeviceAddr
 2206 08b4 31        		.uleb128 0x31
 2207 08b5 0000 0000 		.long	.LASF71
 2208 08b9 01        		.byte	0x1
 2209 08ba 1B        		.byte	0x1b
 2210 08bb C608 0000 		.long	0x8c6
 2211 08bf 01        		.byte	0x1
 2212 08c0 05        		.byte	0x5
 2213 08c1 03        		.byte	0x3
 2214 08c2 0000 0000 		.long	usbRxLen
 2215 08c6 09        		.uleb128 0x9
 2216 08c7 2500 0000 		.long	0x25
 2217 08cb 31        		.uleb128 0x31
 2218 08cc 0000 0000 		.long	.LASF72
 2219 08d0 01        		.byte	0x1
 2220 08d1 1C        		.byte	0x1c
 2221 08d2 3700 0000 		.long	0x37
 2222 08d6 01        		.byte	0x1
 2223 08d7 05        		.byte	0x5
GAS LISTING C:\Users\21030\AppData\Local\Temp/cchtovzi.s 			page 40


 2224 08d8 03        		.byte	0x3
 2225 08d9 0000 0000 		.long	usbCurrentTok
 2226 08dd 31        		.uleb128 0x31
 2227 08de 0000 0000 		.long	.LASF73
 2228 08e2 01        		.byte	0x1
 2229 08e3 1E        		.byte	0x1e
 2230 08e4 A500 0000 		.long	0xa5
 2231 08e8 01        		.byte	0x1
 2232 08e9 05        		.byte	0x5
 2233 08ea 03        		.byte	0x3
 2234 08eb 0000 0000 		.long	usbTxLen
 2235 08ef 31        		.uleb128 0x31
 2236 08f0 0000 0000 		.long	.LASF74
 2237 08f4 01        		.byte	0x1
 2238 08f5 1F        		.byte	0x1f
 2239 08f6 AA00 0000 		.long	0xaa
 2240 08fa 01        		.byte	0x1
 2241 08fb 05        		.byte	0x5
 2242 08fc 03        		.byte	0x3
 2243 08fd 0000 0000 		.long	usbTxBuf
 2244 0901 00        		.byte	0x0
 2245               		.section	.debug_abbrev
 2246 0000 01        		.uleb128 0x1
 2247 0001 11        		.uleb128 0x11
 2248 0002 01        		.byte	0x1
 2249 0003 25        		.uleb128 0x25
 2250 0004 0E        		.uleb128 0xe
 2251 0005 13        		.uleb128 0x13
 2252 0006 0B        		.uleb128 0xb
 2253 0007 03        		.uleb128 0x3
 2254 0008 0E        		.uleb128 0xe
 2255 0009 1B        		.uleb128 0x1b
 2256 000a 0E        		.uleb128 0xe
 2257 000b 11        		.uleb128 0x11
 2258 000c 01        		.uleb128 0x1
 2259 000d 12        		.uleb128 0x12
 2260 000e 01        		.uleb128 0x1
 2261 000f 10        		.uleb128 0x10
 2262 0010 06        		.uleb128 0x6
 2263 0011 00        		.byte	0x0
 2264 0012 00        		.byte	0x0
 2265 0013 02        		.uleb128 0x2
 2266 0014 24        		.uleb128 0x24
 2267 0015 00        		.byte	0x0
 2268 0016 0B        		.uleb128 0xb
 2269 0017 0B        		.uleb128 0xb
 2270 0018 3E        		.uleb128 0x3e
 2271 0019 0B        		.uleb128 0xb
 2272 001a 03        		.uleb128 0x3
 2273 001b 0E        		.uleb128 0xe
 2274 001c 00        		.byte	0x0
 2275 001d 00        		.byte	0x0
 2276 001e 03        		.uleb128 0x3
 2277 001f 16        		.uleb128 0x16
 2278 0020 00        		.byte	0x0
 2279 0021 03        		.uleb128 0x3
 2280 0022 0E        		.uleb128 0xe
GAS LISTING C:\Users\21030\AppData\Local\Temp/cchtovzi.s 			page 41


 2281 0023 3A        		.uleb128 0x3a
 2282 0024 0B        		.uleb128 0xb
 2283 0025 3B        		.uleb128 0x3b
 2284 0026 0B        		.uleb128 0xb
 2285 0027 49        		.uleb128 0x49
 2286 0028 13        		.uleb128 0x13
 2287 0029 00        		.byte	0x0
 2288 002a 00        		.byte	0x0
 2289 002b 04        		.uleb128 0x4
 2290 002c 24        		.uleb128 0x24
 2291 002d 00        		.byte	0x0
 2292 002e 0B        		.uleb128 0xb
 2293 002f 0B        		.uleb128 0xb
 2294 0030 3E        		.uleb128 0x3e
 2295 0031 0B        		.uleb128 0xb
 2296 0032 03        		.uleb128 0x3
 2297 0033 08        		.uleb128 0x8
 2298 0034 00        		.byte	0x0
 2299 0035 00        		.byte	0x0
 2300 0036 05        		.uleb128 0x5
 2301 0037 24        		.uleb128 0x24
 2302 0038 00        		.byte	0x0
 2303 0039 0B        		.uleb128 0xb
 2304 003a 0B        		.uleb128 0xb
 2305 003b 3E        		.uleb128 0x3e
 2306 003c 0B        		.uleb128 0xb
 2307 003d 00        		.byte	0x0
 2308 003e 00        		.byte	0x0
 2309 003f 06        		.uleb128 0x6
 2310 0040 13        		.uleb128 0x13
 2311 0041 01        		.byte	0x1
 2312 0042 03        		.uleb128 0x3
 2313 0043 0E        		.uleb128 0xe
 2314 0044 0B        		.uleb128 0xb
 2315 0045 0B        		.uleb128 0xb
 2316 0046 3A        		.uleb128 0x3a
 2317 0047 0B        		.uleb128 0xb
 2318 0048 3B        		.uleb128 0x3b
 2319 0049 05        		.uleb128 0x5
 2320 004a 01        		.uleb128 0x1
 2321 004b 13        		.uleb128 0x13
 2322 004c 00        		.byte	0x0
 2323 004d 00        		.byte	0x0
 2324 004e 07        		.uleb128 0x7
 2325 004f 0D        		.uleb128 0xd
 2326 0050 00        		.byte	0x0
 2327 0051 03        		.uleb128 0x3
 2328 0052 08        		.uleb128 0x8
 2329 0053 3A        		.uleb128 0x3a
 2330 0054 0B        		.uleb128 0xb
 2331 0055 3B        		.uleb128 0x3b
 2332 0056 05        		.uleb128 0x5
 2333 0057 49        		.uleb128 0x49
 2334 0058 13        		.uleb128 0x13
 2335 0059 38        		.uleb128 0x38
 2336 005a 0A        		.uleb128 0xa
 2337 005b 00        		.byte	0x0
GAS LISTING C:\Users\21030\AppData\Local\Temp/cchtovzi.s 			page 42


 2338 005c 00        		.byte	0x0
 2339 005d 08        		.uleb128 0x8
 2340 005e 0D        		.uleb128 0xd
 2341 005f 00        		.byte	0x0
 2342 0060 03        		.uleb128 0x3
 2343 0061 0E        		.uleb128 0xe
 2344 0062 3A        		.uleb128 0x3a
 2345 0063 0B        		.uleb128 0xb
 2346 0064 3B        		.uleb128 0x3b
 2347 0065 05        		.uleb128 0x5
 2348 0066 49        		.uleb128 0x49
 2349 0067 13        		.uleb128 0x13
 2350 0068 38        		.uleb128 0x38
 2351 0069 0A        		.uleb128 0xa
 2352 006a 00        		.byte	0x0
 2353 006b 00        		.byte	0x0
 2354 006c 09        		.uleb128 0x9
 2355 006d 35        		.uleb128 0x35
 2356 006e 00        		.byte	0x0
 2357 006f 49        		.uleb128 0x49
 2358 0070 13        		.uleb128 0x13
 2359 0071 00        		.byte	0x0
 2360 0072 00        		.byte	0x0
 2361 0073 0A        		.uleb128 0xa
 2362 0074 01        		.uleb128 0x1
 2363 0075 01        		.byte	0x1
 2364 0076 49        		.uleb128 0x49
 2365 0077 13        		.uleb128 0x13
 2366 0078 01        		.uleb128 0x1
 2367 0079 13        		.uleb128 0x13
 2368 007a 00        		.byte	0x0
 2369 007b 00        		.byte	0x0
 2370 007c 0B        		.uleb128 0xb
 2371 007d 21        		.uleb128 0x21
 2372 007e 00        		.byte	0x0
 2373 007f 49        		.uleb128 0x49
 2374 0080 13        		.uleb128 0x13
 2375 0081 2F        		.uleb128 0x2f
 2376 0082 0B        		.uleb128 0xb
 2377 0083 00        		.byte	0x0
 2378 0084 00        		.byte	0x0
 2379 0085 0C        		.uleb128 0xc
 2380 0086 16        		.uleb128 0x16
 2381 0087 00        		.byte	0x0
 2382 0088 03        		.uleb128 0x3
 2383 0089 0E        		.uleb128 0xe
 2384 008a 3A        		.uleb128 0x3a
 2385 008b 0B        		.uleb128 0xb
 2386 008c 3B        		.uleb128 0x3b
 2387 008d 05        		.uleb128 0x5
 2388 008e 49        		.uleb128 0x49
 2389 008f 13        		.uleb128 0x13
 2390 0090 00        		.byte	0x0
 2391 0091 00        		.byte	0x0
 2392 0092 0D        		.uleb128 0xd
 2393 0093 17        		.uleb128 0x17
 2394 0094 01        		.byte	0x1
GAS LISTING C:\Users\21030\AppData\Local\Temp/cchtovzi.s 			page 43


 2395 0095 03        		.uleb128 0x3
 2396 0096 0E        		.uleb128 0xe
 2397 0097 0B        		.uleb128 0xb
 2398 0098 0B        		.uleb128 0xb
 2399 0099 3A        		.uleb128 0x3a
 2400 009a 0B        		.uleb128 0xb
 2401 009b 3B        		.uleb128 0x3b
 2402 009c 05        		.uleb128 0x5
 2403 009d 01        		.uleb128 0x1
 2404 009e 13        		.uleb128 0x13
 2405 009f 00        		.byte	0x0
 2406 00a0 00        		.byte	0x0
 2407 00a1 0E        		.uleb128 0xe
 2408 00a2 0D        		.uleb128 0xd
 2409 00a3 00        		.byte	0x0
 2410 00a4 03        		.uleb128 0x3
 2411 00a5 0E        		.uleb128 0xe
 2412 00a6 3A        		.uleb128 0x3a
 2413 00a7 0B        		.uleb128 0xb
 2414 00a8 3B        		.uleb128 0x3b
 2415 00a9 05        		.uleb128 0x5
 2416 00aa 49        		.uleb128 0x49
 2417 00ab 13        		.uleb128 0x13
 2418 00ac 00        		.byte	0x0
 2419 00ad 00        		.byte	0x0
 2420 00ae 0F        		.uleb128 0xf
 2421 00af 13        		.uleb128 0x13
 2422 00b0 01        		.byte	0x1
 2423 00b1 03        		.uleb128 0x3
 2424 00b2 0E        		.uleb128 0xe
 2425 00b3 0B        		.uleb128 0xb
 2426 00b4 0B        		.uleb128 0xb
 2427 00b5 3A        		.uleb128 0x3a
 2428 00b6 0B        		.uleb128 0xb
 2429 00b7 3B        		.uleb128 0x3b
 2430 00b8 0B        		.uleb128 0xb
 2431 00b9 01        		.uleb128 0x1
 2432 00ba 13        		.uleb128 0x13
 2433 00bb 00        		.byte	0x0
 2434 00bc 00        		.byte	0x0
 2435 00bd 10        		.uleb128 0x10
 2436 00be 2E        		.uleb128 0x2e
 2437 00bf 00        		.byte	0x0
 2438 00c0 03        		.uleb128 0x3
 2439 00c1 0E        		.uleb128 0xe
 2440 00c2 3A        		.uleb128 0x3a
 2441 00c3 0B        		.uleb128 0xb
 2442 00c4 3B        		.uleb128 0x3b
 2443 00c5 0B        		.uleb128 0xb
 2444 00c6 27        		.uleb128 0x27
 2445 00c7 0C        		.uleb128 0xc
 2446 00c8 20        		.uleb128 0x20
 2447 00c9 0B        		.uleb128 0xb
 2448 00ca 00        		.byte	0x0
 2449 00cb 00        		.byte	0x0
 2450 00cc 11        		.uleb128 0x11
 2451 00cd 2E        		.uleb128 0x2e
GAS LISTING C:\Users\21030\AppData\Local\Temp/cchtovzi.s 			page 44


 2452 00ce 01        		.byte	0x1
 2453 00cf 03        		.uleb128 0x3
 2454 00d0 0E        		.uleb128 0xe
 2455 00d1 3A        		.uleb128 0x3a
 2456 00d2 0B        		.uleb128 0xb
 2457 00d3 3B        		.uleb128 0x3b
 2458 00d4 05        		.uleb128 0x5
 2459 00d5 27        		.uleb128 0x27
 2460 00d6 0C        		.uleb128 0xc
 2461 00d7 49        		.uleb128 0x49
 2462 00d8 13        		.uleb128 0x13
 2463 00d9 20        		.uleb128 0x20
 2464 00da 0B        		.uleb128 0xb
 2465 00db 01        		.uleb128 0x1
 2466 00dc 13        		.uleb128 0x13
 2467 00dd 00        		.byte	0x0
 2468 00de 00        		.byte	0x0
 2469 00df 12        		.uleb128 0x12
 2470 00e0 05        		.uleb128 0x5
 2471 00e1 00        		.byte	0x0
 2472 00e2 03        		.uleb128 0x3
 2473 00e3 08        		.uleb128 0x8
 2474 00e4 3A        		.uleb128 0x3a
 2475 00e5 0B        		.uleb128 0xb
 2476 00e6 3B        		.uleb128 0x3b
 2477 00e7 05        		.uleb128 0x5
 2478 00e8 49        		.uleb128 0x49
 2479 00e9 13        		.uleb128 0x13
 2480 00ea 00        		.byte	0x0
 2481 00eb 00        		.byte	0x0
 2482 00ec 13        		.uleb128 0x13
 2483 00ed 34        		.uleb128 0x34
 2484 00ee 00        		.byte	0x0
 2485 00ef 03        		.uleb128 0x3
 2486 00f0 08        		.uleb128 0x8
 2487 00f1 3A        		.uleb128 0x3a
 2488 00f2 0B        		.uleb128 0xb
 2489 00f3 3B        		.uleb128 0x3b
 2490 00f4 05        		.uleb128 0x5
 2491 00f5 49        		.uleb128 0x49
 2492 00f6 13        		.uleb128 0x13
 2493 00f7 00        		.byte	0x0
 2494 00f8 00        		.byte	0x0
 2495 00f9 14        		.uleb128 0x14
 2496 00fa 34        		.uleb128 0x34
 2497 00fb 00        		.byte	0x0
 2498 00fc 03        		.uleb128 0x3
 2499 00fd 0E        		.uleb128 0xe
 2500 00fe 3A        		.uleb128 0x3a
 2501 00ff 0B        		.uleb128 0xb
 2502 0100 3B        		.uleb128 0x3b
 2503 0101 05        		.uleb128 0x5
 2504 0102 49        		.uleb128 0x49
 2505 0103 13        		.uleb128 0x13
 2506 0104 00        		.byte	0x0
 2507 0105 00        		.byte	0x0
 2508 0106 15        		.uleb128 0x15
GAS LISTING C:\Users\21030\AppData\Local\Temp/cchtovzi.s 			page 45


 2509 0107 0B        		.uleb128 0xb
 2510 0108 01        		.byte	0x1
 2511 0109 00        		.byte	0x0
 2512 010a 00        		.byte	0x0
 2513 010b 16        		.uleb128 0x16
 2514 010c 0F        		.uleb128 0xf
 2515 010d 00        		.byte	0x0
 2516 010e 0B        		.uleb128 0xb
 2517 010f 0B        		.uleb128 0xb
 2518 0110 49        		.uleb128 0x49
 2519 0111 13        		.uleb128 0x13
 2520 0112 00        		.byte	0x0
 2521 0113 00        		.byte	0x0
 2522 0114 17        		.uleb128 0x17
 2523 0115 0A        		.uleb128 0xa
 2524 0116 00        		.byte	0x0
 2525 0117 03        		.uleb128 0x3
 2526 0118 0E        		.uleb128 0xe
 2527 0119 3A        		.uleb128 0x3a
 2528 011a 0B        		.uleb128 0xb
 2529 011b 3B        		.uleb128 0x3b
 2530 011c 05        		.uleb128 0x5
 2531 011d 00        		.byte	0x0
 2532 011e 00        		.byte	0x0
 2533 011f 18        		.uleb128 0x18
 2534 0120 0B        		.uleb128 0xb
 2535 0121 01        		.byte	0x1
 2536 0122 01        		.uleb128 0x1
 2537 0123 13        		.uleb128 0x13
 2538 0124 00        		.byte	0x0
 2539 0125 00        		.byte	0x0
 2540 0126 19        		.uleb128 0x19
 2541 0127 05        		.uleb128 0x5
 2542 0128 00        		.byte	0x0
 2543 0129 31        		.uleb128 0x31
 2544 012a 13        		.uleb128 0x13
 2545 012b 00        		.byte	0x0
 2546 012c 00        		.byte	0x0
 2547 012d 1A        		.uleb128 0x1a
 2548 012e 34        		.uleb128 0x34
 2549 012f 00        		.byte	0x0
 2550 0130 31        		.uleb128 0x31
 2551 0131 13        		.uleb128 0x13
 2552 0132 00        		.byte	0x0
 2553 0133 00        		.byte	0x0
 2554 0134 1B        		.uleb128 0x1b
 2555 0135 0B        		.uleb128 0xb
 2556 0136 00        		.byte	0x0
 2557 0137 00        		.byte	0x0
 2558 0138 00        		.byte	0x0
 2559 0139 1C        		.uleb128 0x1c
 2560 013a 05        		.uleb128 0x5
 2561 013b 00        		.byte	0x0
 2562 013c 03        		.uleb128 0x3
 2563 013d 0E        		.uleb128 0xe
 2564 013e 3A        		.uleb128 0x3a
 2565 013f 0B        		.uleb128 0xb
GAS LISTING C:\Users\21030\AppData\Local\Temp/cchtovzi.s 			page 46


 2566 0140 3B        		.uleb128 0x3b
 2567 0141 05        		.uleb128 0x5
 2568 0142 49        		.uleb128 0x49
 2569 0143 13        		.uleb128 0x13
 2570 0144 00        		.byte	0x0
 2571 0145 00        		.byte	0x0
 2572 0146 1D        		.uleb128 0x1d
 2573 0147 2E        		.uleb128 0x2e
 2574 0148 01        		.byte	0x1
 2575 0149 03        		.uleb128 0x3
 2576 014a 0E        		.uleb128 0xe
 2577 014b 3A        		.uleb128 0x3a
 2578 014c 0B        		.uleb128 0xb
 2579 014d 3B        		.uleb128 0x3b
 2580 014e 05        		.uleb128 0x5
 2581 014f 27        		.uleb128 0x27
 2582 0150 0C        		.uleb128 0xc
 2583 0151 20        		.uleb128 0x20
 2584 0152 0B        		.uleb128 0xb
 2585 0153 01        		.uleb128 0x1
 2586 0154 13        		.uleb128 0x13
 2587 0155 00        		.byte	0x0
 2588 0156 00        		.byte	0x0
 2589 0157 1E        		.uleb128 0x1e
 2590 0158 0A        		.uleb128 0xa
 2591 0159 00        		.byte	0x0
 2592 015a 31        		.uleb128 0x31
 2593 015b 13        		.uleb128 0x13
 2594 015c 00        		.byte	0x0
 2595 015d 00        		.byte	0x0
 2596 015e 1F        		.uleb128 0x1f
 2597 015f 2E        		.uleb128 0x2e
 2598 0160 01        		.byte	0x1
 2599 0161 3F        		.uleb128 0x3f
 2600 0162 0C        		.uleb128 0xc
 2601 0163 03        		.uleb128 0x3
 2602 0164 0E        		.uleb128 0xe
 2603 0165 3A        		.uleb128 0x3a
 2604 0166 0B        		.uleb128 0xb
 2605 0167 3B        		.uleb128 0x3b
 2606 0168 05        		.uleb128 0x5
 2607 0169 27        		.uleb128 0x27
 2608 016a 0C        		.uleb128 0xc
 2609 016b 11        		.uleb128 0x11
 2610 016c 01        		.uleb128 0x1
 2611 016d 12        		.uleb128 0x12
 2612 016e 01        		.uleb128 0x1
 2613 016f 40        		.uleb128 0x40
 2614 0170 0A        		.uleb128 0xa
 2615 0171 01        		.uleb128 0x1
 2616 0172 13        		.uleb128 0x13
 2617 0173 00        		.byte	0x0
 2618 0174 00        		.byte	0x0
 2619 0175 20        		.uleb128 0x20
 2620 0176 1D        		.uleb128 0x1d
 2621 0177 00        		.byte	0x0
 2622 0178 31        		.uleb128 0x31
GAS LISTING C:\Users\21030\AppData\Local\Temp/cchtovzi.s 			page 47


 2623 0179 13        		.uleb128 0x13
 2624 017a 11        		.uleb128 0x11
 2625 017b 01        		.uleb128 0x1
 2626 017c 12        		.uleb128 0x12
 2627 017d 01        		.uleb128 0x1
 2628 017e 58        		.uleb128 0x58
 2629 017f 0B        		.uleb128 0xb
 2630 0180 59        		.uleb128 0x59
 2631 0181 05        		.uleb128 0x5
 2632 0182 00        		.byte	0x0
 2633 0183 00        		.byte	0x0
 2634 0184 21        		.uleb128 0x21
 2635 0185 34        		.uleb128 0x34
 2636 0186 00        		.byte	0x0
 2637 0187 03        		.uleb128 0x3
 2638 0188 08        		.uleb128 0x8
 2639 0189 3A        		.uleb128 0x3a
 2640 018a 0B        		.uleb128 0xb
 2641 018b 3B        		.uleb128 0x3b
 2642 018c 05        		.uleb128 0x5
 2643 018d 49        		.uleb128 0x49
 2644 018e 13        		.uleb128 0x13
 2645 018f 02        		.uleb128 0x2
 2646 0190 0A        		.uleb128 0xa
 2647 0191 00        		.byte	0x0
 2648 0192 00        		.byte	0x0
 2649 0193 22        		.uleb128 0x22
 2650 0194 1D        		.uleb128 0x1d
 2651 0195 01        		.byte	0x1
 2652 0196 31        		.uleb128 0x31
 2653 0197 13        		.uleb128 0x13
 2654 0198 11        		.uleb128 0x11
 2655 0199 01        		.uleb128 0x1
 2656 019a 12        		.uleb128 0x12
 2657 019b 01        		.uleb128 0x1
 2658 019c 58        		.uleb128 0x58
 2659 019d 0B        		.uleb128 0xb
 2660 019e 59        		.uleb128 0x59
 2661 019f 05        		.uleb128 0x5
 2662 01a0 01        		.uleb128 0x1
 2663 01a1 13        		.uleb128 0x13
 2664 01a2 00        		.byte	0x0
 2665 01a3 00        		.byte	0x0
 2666 01a4 23        		.uleb128 0x23
 2667 01a5 0B        		.uleb128 0xb
 2668 01a6 01        		.byte	0x1
 2669 01a7 55        		.uleb128 0x55
 2670 01a8 06        		.uleb128 0x6
 2671 01a9 00        		.byte	0x0
 2672 01aa 00        		.byte	0x0
 2673 01ab 24        		.uleb128 0x24
 2674 01ac 0B        		.uleb128 0xb
 2675 01ad 01        		.byte	0x1
 2676 01ae 55        		.uleb128 0x55
 2677 01af 06        		.uleb128 0x6
 2678 01b0 01        		.uleb128 0x1
 2679 01b1 13        		.uleb128 0x13
GAS LISTING C:\Users\21030\AppData\Local\Temp/cchtovzi.s 			page 48


 2680 01b2 00        		.byte	0x0
 2681 01b3 00        		.byte	0x0
 2682 01b4 25        		.uleb128 0x25
 2683 01b5 34        		.uleb128 0x34
 2684 01b6 00        		.byte	0x0
 2685 01b7 31        		.uleb128 0x31
 2686 01b8 13        		.uleb128 0x13
 2687 01b9 02        		.uleb128 0x2
 2688 01ba 06        		.uleb128 0x6
 2689 01bb 00        		.byte	0x0
 2690 01bc 00        		.byte	0x0
 2691 01bd 26        		.uleb128 0x26
 2692 01be 1D        		.uleb128 0x1d
 2693 01bf 01        		.byte	0x1
 2694 01c0 31        		.uleb128 0x31
 2695 01c1 13        		.uleb128 0x13
 2696 01c2 11        		.uleb128 0x11
 2697 01c3 01        		.uleb128 0x1
 2698 01c4 12        		.uleb128 0x12
 2699 01c5 01        		.uleb128 0x1
 2700 01c6 58        		.uleb128 0x58
 2701 01c7 0B        		.uleb128 0xb
 2702 01c8 59        		.uleb128 0x59
 2703 01c9 05        		.uleb128 0x5
 2704 01ca 00        		.byte	0x0
 2705 01cb 00        		.byte	0x0
 2706 01cc 27        		.uleb128 0x27
 2707 01cd 0B        		.uleb128 0xb
 2708 01ce 01        		.byte	0x1
 2709 01cf 11        		.uleb128 0x11
 2710 01d0 01        		.uleb128 0x1
 2711 01d1 12        		.uleb128 0x12
 2712 01d2 01        		.uleb128 0x1
 2713 01d3 00        		.byte	0x0
 2714 01d4 00        		.byte	0x0
 2715 01d5 28        		.uleb128 0x28
 2716 01d6 0B        		.uleb128 0xb
 2717 01d7 01        		.byte	0x1
 2718 01d8 11        		.uleb128 0x11
 2719 01d9 01        		.uleb128 0x1
 2720 01da 12        		.uleb128 0x12
 2721 01db 01        		.uleb128 0x1
 2722 01dc 01        		.uleb128 0x1
 2723 01dd 13        		.uleb128 0x13
 2724 01de 00        		.byte	0x0
 2725 01df 00        		.byte	0x0
 2726 01e0 29        		.uleb128 0x29
 2727 01e1 34        		.uleb128 0x34
 2728 01e2 00        		.byte	0x0
 2729 01e3 31        		.uleb128 0x31
 2730 01e4 13        		.uleb128 0x13
 2731 01e5 02        		.uleb128 0x2
 2732 01e6 0A        		.uleb128 0xa
 2733 01e7 00        		.byte	0x0
 2734 01e8 00        		.byte	0x0
 2735 01e9 2A        		.uleb128 0x2a
 2736 01ea 05        		.uleb128 0x5
GAS LISTING C:\Users\21030\AppData\Local\Temp/cchtovzi.s 			page 49


 2737 01eb 00        		.byte	0x0
 2738 01ec 31        		.uleb128 0x31
 2739 01ed 13        		.uleb128 0x13
 2740 01ee 02        		.uleb128 0x2
 2741 01ef 06        		.uleb128 0x6
 2742 01f0 00        		.byte	0x0
 2743 01f1 00        		.byte	0x0
 2744 01f2 2B        		.uleb128 0x2b
 2745 01f3 2E        		.uleb128 0x2e
 2746 01f4 01        		.byte	0x1
 2747 01f5 03        		.uleb128 0x3
 2748 01f6 0E        		.uleb128 0xe
 2749 01f7 3A        		.uleb128 0x3a
 2750 01f8 0B        		.uleb128 0xb
 2751 01f9 3B        		.uleb128 0x3b
 2752 01fa 0B        		.uleb128 0xb
 2753 01fb 27        		.uleb128 0x27
 2754 01fc 0C        		.uleb128 0xc
 2755 01fd 11        		.uleb128 0x11
 2756 01fe 01        		.uleb128 0x1
 2757 01ff 12        		.uleb128 0x12
 2758 0200 01        		.uleb128 0x1
 2759 0201 40        		.uleb128 0x40
 2760 0202 0A        		.uleb128 0xa
 2761 0203 01        		.uleb128 0x1
 2762 0204 13        		.uleb128 0x13
 2763 0205 00        		.byte	0x0
 2764 0206 00        		.byte	0x0
 2765 0207 2C        		.uleb128 0x2c
 2766 0208 05        		.uleb128 0x5
 2767 0209 00        		.byte	0x0
 2768 020a 03        		.uleb128 0x3
 2769 020b 0E        		.uleb128 0xe
 2770 020c 3A        		.uleb128 0x3a
 2771 020d 0B        		.uleb128 0xb
 2772 020e 3B        		.uleb128 0x3b
 2773 020f 0B        		.uleb128 0xb
 2774 0210 49        		.uleb128 0x49
 2775 0211 13        		.uleb128 0x13
 2776 0212 02        		.uleb128 0x2
 2777 0213 06        		.uleb128 0x6
 2778 0214 00        		.byte	0x0
 2779 0215 00        		.byte	0x0
 2780 0216 2D        		.uleb128 0x2d
 2781 0217 05        		.uleb128 0x5
 2782 0218 00        		.byte	0x0
 2783 0219 03        		.uleb128 0x3
 2784 021a 08        		.uleb128 0x8
 2785 021b 3A        		.uleb128 0x3a
 2786 021c 0B        		.uleb128 0xb
 2787 021d 3B        		.uleb128 0x3b
 2788 021e 0B        		.uleb128 0xb
 2789 021f 49        		.uleb128 0x49
 2790 0220 13        		.uleb128 0x13
 2791 0221 02        		.uleb128 0x2
 2792 0222 06        		.uleb128 0x6
 2793 0223 00        		.byte	0x0
GAS LISTING C:\Users\21030\AppData\Local\Temp/cchtovzi.s 			page 50


 2794 0224 00        		.byte	0x0
 2795 0225 2E        		.uleb128 0x2e
 2796 0226 34        		.uleb128 0x34
 2797 0227 00        		.byte	0x0
 2798 0228 03        		.uleb128 0x3
 2799 0229 08        		.uleb128 0x8
 2800 022a 3A        		.uleb128 0x3a
 2801 022b 0B        		.uleb128 0xb
 2802 022c 3B        		.uleb128 0x3b
 2803 022d 0B        		.uleb128 0xb
 2804 022e 49        		.uleb128 0x49
 2805 022f 13        		.uleb128 0x13
 2806 0230 02        		.uleb128 0x2
 2807 0231 06        		.uleb128 0x6
 2808 0232 00        		.byte	0x0
 2809 0233 00        		.byte	0x0
 2810 0234 2F        		.uleb128 0x2f
 2811 0235 2E        		.uleb128 0x2e
 2812 0236 01        		.byte	0x1
 2813 0237 3F        		.uleb128 0x3f
 2814 0238 0C        		.uleb128 0xc
 2815 0239 03        		.uleb128 0x3
 2816 023a 0E        		.uleb128 0xe
 2817 023b 3A        		.uleb128 0x3a
 2818 023c 0B        		.uleb128 0xb
 2819 023d 3B        		.uleb128 0x3b
 2820 023e 0B        		.uleb128 0xb
 2821 023f 27        		.uleb128 0x27
 2822 0240 0C        		.uleb128 0xc
 2823 0241 11        		.uleb128 0x11
 2824 0242 01        		.uleb128 0x1
 2825 0243 12        		.uleb128 0x12
 2826 0244 01        		.uleb128 0x1
 2827 0245 40        		.uleb128 0x40
 2828 0246 0A        		.uleb128 0xa
 2829 0247 01        		.uleb128 0x1
 2830 0248 13        		.uleb128 0x13
 2831 0249 00        		.byte	0x0
 2832 024a 00        		.byte	0x0
 2833 024b 30        		.uleb128 0x30
 2834 024c 34        		.uleb128 0x34
 2835 024d 00        		.byte	0x0
 2836 024e 03        		.uleb128 0x3
 2837 024f 0E        		.uleb128 0xe
 2838 0250 3A        		.uleb128 0x3a
 2839 0251 0B        		.uleb128 0xb
 2840 0252 3B        		.uleb128 0x3b
 2841 0253 0B        		.uleb128 0xb
 2842 0254 49        		.uleb128 0x49
 2843 0255 13        		.uleb128 0x13
 2844 0256 02        		.uleb128 0x2
 2845 0257 0A        		.uleb128 0xa
 2846 0258 00        		.byte	0x0
 2847 0259 00        		.byte	0x0
 2848 025a 31        		.uleb128 0x31
 2849 025b 34        		.uleb128 0x34
 2850 025c 00        		.byte	0x0
GAS LISTING C:\Users\21030\AppData\Local\Temp/cchtovzi.s 			page 51


 2851 025d 03        		.uleb128 0x3
 2852 025e 0E        		.uleb128 0xe
 2853 025f 3A        		.uleb128 0x3a
 2854 0260 0B        		.uleb128 0xb
 2855 0261 3B        		.uleb128 0x3b
 2856 0262 0B        		.uleb128 0xb
 2857 0263 49        		.uleb128 0x49
 2858 0264 13        		.uleb128 0x13
 2859 0265 3F        		.uleb128 0x3f
 2860 0266 0C        		.uleb128 0xc
 2861 0267 02        		.uleb128 0x2
 2862 0268 0A        		.uleb128 0xa
 2863 0269 00        		.byte	0x0
 2864 026a 00        		.byte	0x0
 2865 026b 32        		.uleb128 0x32
 2866 026c 26        		.uleb128 0x26
 2867 026d 00        		.byte	0x0
 2868 026e 49        		.uleb128 0x49
 2869 026f 13        		.uleb128 0x13
 2870 0270 00        		.byte	0x0
 2871 0271 00        		.byte	0x0
 2872 0272 33        		.uleb128 0x33
 2873 0273 21        		.uleb128 0x21
 2874 0274 00        		.byte	0x0
 2875 0275 00        		.byte	0x0
 2876 0276 00        		.byte	0x0
 2877 0277 34        		.uleb128 0x34
 2878 0278 34        		.uleb128 0x34
 2879 0279 00        		.byte	0x0
 2880 027a 03        		.uleb128 0x3
 2881 027b 0E        		.uleb128 0xe
 2882 027c 3A        		.uleb128 0x3a
 2883 027d 0B        		.uleb128 0xb
 2884 027e 3B        		.uleb128 0x3b
 2885 027f 05        		.uleb128 0x5
 2886 0280 49        		.uleb128 0x49
 2887 0281 13        		.uleb128 0x13
 2888 0282 3F        		.uleb128 0x3f
 2889 0283 0C        		.uleb128 0xc
 2890 0284 3C        		.uleb128 0x3c
 2891 0285 0C        		.uleb128 0xc
 2892 0286 00        		.byte	0x0
 2893 0287 00        		.byte	0x0
 2894 0288 00        		.byte	0x0
 2895               		.section	.debug_pubnames,"",@progbits
 2896 0000 9301 0000 		.long	0x193
 2897 0004 0200      		.word	0x2
 2898 0006 0000 0000 		.long	.Ldebug_info0
 2899 000a 0209 0000 		.long	0x902
 2900 000e FD03 0000 		.long	0x3fd
 2901 0012 7573 6249 		.string	"usbInit"
 2901      6E69 7400 
 2902 001a 2704 0000 		.long	0x427
 2903 001e 7573 6250 		.string	"usbPoll"
 2903      6F6C 6C00 
 2904 0026 8006 0000 		.long	0x680
 2905 002a 7573 6253 		.string	"usbSetInterrupt3"
GAS LISTING C:\Users\21030\AppData\Local\Temp/cchtovzi.s 			page 52


 2905      6574 496E 
 2905      7465 7272 
 2905      7570 7433 
 2905      00
 2906 003b B706 0000 		.long	0x6b7
 2907 003f 7573 6253 		.string	"usbSetInterrupt"
 2907      6574 496E 
 2907      7465 7272 
 2907      7570 7400 
 2908 004f 1007 0000 		.long	0x710
 2909 0053 7573 624D 		.string	"usbMsgPtr"
 2909      7367 5074 
 2909      7200 
 2910 005d 2207 0000 		.long	0x722
 2911 0061 7573 6252 		.string	"usbRxToken"
 2911      7854 6F6B 
 2911      656E 00
 2912 006c 3407 0000 		.long	0x734
 2913 0070 7573 6243 		.string	"usbConfiguration"
 2913      6F6E 6669 
 2913      6775 7261 
 2913      7469 6F6E 
 2913      00
 2914 0081 5D07 0000 		.long	0x75d
 2915 0085 7573 6244 		.string	"usbDescriptorDevice"
 2915      6573 6372 
 2915      6970 746F 
 2915      7244 6576 
 2915      6963 6500 
 2916 0099 B507 0000 		.long	0x7b5
 2917 009d 7573 6244 		.string	"usbDescriptorString0"
 2917      6573 6372 
 2917      6970 746F 
 2917      7253 7472 
 2917      696E 6730 
 2918 00b2 DC07 0000 		.long	0x7dc
 2919 00b6 7573 6244 		.string	"usbDescriptorStringVendor"
 2919      6573 6372 
 2919      6970 746F 
 2919      7253 7472 
 2919      696E 6756 
 2920 00d0 0308 0000 		.long	0x803
 2921 00d4 7573 6244 		.string	"usbDescriptorStringDevice"
 2921      6573 6372 
 2921      6970 746F 
 2921      7253 7472 
 2921      696E 6744 
 2922 00ee 3808 0000 		.long	0x838
 2923 00f2 7573 6254 		.string	"usbTxStatus1"
 2923      7853 7461 
 2923      7475 7331 
 2923      00
 2924 00ff 4A08 0000 		.long	0x84a
 2925 0103 7573 6254 		.string	"usbTxStatus3"
 2925      7853 7461 
 2925      7475 7333 
 2925      00
GAS LISTING C:\Users\21030\AppData\Local\Temp/cchtovzi.s 			page 53


 2926 0110 6C08 0000 		.long	0x86c
 2927 0114 7573 6252 		.string	"usbRxBuf"
 2927      7842 7566 
 2927      00
 2928 011d 7E08 0000 		.long	0x87e
 2929 0121 7573 6249 		.string	"usbInputBufOffset"
 2929      6E70 7574 
 2929      4275 664F 
 2929      6666 7365 
 2929      7400 
 2930 0133 9008 0000 		.long	0x890
 2931 0137 7573 6244 		.string	"usbDeviceAddr"
 2931      6576 6963 
 2931      6541 6464 
 2931      7200 
 2932 0145 A208 0000 		.long	0x8a2
 2933 0149 7573 624E 		.string	"usbNewDeviceAddr"
 2933      6577 4465 
 2933      7669 6365 
 2933      4164 6472 
 2933      00
 2934 015a B408 0000 		.long	0x8b4
 2935 015e 7573 6252 		.string	"usbRxLen"
 2935      784C 656E 
 2935      00
 2936 0167 CB08 0000 		.long	0x8cb
 2937 016b 7573 6243 		.string	"usbCurrentTok"
 2937      7572 7265 
 2937      6E74 546F 
 2937      6B00 
 2938 0179 DD08 0000 		.long	0x8dd
 2939 017d 7573 6254 		.string	"usbTxLen"
 2939      784C 656E 
 2939      00
 2940 0186 EF08 0000 		.long	0x8ef
 2941 018a 7573 6254 		.string	"usbTxBuf"
 2941      7842 7566 
 2941      00
 2942 0193 0000 0000 		.long	0x0
 2943               		.section	.debug_aranges,"",@progbits
 2944 0000 1C00 0000 		.long	0x1c
 2945 0004 0200      		.word	0x2
 2946 0006 0000 0000 		.long	.Ldebug_info0
 2947 000a 04        		.byte	0x4
 2948 000b 00        		.byte	0x0
 2949 000c 0000      		.word	0x0
 2950 000e 0000      		.word	0x0
 2951 0010 0000 0000 		.long	.Ltext0
 2952 0014 9602 0000 		.long	.Letext0-.Ltext0
 2953 0018 0000 0000 		.long	0x0
 2954 001c 0000 0000 		.long	0x0
 2955               		.section	.debug_ranges,"",@progbits
 2956               	.Ldebug_ranges0:
 2957 0000 4200 0000 		.long	.LBB62-.Ltext0
 2958 0004 6800 0000 		.long	.LBE62-.Ltext0
 2959 0008 7201 0000 		.long	.LBB78-.Ltext0
 2960 000c 8601 0000 		.long	.LBE78-.Ltext0
GAS LISTING C:\Users\21030\AppData\Local\Temp/cchtovzi.s 			page 54


 2961 0010 7200 0000 		.long	.LBB77-.Ltext0
 2962 0014 6C01 0000 		.long	.LBE77-.Ltext0
 2963 0018 0000 0000 		.long	0x0
 2964 001c 0000 0000 		.long	0x0
 2965 0020 4C00 0000 		.long	.LBB64-.Ltext0
 2966 0024 6800 0000 		.long	.LBE64-.Ltext0
 2967 0028 7200 0000 		.long	.LBB63-.Ltext0
 2968 002c 6401 0000 		.long	.LBE63-.Ltext0
 2969 0030 0000 0000 		.long	0x0
 2970 0034 0000 0000 		.long	0x0
 2971 0038 9400 0000 		.long	.LBB70-.Ltext0
 2972 003c EE00 0000 		.long	.LBE70-.Ltext0
 2973 0040 FA00 0000 		.long	.LBB73-.Ltext0
 2974 0044 0201 0000 		.long	.LBE73-.Ltext0
 2975 0048 0000 0000 		.long	0x0
 2976 004c 0000 0000 		.long	0x0
 2977               		.section	.debug_line
 2978 0000 FA03 0000 		.long	.LELT0-.LSLT0
 2979               	.LSLT0:
 2980 0004 0200      		.word	0x2
 2981 0006 6800 0000 		.long	.LELTP0-.LASLTP0
 2982               	.LASLTP0:
 2983 000a 01        		.byte	0x1
 2984 000b 01        		.byte	0x1
 2985 000c F6        		.byte	0xf6
 2986 000d F5        		.byte	0xf5
 2987 000e 0A        		.byte	0xa
 2988 000f 00        		.byte	0x0
 2989 0010 01        		.byte	0x1
 2990 0011 01        		.byte	0x1
 2991 0012 01        		.byte	0x1
 2992 0013 01        		.byte	0x1
 2993 0014 00        		.byte	0x0
 2994 0015 00        		.byte	0x0
 2995 0016 00        		.byte	0x0
 2996 0017 01        		.byte	0x1
 2997 0018 633A 2F77 		.ascii	"c:/winavr-20100110/lib/gcc/../../avr/include"
 2997      696E 6176 
 2997      722D 3230 
 2997      3130 3031 
 2997      3130 2F6C 
 2998 0044 00        		.byte	0
 2999 0045 7573 6264 		.ascii	"usbdrv"
 2999      7276 
 3000 004b 00        		.byte	0
 3001 004c 00        		.byte	0x0
 3002 004d 7573 6264 		.string	"usbdrv.c"
 3002      7276 2E63 
 3002      00
 3003 0056 02        		.uleb128 0x2
 3004 0057 00        		.uleb128 0x0
 3005 0058 00        		.uleb128 0x0
 3006 0059 7374 6469 		.string	"stdint.h"
 3006      6E74 2E68 
 3006      00
 3007 0062 01        		.uleb128 0x1
 3008 0063 00        		.uleb128 0x0
GAS LISTING C:\Users\21030\AppData\Local\Temp/cchtovzi.s 			page 55


 3009 0064 00        		.uleb128 0x0
 3010 0065 7573 6264 		.string	"usbdrv.h"
 3010      7276 2E68 
 3010      00
 3011 006e 02        		.uleb128 0x2
 3012 006f 00        		.uleb128 0x0
 3013 0070 00        		.uleb128 0x0
 3014 0071 00        		.byte	0x0
 3015               	.LELTP0:
 3016 0072 00        		.byte	0x0
 3017 0073 05        		.uleb128 0x5
 3018 0074 02        		.byte	0x2
 3019 0075 0000 0000 		.long	.LM1
 3020 0079 03        		.byte	0x3
 3021 007a E204      		.sleb128 610
 3022 007c 01        		.byte	0x1
 3023 007d 00        		.byte	0x0
 3024 007e 05        		.uleb128 0x5
 3025 007f 02        		.byte	0x2
 3026 0080 0000 0000 		.long	.LM2
 3027 0084 16        		.byte	0x16
 3028 0085 00        		.byte	0x0
 3029 0086 05        		.uleb128 0x5
 3030 0087 02        		.byte	0x2
 3031 0088 0000 0000 		.long	.LM3
 3032 008c 19        		.byte	0x19
 3033 008d 00        		.byte	0x0
 3034 008e 05        		.uleb128 0x5
 3035 008f 02        		.byte	0x2
 3036 0090 0000 0000 		.long	.LM4
 3037 0094 03        		.byte	0x3
 3038 0095 DC7C      		.sleb128 -420
 3039 0097 01        		.byte	0x1
 3040 0098 00        		.byte	0x0
 3041 0099 05        		.uleb128 0x5
 3042 009a 02        		.byte	0x2
 3043 009b 0000 0000 		.long	.LM5
 3044 009f 16        		.byte	0x16
 3045 00a0 00        		.byte	0x0
 3046 00a1 05        		.uleb128 0x5
 3047 00a2 02        		.byte	0x2
 3048 00a3 0000 0000 		.long	.LM6
 3049 00a7 03        		.byte	0x3
 3050 00a8 A503      		.sleb128 421
 3051 00aa 01        		.byte	0x1
 3052 00ab 00        		.byte	0x0
 3053 00ac 05        		.uleb128 0x5
 3054 00ad 02        		.byte	0x2
 3055 00ae 0000 0000 		.long	.LM7
 3056 00b2 16        		.byte	0x16
 3057 00b3 00        		.byte	0x0
 3058 00b4 05        		.uleb128 0x5
 3059 00b5 02        		.byte	0x2
 3060 00b6 0000 0000 		.long	.LM8
 3061 00ba 17        		.byte	0x17
 3062 00bb 00        		.byte	0x0
 3063 00bc 05        		.uleb128 0x5
GAS LISTING C:\Users\21030\AppData\Local\Temp/cchtovzi.s 			page 56


 3064 00bd 02        		.byte	0x2
 3065 00be 0000 0000 		.long	.LM9
 3066 00c2 03        		.byte	0x3
 3067 00c3 47        		.sleb128 -57
 3068 00c4 01        		.byte	0x1
 3069 00c5 00        		.byte	0x0
 3070 00c6 05        		.uleb128 0x5
 3071 00c7 02        		.byte	0x2
 3072 00c8 0000 0000 		.long	.LM10
 3073 00cc 18        		.byte	0x18
 3074 00cd 00        		.byte	0x0
 3075 00ce 05        		.uleb128 0x5
 3076 00cf 02        		.byte	0x2
 3077 00d0 0000 0000 		.long	.LM11
 3078 00d4 15        		.byte	0x15
 3079 00d5 00        		.byte	0x0
 3080 00d6 05        		.uleb128 0x5
 3081 00d7 02        		.byte	0x2
 3082 00d8 0000 0000 		.long	.LM12
 3083 00dc 1B        		.byte	0x1b
 3084 00dd 00        		.byte	0x0
 3085 00de 05        		.uleb128 0x5
 3086 00df 02        		.byte	0x2
 3087 00e0 0000 0000 		.long	.LM13
 3088 00e4 03        		.byte	0x3
 3089 00e5 F17E      		.sleb128 -143
 3090 00e7 01        		.byte	0x1
 3091 00e8 00        		.byte	0x0
 3092 00e9 05        		.uleb128 0x5
 3093 00ea 02        		.byte	0x2
 3094 00eb 0000 0000 		.long	.LM14
 3095 00ef 15        		.byte	0x15
 3096 00f0 00        		.byte	0x0
 3097 00f1 05        		.uleb128 0x5
 3098 00f2 02        		.byte	0x2
 3099 00f3 0000 0000 		.long	.LM15
 3100 00f7 17        		.byte	0x17
 3101 00f8 00        		.byte	0x0
 3102 00f9 05        		.uleb128 0x5
 3103 00fa 02        		.byte	0x2
 3104 00fb 0000 0000 		.long	.LM16
 3105 00ff 15        		.byte	0x15
 3106 0100 00        		.byte	0x0
 3107 0101 05        		.uleb128 0x5
 3108 0102 02        		.byte	0x2
 3109 0103 0000 0000 		.long	.LM17
 3110 0107 15        		.byte	0x15
 3111 0108 00        		.byte	0x0
 3112 0109 05        		.uleb128 0x5
 3113 010a 02        		.byte	0x2
 3114 010b 0000 0000 		.long	.LM18
 3115 010f 16        		.byte	0x16
 3116 0110 00        		.byte	0x0
 3117 0111 05        		.uleb128 0x5
 3118 0112 02        		.byte	0x2
 3119 0113 0000 0000 		.long	.LM19
 3120 0117 15        		.byte	0x15
GAS LISTING C:\Users\21030\AppData\Local\Temp/cchtovzi.s 			page 57


 3121 0118 00        		.byte	0x0
 3122 0119 05        		.uleb128 0x5
 3123 011a 02        		.byte	0x2
 3124 011b 0000 0000 		.long	.LM20
 3125 011f 03        		.byte	0x3
 3126 0120 AD7F      		.sleb128 -83
 3127 0122 01        		.byte	0x1
 3128 0123 00        		.byte	0x0
 3129 0124 05        		.uleb128 0x5
 3130 0125 02        		.byte	0x2
 3131 0126 0000 0000 		.long	.LM21
 3132 012a 19        		.byte	0x19
 3133 012b 00        		.byte	0x0
 3134 012c 05        		.uleb128 0x5
 3135 012d 02        		.byte	0x2
 3136 012e 0000 0000 		.long	.LM22
 3137 0132 15        		.byte	0x15
 3138 0133 00        		.byte	0x0
 3139 0134 05        		.uleb128 0x5
 3140 0135 02        		.byte	0x2
 3141 0136 0000 0000 		.long	.LM23
 3142 013a 15        		.byte	0x15
 3143 013b 00        		.byte	0x0
 3144 013c 05        		.uleb128 0x5
 3145 013d 02        		.byte	0x2
 3146 013e 0000 0000 		.long	.LM24
 3147 0142 1C        		.byte	0x1c
 3148 0143 00        		.byte	0x0
 3149 0144 05        		.uleb128 0x5
 3150 0145 02        		.byte	0x2
 3151 0146 0000 0000 		.long	.LM25
 3152 014a 1D        		.byte	0x1d
 3153 014b 00        		.byte	0x0
 3154 014c 05        		.uleb128 0x5
 3155 014d 02        		.byte	0x2
 3156 014e 0000 0000 		.long	.LM26
 3157 0152 15        		.byte	0x15
 3158 0153 00        		.byte	0x0
 3159 0154 05        		.uleb128 0x5
 3160 0155 02        		.byte	0x2
 3161 0156 0000 0000 		.long	.LM27
 3162 015a 16        		.byte	0x16
 3163 015b 00        		.byte	0x0
 3164 015c 05        		.uleb128 0x5
 3165 015d 02        		.byte	0x2
 3166 015e 0000 0000 		.long	.LM28
 3167 0162 03        		.byte	0x3
 3168 0163 B37F      		.sleb128 -77
 3169 0165 01        		.byte	0x1
 3170 0166 00        		.byte	0x0
 3171 0167 05        		.uleb128 0x5
 3172 0168 02        		.byte	0x2
 3173 0169 0000 0000 		.long	.LM29
 3174 016d 15        		.byte	0x15
 3175 016e 00        		.byte	0x0
 3176 016f 05        		.uleb128 0x5
 3177 0170 02        		.byte	0x2
GAS LISTING C:\Users\21030\AppData\Local\Temp/cchtovzi.s 			page 58


 3178 0171 0000 0000 		.long	.LM30
 3179 0175 15        		.byte	0x15
 3180 0176 00        		.byte	0x0
 3181 0177 05        		.uleb128 0x5
 3182 0178 02        		.byte	0x2
 3183 0179 0000 0000 		.long	.LM31
 3184 017d 15        		.byte	0x15
 3185 017e 00        		.byte	0x0
 3186 017f 05        		.uleb128 0x5
 3187 0180 02        		.byte	0x2
 3188 0181 0000 0000 		.long	.LM32
 3189 0185 16        		.byte	0x16
 3190 0186 00        		.byte	0x0
 3191 0187 05        		.uleb128 0x5
 3192 0188 02        		.byte	0x2
 3193 0189 0000 0000 		.long	.LM33
 3194 018d 1A        		.byte	0x1a
 3195 018e 00        		.byte	0x0
 3196 018f 05        		.uleb128 0x5
 3197 0190 02        		.byte	0x2
 3198 0191 0000 0000 		.long	.LM34
 3199 0195 15        		.byte	0x15
 3200 0196 00        		.byte	0x0
 3201 0197 05        		.uleb128 0x5
 3202 0198 02        		.byte	0x2
 3203 0199 0000 0000 		.long	.LM35
 3204 019d 15        		.byte	0x15
 3205 019e 00        		.byte	0x0
 3206 019f 05        		.uleb128 0x5
 3207 01a0 02        		.byte	0x2
 3208 01a1 0000 0000 		.long	.LM36
 3209 01a5 15        		.byte	0x15
 3210 01a6 00        		.byte	0x0
 3211 01a7 05        		.uleb128 0x5
 3212 01a8 02        		.byte	0x2
 3213 01a9 0000 0000 		.long	.LM37
 3214 01ad 15        		.byte	0x15
 3215 01ae 00        		.byte	0x0
 3216 01af 05        		.uleb128 0x5
 3217 01b0 02        		.byte	0x2
 3218 01b1 0000 0000 		.long	.LM38
 3219 01b5 15        		.byte	0x15
 3220 01b6 00        		.byte	0x0
 3221 01b7 05        		.uleb128 0x5
 3222 01b8 02        		.byte	0x2
 3223 01b9 0000 0000 		.long	.LM39
 3224 01bd 15        		.byte	0x15
 3225 01be 00        		.byte	0x0
 3226 01bf 05        		.uleb128 0x5
 3227 01c0 02        		.byte	0x2
 3228 01c1 0000 0000 		.long	.LM40
 3229 01c5 1E        		.byte	0x1e
 3230 01c6 00        		.byte	0x0
 3231 01c7 05        		.uleb128 0x5
 3232 01c8 02        		.byte	0x2
 3233 01c9 0000 0000 		.long	.LM41
 3234 01cd 16        		.byte	0x16
GAS LISTING C:\Users\21030\AppData\Local\Temp/cchtovzi.s 			page 59


 3235 01ce 00        		.byte	0x0
 3236 01cf 05        		.uleb128 0x5
 3237 01d0 02        		.byte	0x2
 3238 01d1 0000 0000 		.long	.LM42
 3239 01d5 15        		.byte	0x15
 3240 01d6 00        		.byte	0x0
 3241 01d7 05        		.uleb128 0x5
 3242 01d8 02        		.byte	0x2
 3243 01d9 0000 0000 		.long	.LM43
 3244 01dd 1B        		.byte	0x1b
 3245 01de 00        		.byte	0x0
 3246 01df 05        		.uleb128 0x5
 3247 01e0 02        		.byte	0x2
 3248 01e1 0000 0000 		.long	.LM44
 3249 01e5 3F        		.byte	0x3f
 3250 01e6 00        		.byte	0x0
 3251 01e7 05        		.uleb128 0x5
 3252 01e8 02        		.byte	0x2
 3253 01e9 0000 0000 		.long	.LM45
 3254 01ed 17        		.byte	0x17
 3255 01ee 00        		.byte	0x0
 3256 01ef 05        		.uleb128 0x5
 3257 01f0 02        		.byte	0x2
 3258 01f1 0000 0000 		.long	.LM46
 3259 01f5 15        		.byte	0x15
 3260 01f6 00        		.byte	0x0
 3261 01f7 05        		.uleb128 0x5
 3262 01f8 02        		.byte	0x2
 3263 01f9 0000 0000 		.long	.LM47
 3264 01fd 16        		.byte	0x16
 3265 01fe 00        		.byte	0x0
 3266 01ff 05        		.uleb128 0x5
 3267 0200 02        		.byte	0x2
 3268 0201 0000 0000 		.long	.LM48
 3269 0205 17        		.byte	0x17
 3270 0206 00        		.byte	0x0
 3271 0207 05        		.uleb128 0x5
 3272 0208 02        		.byte	0x2
 3273 0209 0000 0000 		.long	.LM49
 3274 020d 03        		.byte	0x3
 3275 020e B37E      		.sleb128 -205
 3276 0210 01        		.byte	0x1
 3277 0211 00        		.byte	0x0
 3278 0212 05        		.uleb128 0x5
 3279 0213 02        		.byte	0x2
 3280 0214 0000 0000 		.long	.LM50
 3281 0218 16        		.byte	0x16
 3282 0219 00        		.byte	0x0
 3283 021a 05        		.uleb128 0x5
 3284 021b 02        		.byte	0x2
 3285 021c 0000 0000 		.long	.LM51
 3286 0220 E6        		.byte	0xe6
 3287 0221 00        		.byte	0x0
 3288 0222 05        		.uleb128 0x5
 3289 0223 02        		.byte	0x2
 3290 0224 0000 0000 		.long	.LM52
 3291 0228 3E        		.byte	0x3e
GAS LISTING C:\Users\21030\AppData\Local\Temp/cchtovzi.s 			page 60


 3292 0229 00        		.byte	0x0
 3293 022a 05        		.uleb128 0x5
 3294 022b 02        		.byte	0x2
 3295 022c 0000 0000 		.long	.LM53
 3296 0230 16        		.byte	0x16
 3297 0231 00        		.byte	0x0
 3298 0232 05        		.uleb128 0x5
 3299 0233 02        		.byte	0x2
 3300 0234 0000 0000 		.long	.LM54
 3301 0238 16        		.byte	0x16
 3302 0239 00        		.byte	0x0
 3303 023a 05        		.uleb128 0x5
 3304 023b 02        		.byte	0x2
 3305 023c 0000 0000 		.long	.LM55
 3306 0240 19        		.byte	0x19
 3307 0241 00        		.byte	0x0
 3308 0242 05        		.uleb128 0x5
 3309 0243 02        		.byte	0x2
 3310 0244 0000 0000 		.long	.LM56
 3311 0248 18        		.byte	0x18
 3312 0249 00        		.byte	0x0
 3313 024a 05        		.uleb128 0x5
 3314 024b 02        		.byte	0x2
 3315 024c 0000 0000 		.long	.LM57
 3316 0250 1A        		.byte	0x1a
 3317 0251 00        		.byte	0x0
 3318 0252 05        		.uleb128 0x5
 3319 0253 02        		.byte	0x2
 3320 0254 0000 0000 		.long	.LM58
 3321 0258 17        		.byte	0x17
 3322 0259 00        		.byte	0x0
 3323 025a 05        		.uleb128 0x5
 3324 025b 02        		.byte	0x2
 3325 025c 0000 0000 		.long	.LM59
 3326 0260 15        		.byte	0x15
 3327 0261 00        		.byte	0x0
 3328 0262 05        		.uleb128 0x5
 3329 0263 02        		.byte	0x2
 3330 0264 0000 0000 		.long	.LM60
 3331 0268 15        		.byte	0x15
 3332 0269 00        		.byte	0x0
 3333 026a 05        		.uleb128 0x5
 3334 026b 02        		.byte	0x2
 3335 026c 0000 0000 		.long	.LM61
 3336 0270 15        		.byte	0x15
 3337 0271 00        		.byte	0x0
 3338 0272 05        		.uleb128 0x5
 3339 0273 02        		.byte	0x2
 3340 0274 0000 0000 		.long	.LM62
 3341 0278 15        		.byte	0x15
 3342 0279 00        		.byte	0x0
 3343 027a 05        		.uleb128 0x5
 3344 027b 02        		.byte	0x2
 3345 027c 0000 0000 		.long	.LM63
 3346 0280 15        		.byte	0x15
 3347 0281 00        		.byte	0x0
 3348 0282 05        		.uleb128 0x5
GAS LISTING C:\Users\21030\AppData\Local\Temp/cchtovzi.s 			page 61


 3349 0283 02        		.byte	0x2
 3350 0284 0000 0000 		.long	.LM64
 3351 0288 7F        		.byte	0x7f
 3352 0289 00        		.byte	0x0
 3353 028a 05        		.uleb128 0x5
 3354 028b 02        		.byte	0x2
 3355 028c 0000 0000 		.long	.LM65
 3356 0290 17        		.byte	0x17
 3357 0291 00        		.byte	0x0
 3358 0292 05        		.uleb128 0x5
 3359 0293 02        		.byte	0x2
 3360 0294 0000 0000 		.long	.LM66
 3361 0298 15        		.byte	0x15
 3362 0299 00        		.byte	0x0
 3363 029a 05        		.uleb128 0x5
 3364 029b 02        		.byte	0x2
 3365 029c 0000 0000 		.long	.LM67
 3366 02a0 03        		.byte	0x3
 3367 02a1 47        		.sleb128 -57
 3368 02a2 01        		.byte	0x1
 3369 02a3 00        		.byte	0x0
 3370 02a4 05        		.uleb128 0x5
 3371 02a5 02        		.byte	0x2
 3372 02a6 0000 0000 		.long	.LM68
 3373 02aa 15        		.byte	0x15
 3374 02ab 00        		.byte	0x0
 3375 02ac 05        		.uleb128 0x5
 3376 02ad 02        		.byte	0x2
 3377 02ae 0000 0000 		.long	.LM69
 3378 02b2 03        		.byte	0x3
 3379 02b3 57        		.sleb128 -41
 3380 02b4 01        		.byte	0x1
 3381 02b5 00        		.byte	0x0
 3382 02b6 05        		.uleb128 0x5
 3383 02b7 02        		.byte	0x2
 3384 02b8 0000 0000 		.long	.LM70
 3385 02bc 1C        		.byte	0x1c
 3386 02bd 00        		.byte	0x0
 3387 02be 05        		.uleb128 0x5
 3388 02bf 02        		.byte	0x2
 3389 02c0 0000 0000 		.long	.LM71
 3390 02c4 15        		.byte	0x15
 3391 02c5 00        		.byte	0x0
 3392 02c6 05        		.uleb128 0x5
 3393 02c7 02        		.byte	0x2
 3394 02c8 0000 0000 		.long	.LM72
 3395 02cc 16        		.byte	0x16
 3396 02cd 00        		.byte	0x0
 3397 02ce 05        		.uleb128 0x5
 3398 02cf 02        		.byte	0x2
 3399 02d0 0000 0000 		.long	.LM73
 3400 02d4 15        		.byte	0x15
 3401 02d5 00        		.byte	0x0
 3402 02d6 05        		.uleb128 0x5
 3403 02d7 02        		.byte	0x2
 3404 02d8 0000 0000 		.long	.LM74
 3405 02dc 15        		.byte	0x15
GAS LISTING C:\Users\21030\AppData\Local\Temp/cchtovzi.s 			page 62


 3406 02dd 00        		.byte	0x0
 3407 02de 05        		.uleb128 0x5
 3408 02df 02        		.byte	0x2
 3409 02e0 0000 0000 		.long	.LM75
 3410 02e4 15        		.byte	0x15
 3411 02e5 00        		.byte	0x0
 3412 02e6 05        		.uleb128 0x5
 3413 02e7 02        		.byte	0x2
 3414 02e8 0000 0000 		.long	.LM76
 3415 02ec 52        		.byte	0x52
 3416 02ed 00        		.byte	0x0
 3417 02ee 05        		.uleb128 0x5
 3418 02ef 02        		.byte	0x2
 3419 02f0 0000 0000 		.long	.LM77
 3420 02f4 03        		.byte	0x3
 3421 02f5 45        		.sleb128 -59
 3422 02f6 01        		.byte	0x1
 3423 02f7 00        		.byte	0x0
 3424 02f8 05        		.uleb128 0x5
 3425 02f9 02        		.byte	0x2
 3426 02fa 0000 0000 		.long	.LM78
 3427 02fe 16        		.byte	0x16
 3428 02ff 00        		.byte	0x0
 3429 0300 05        		.uleb128 0x5
 3430 0301 02        		.byte	0x2
 3431 0302 0000 0000 		.long	.LM79
 3432 0306 4D        		.byte	0x4d
 3433 0307 00        		.byte	0x0
 3434 0308 05        		.uleb128 0x5
 3435 0309 02        		.byte	0x2
 3436 030a 0000 0000 		.long	.LM80
 3437 030e 03        		.byte	0x3
 3438 030f 49        		.sleb128 -55
 3439 0310 01        		.byte	0x1
 3440 0311 00        		.byte	0x0
 3441 0312 05        		.uleb128 0x5
 3442 0313 02        		.byte	0x2
 3443 0314 0000 0000 		.long	.LM81
 3444 0318 2B        		.byte	0x2b
 3445 0319 00        		.byte	0x0
 3446 031a 05        		.uleb128 0x5
 3447 031b 02        		.byte	0x2
 3448 031c 0000 0000 		.long	.LM82
 3449 0320 15        		.byte	0x15
 3450 0321 00        		.byte	0x0
 3451 0322 05        		.uleb128 0x5
 3452 0323 02        		.byte	0x2
 3453 0324 0000 0000 		.long	.LM83
 3454 0328 15        		.byte	0x15
 3455 0329 00        		.byte	0x0
 3456 032a 05        		.uleb128 0x5
 3457 032b 02        		.byte	0x2
 3458 032c 0000 0000 		.long	.LM84
 3459 0330 15        		.byte	0x15
 3460 0331 00        		.byte	0x0
 3461 0332 05        		.uleb128 0x5
 3462 0333 02        		.byte	0x2
GAS LISTING C:\Users\21030\AppData\Local\Temp/cchtovzi.s 			page 63


 3463 0334 0000 0000 		.long	.LM85
 3464 0338 19        		.byte	0x19
 3465 0339 00        		.byte	0x0
 3466 033a 05        		.uleb128 0x5
 3467 033b 02        		.byte	0x2
 3468 033c 0000 0000 		.long	.LM86
 3469 0340 46        		.byte	0x46
 3470 0341 00        		.byte	0x0
 3471 0342 05        		.uleb128 0x5
 3472 0343 02        		.byte	0x2
 3473 0344 0000 0000 		.long	.LM87
 3474 0348 15        		.byte	0x15
 3475 0349 00        		.byte	0x0
 3476 034a 05        		.uleb128 0x5
 3477 034b 02        		.byte	0x2
 3478 034c 0000 0000 		.long	.LM88
 3479 0350 12        		.byte	0x12
 3480 0351 00        		.byte	0x0
 3481 0352 05        		.uleb128 0x5
 3482 0353 02        		.byte	0x2
 3483 0354 0000 0000 		.long	.LM89
 3484 0358 1A        		.byte	0x1a
 3485 0359 00        		.byte	0x0
 3486 035a 05        		.uleb128 0x5
 3487 035b 02        		.byte	0x2
 3488 035c 0000 0000 		.long	.LM90
 3489 0360 15        		.byte	0x15
 3490 0361 00        		.byte	0x0
 3491 0362 05        		.uleb128 0x5
 3492 0363 02        		.byte	0x2
 3493 0364 0000 0000 		.long	.LM91
 3494 0368 19        		.byte	0x19
 3495 0369 00        		.byte	0x0
 3496 036a 05        		.uleb128 0x5
 3497 036b 02        		.byte	0x2
 3498 036c 0000 0000 		.long	.LM92
 3499 0370 03        		.byte	0x3
 3500 0371 FE7C      		.sleb128 -386
 3501 0373 01        		.byte	0x1
 3502 0374 00        		.byte	0x0
 3503 0375 05        		.uleb128 0x5
 3504 0376 02        		.byte	0x2
 3505 0377 0000 0000 		.long	.LM93
 3506 037b 1C        		.byte	0x1c
 3507 037c 00        		.byte	0x0
 3508 037d 05        		.uleb128 0x5
 3509 037e 02        		.byte	0x2
 3510 037f 0000 0000 		.long	.LM94
 3511 0383 15        		.byte	0x15
 3512 0384 00        		.byte	0x0
 3513 0385 05        		.uleb128 0x5
 3514 0386 02        		.byte	0x2
 3515 0387 0000 0000 		.long	.LM95
 3516 038b 16        		.byte	0x16
 3517 038c 00        		.byte	0x0
 3518 038d 05        		.uleb128 0x5
 3519 038e 02        		.byte	0x2
GAS LISTING C:\Users\21030\AppData\Local\Temp/cchtovzi.s 			page 64


 3520 038f 0000 0000 		.long	.LM96
 3521 0393 16        		.byte	0x16
 3522 0394 00        		.byte	0x0
 3523 0395 05        		.uleb128 0x5
 3524 0396 02        		.byte	0x2
 3525 0397 0000 0000 		.long	.LM97
 3526 039b 15        		.byte	0x15
 3527 039c 00        		.byte	0x0
 3528 039d 05        		.uleb128 0x5
 3529 039e 02        		.byte	0x2
 3530 039f 0000 0000 		.long	.LM98
 3531 03a3 16        		.byte	0x16
 3532 03a4 00        		.byte	0x0
 3533 03a5 05        		.uleb128 0x5
 3534 03a6 02        		.byte	0x2
 3535 03a7 0000 0000 		.long	.LM99
 3536 03ab 15        		.byte	0x15
 3537 03ac 00        		.byte	0x0
 3538 03ad 05        		.uleb128 0x5
 3539 03ae 02        		.byte	0x2
 3540 03af 0000 0000 		.long	.LM100
 3541 03b3 15        		.byte	0x15
 3542 03b4 00        		.byte	0x0
 3543 03b5 05        		.uleb128 0x5
 3544 03b6 02        		.byte	0x2
 3545 03b7 0000 0000 		.long	.LM101
 3546 03bb 15        		.byte	0x15
 3547 03bc 00        		.byte	0x0
 3548 03bd 05        		.uleb128 0x5
 3549 03be 02        		.byte	0x2
 3550 03bf 0000 0000 		.long	.LM102
 3551 03c3 16        		.byte	0x16
 3552 03c4 00        		.byte	0x0
 3553 03c5 05        		.uleb128 0x5
 3554 03c6 02        		.byte	0x2
 3555 03c7 0000 0000 		.long	.LM103
 3556 03cb 1E        		.byte	0x1e
 3557 03cc 00        		.byte	0x0
 3558 03cd 05        		.uleb128 0x5
 3559 03ce 02        		.byte	0x2
 3560 03cf 0000 0000 		.long	.LM104
 3561 03d3 15        		.byte	0x15
 3562 03d4 00        		.byte	0x0
 3563 03d5 05        		.uleb128 0x5
 3564 03d6 02        		.byte	0x2
 3565 03d7 0000 0000 		.long	.LM105
 3566 03db 15        		.byte	0x15
 3567 03dc 00        		.byte	0x0
 3568 03dd 05        		.uleb128 0x5
 3569 03de 02        		.byte	0x2
 3570 03df 0000 0000 		.long	.LM106
 3571 03e3 0B        		.byte	0xb
 3572 03e4 00        		.byte	0x0
 3573 03e5 05        		.uleb128 0x5
 3574 03e6 02        		.byte	0x2
 3575 03e7 0000 0000 		.long	.LM107
 3576 03eb 15        		.byte	0x15
GAS LISTING C:\Users\21030\AppData\Local\Temp/cchtovzi.s 			page 65


 3577 03ec 00        		.byte	0x0
 3578 03ed 05        		.uleb128 0x5
 3579 03ee 02        		.byte	0x2
 3580 03ef 0000 0000 		.long	.LM108
 3581 03f3 15        		.byte	0x15
 3582 03f4 00        		.byte	0x0
 3583 03f5 05        		.uleb128 0x5
 3584 03f6 02        		.byte	0x2
 3585 03f7 0000 0000 		.long	.Letext0
 3586 03fb 00        		.byte	0x0
 3587 03fc 01        		.uleb128 0x1
 3588 03fd 01        		.byte	0x1
 3589               	.LELT0:
 3590 03fe 1600 0000 		.section	.debug_str,"MS",@progbits,1
 3590      0200 1000 
 3590      0000 0101 
 3590      FB0E 0A00 
 3590      0101 0101 
 3591               	.LASF11:
 3592 0000 776F 7264 		.string	"word"
 3592      00
 3593               	.LASF26:
 3594 0005 7573 6244 		.string	"usbDriverDescriptor"
 3594      7269 7665 
 3594      7244 6573 
 3594      6372 6970 
 3594      746F 7200 
 3595               	.LASF75:
 3596 0019 474E 5520 		.string	"GNU C 4.3.3"
 3596      4320 342E 
 3596      332E 3300 
 3597               	.LASF30:
 3598 0025 7265 6369 		.string	"recipient"
 3598      7069 656E 
 3598      7400 
 3599               	.LASF58:
 3600 002f 7573 6244 		.string	"usbDescriptorDevice"
 3600      6573 6372 
 3600      6970 746F 
 3600      7244 6576 
 3600      6963 6500 
 3601               	.LASF17:
 3602 0043 6252 6571 		.string	"bRequest"
 3602      7565 7374 
 3602      00
 3603               	.LASF71:
 3604 004c 7573 6252 		.string	"usbRxLen"
 3604      784C 656E 
 3604      00
 3605               	.LASF76:
 3606 0055 7573 6264 		.string	"usbdrv/usbdrv.c"
 3606      7276 2F75 
 3606      7362 6472 
 3606      762E 6300 
 3607               	.LASF56:
 3608 0065 7573 6243 		.string	"usbConfiguration"
 3608      6F6E 6669 
GAS LISTING C:\Users\21030\AppData\Local\Temp/cchtovzi.s 			page 66


 3608      6775 7261 
 3608      7469 6F6E 
 3608      00
 3609               	.LASF52:
 3610 0076 7573 624D 		.string	"usbMsgLen"
 3610      7367 4C65 
 3610      6E00 
 3611               	.LASF44:
 3612 0080 7573 6249 		.string	"usbInit"
 3612      6E69 7400 
 3613               	.LASF68:
 3614 0088 7573 6249 		.string	"usbInputBufOffset"
 3614      6E70 7574 
 3614      4275 664F 
 3614      6666 7365 
 3614      7400 
 3615               	.LASF49:
 3616 009a 7478 5374 		.string	"txStatus"
 3616      6174 7573 
 3616      00
 3617               	.LASF15:
 3618 00a3 7573 6252 		.string	"usbRequest"
 3618      6571 7565 
 3618      7374 00
 3619               	.LASF29:
 3620 00ae 7661 6C75 		.string	"value"
 3620      6500 
 3621               	.LASF51:
 3622 00b4 7573 6253 		.string	"usbSetInterrupt"
 3622      6574 496E 
 3622      7465 7272 
 3622      7570 7400 
 3623               	.LASF36:
 3624 00c4 7265 706C 		.string	"replyLen"
 3624      794C 656E 
 3624      00
 3625               	.LASF62:
 3626 00cd 7573 6244 		.string	"usbDescriptorStringVendor"
 3626      6573 6372 
 3626      6970 746F 
 3626      7253 7472 
 3626      696E 6756 
 3627               	.LASF77:
 3628 00e7 433A 5C55 		.string	"C:\\Users\\21030\\Documents\\GitHub\\mx1830\\source"
 3628      7365 7273 
 3628      5C32 3130 
 3628      3330 5C44 
 3628      6F63 756D 
 3629               	.LASF73:
 3630 0115 7573 6254 		.string	"usbTxLen"
 3630      784C 656E 
 3630      00
 3631               	.LASF33:
 3632 011e 5F5F 6164 		.string	"__addr16"
 3632      6472 3136 
 3632      00
 3633               	.LASF40:
GAS LISTING C:\Users\21030\AppData\Local\Temp/cchtovzi.s 			page 67


 3634 0127 7573 6242 		.string	"usbBuildTxBlock"
 3634      7569 6C64 
 3634      5478 426C 
 3634      6F63 6B00 
 3635               	.LASF47:
 3636 0137 6973 4E6F 		.string	"isNotReset"
 3636      7452 6573 
 3636      6574 00
 3637               	.LASF23:
 3638 0142 5F63 6D64 		.string	"_cmd"
 3638      00
 3639               	.LASF7:
 3640 0147 6C6F 6E67 		.string	"long long int"
 3640      206C 6F6E 
 3640      6720 696E 
 3640      7400 
 3641               	.LASF42:
 3642 0155 7573 6248 		.string	"usbHandleResetHook"
 3642      616E 646C 
 3642      6552 6573 
 3642      6574 486F 
 3642      6F6B 00
 3643               	.LASF5:
 3644 0168 6C6F 6E67 		.string	"long int"
 3644      2069 6E74 
 3644      00
 3645               	.LASF79:
 3646 0171 7573 6247 		.string	"usbGenericSetInterrupt"
 3646      656E 6572 
 3646      6963 5365 
 3646      7449 6E74 
 3646      6572 7275 
 3647               	.LASF38:
 3648 0188 7276 616C 		.string	"rval"
 3648      00
 3649               	.LASF18:
 3650 018d 7756 616C 		.string	"wValue"
 3650      7565 00
 3651               	.LASF69:
 3652 0194 7573 6244 		.string	"usbDeviceAddr"
 3652      6576 6963 
 3652      6541 6464 
 3652      7200 
 3653               	.LASF24:
 3654 01a2 7573 6252 		.string	"usbResetDataToggling"
 3654      6573 6574 
 3654      4461 7461 
 3654      546F 6767 
 3654      6C69 6E67 
 3655               	.LASF48:
 3656 01b7 7573 624C 		.string	"usbLineStatus"
 3656      696E 6553 
 3656      7461 7475 
 3656      7300 
 3657               	.LASF66:
 3658 01c5 7573 6254 		.string	"usbTxStatus3"
 3658      7853 7461 
GAS LISTING C:\Users\21030\AppData\Local\Temp/cchtovzi.s 			page 68


 3658      7475 7333 
 3658      00
 3659               	.LASF1:
 3660 01d2 756E 7369 		.string	"unsigned char"
 3660      676E 6564 
 3660      2063 6861 
 3660      7200 
 3661               	.LASF54:
 3662 01e0 7573 624D 		.string	"usbMsgPtr"
 3662      7367 5074 
 3662      7200 
 3663               	.LASF0:
 3664 01ea 7369 676E 		.string	"signed char"
 3664      6564 2063 
 3664      6861 7200 
 3665               	.LASF22:
 3666 01f6 666C 6167 		.string	"flags"
 3666      7300 
 3667               	.LASF8:
 3668 01fc 6C6F 6E67 		.string	"long long unsigned int"
 3668      206C 6F6E 
 3668      6720 756E 
 3668      7369 676E 
 3668      6564 2069 
 3669               	.LASF37:
 3670 0213 7479 7065 		.string	"type"
 3670      00
 3671               	.LASF14:
 3672 0218 7573 6254 		.string	"usbTxStatus"
 3672      7853 7461 
 3672      7475 7300 
 3673               	.LASF4:
 3674 0224 756E 7369 		.string	"unsigned int"
 3674      676E 6564 
 3674      2069 6E74 
 3674      00
 3675               	.LASF3:
 3676 0231 7569 6E74 		.string	"uint16_t"
 3676      3136 5F74 
 3676      00
 3677               	.LASF34:
 3678 023a 5F5F 7265 		.string	"__result"
 3678      7375 6C74 
 3678      00
 3679               	.LASF28:
 3680 0243 6461 7461 		.string	"dataPtr"
 3680      5074 7200 
 3681               	.LASF59:
 3682 024b 7573 6244 		.string	"usbDescriptorConfiguration"
 3682      6573 6372 
 3682      6970 746F 
 3682      7243 6F6E 
 3682      6669 6775 
 3683               	.LASF45:
 3684 0266 7573 6250 		.string	"usbPoll"
 3684      6F6C 6C00 
 3685               	.LASF78:
GAS LISTING C:\Users\21030\AppData\Local\Temp/cchtovzi.s 			page 69


 3686 026e 7573 6257 		.string	"usbWord"
 3686      6F72 6400 
 3687               	.LASF25:
 3688 0276 7573 6252 		.string	"usbResetStall"
 3688      6573 6574 
 3688      5374 616C 
 3688      6C00 
 3689               	.LASF70:
 3690 0284 7573 624E 		.string	"usbNewDeviceAddr"
 3690      6577 4465 
 3690      7669 6365 
 3690      4164 6472 
 3690      00
 3691               	.LASF64:
 3692 0295 7573 6244 		.string	"usbDescriptorStringSerialNumber"
 3692      6573 6372 
 3692      6970 746F 
 3692      7253 7472 
 3692      696E 6753 
 3693               	.LASF61:
 3694 02b5 7573 6244 		.string	"usbDescriptorString0"
 3694      6573 6372 
 3694      6970 746F 
 3694      7253 7472 
 3694      696E 6730 
 3695               	.LASF13:
 3696 02ca 7573 6257 		.string	"usbWord_t"
 3696      6F72 645F 
 3696      7400 
 3697               	.LASF41:
 3698 02d4 7761 6E74 		.string	"wantLen"
 3698      4C65 6E00 
 3699               	.LASF74:
 3700 02dc 7573 6254 		.string	"usbTxBuf"
 3700      7842 7566 
 3700      00
 3701               	.LASF10:
 3702 02e5 7573 6254 		.string	"usbTxStatus_t"
 3702      7853 7461 
 3702      7475 735F 
 3702      7400 
 3703               	.LASF27:
 3704 02f3 7573 6244 		.string	"usbDriverSetup"
 3704      7269 7665 
 3704      7253 6574 
 3704      7570 00
 3705               	.LASF46:
 3706 0302 736B 6970 		.string	"skipMsgPtrAssignment"
 3706      4D73 6750 
 3706      7472 4173 
 3706      7369 676E 
 3706      6D65 6E74 
 3707               	.LASF16:
 3708 0317 626D 5265 		.string	"bmRequestType"
 3708      7175 6573 
 3708      7454 7970 
 3708      6500 
GAS LISTING C:\Users\21030\AppData\Local\Temp/cchtovzi.s 			page 70


 3709               	.LASF32:
 3710 0325 6461 7461 		.string	"data"
 3710      00
 3711               	.LASF9:
 3712 032a 6275 6666 		.string	"buffer"
 3712      6572 00
 3713               	.LASF35:
 3714 0331 7368 6F72 		.string	"short unsigned int"
 3714      7420 756E 
 3714      7369 676E 
 3714      6564 2069 
 3714      6E74 00
 3715               	.LASF72:
 3716 0344 7573 6243 		.string	"usbCurrentTok"
 3716      7572 7265 
 3716      6E74 546F 
 3716      6B00 
 3717               	.LASF60:
 3718 0352 7573 6244 		.string	"usbDescriptorHidReport"
 3718      6573 6372 
 3718      6970 746F 
 3718      7248 6964 
 3718      5265 706F 
 3719               	.LASF6:
 3720 0369 6C6F 6E67 		.string	"long unsigned int"
 3720      2075 6E73 
 3720      6967 6E65 
 3720      6420 696E 
 3720      7400 
 3721               	.LASF50:
 3722 037b 7573 6253 		.string	"usbSetInterrupt3"
 3722      6574 496E 
 3722      7465 7272 
 3722      7570 7433 
 3722      00
 3723               	.LASF12:
 3724 038c 6279 7465 		.string	"bytes"
 3724      7300 
 3725               	.LASF63:
 3726 0392 7573 6244 		.string	"usbDescriptorStringDevice"
 3726      6573 6372 
 3726      6970 746F 
 3726      7253 7472 
 3726      696E 6744 
 3727               	.LASF57:
 3728 03ac 6368 6172 		.string	"char"
 3728      00
 3729               	.LASF21:
 3730 03b1 7573 6252 		.string	"usbRequest_t"
 3730      6571 7565 
 3730      7374 5F74 
 3730      00
 3731               	.LASF65:
 3732 03be 7573 6254 		.string	"usbTxStatus1"
 3732      7853 7461 
 3732      7475 7331 
 3732      00
GAS LISTING C:\Users\21030\AppData\Local\Temp/cchtovzi.s 			page 71


 3733               	.LASF2:
 3734 03cb 7569 6E74 		.string	"uint8_t"
 3734      385F 7400 
 3735               	.LASF31:
 3736 03d3 7573 6244 		.string	"usbDeviceRead"
 3736      6576 6963 
 3736      6552 6561 
 3736      6400 
 3737               	.LASF39:
 3738 03e1 7573 6250 		.string	"usbProcessRx"
 3738      726F 6365 
 3738      7373 5278 
 3738      00
 3739               	.LASF20:
 3740 03ee 774C 656E 		.string	"wLength"
 3740      6774 6800 
 3741               	.LASF55:
 3742 03f6 7573 6252 		.string	"usbRxToken"
 3742      7854 6F6B 
 3742      656E 00
 3743               	.LASF67:
 3744 0401 7573 6252 		.string	"usbRxBuf"
 3744      7842 7566 
 3744      00
 3745               	.LASF53:
 3746 040a 7573 624D 		.string	"usbMsgFlags"
 3746      7367 466C 
 3746      6167 7300 
 3747               	.LASF19:
 3748 0416 7749 6E64 		.string	"wIndex"
 3748      6578 00
 3749               	.LASF43:
 3750 041d 6E6F 7452 		.string	"notResetState"
 3750      6573 6574 
 3750      5374 6174 
 3750      6500 
 3751               	.global __do_copy_data
 3752               	.global __do_clear_bss
GAS LISTING C:\Users\21030\AppData\Local\Temp/cchtovzi.s 			page 72


DEFINED SYMBOLS
                            *ABS*:00000000 usbdrv.c
C:\Users\21030\AppData\Local\Temp/cchtovzi.s:2      *ABS*:0000003f __SREG__
C:\Users\21030\AppData\Local\Temp/cchtovzi.s:3      *ABS*:0000003e __SP_H__
C:\Users\21030\AppData\Local\Temp/cchtovzi.s:4      *ABS*:0000003d __SP_L__
C:\Users\21030\AppData\Local\Temp/cchtovzi.s:5      *ABS*:00000034 __CCP__
C:\Users\21030\AppData\Local\Temp/cchtovzi.s:6      *ABS*:00000000 __tmp_reg__
C:\Users\21030\AppData\Local\Temp/cchtovzi.s:7      *ABS*:00000001 __zero_reg__
C:\Users\21030\AppData\Local\Temp/cchtovzi.s:18     .text:00000000 usbInit
                            *COM*:0000000c usbTxStatus1
                            *COM*:0000000c usbTxStatus3
C:\Users\21030\AppData\Local\Temp/cchtovzi.s:52     .text:00000022 usbPoll
                            *COM*:00000001 usbRxLen
                            *COM*:00000001 usbInputBufOffset
                            *COM*:00000016 usbRxBuf
                            *COM*:00000001 usbRxToken
                            *COM*:0000000b usbTxBuf
C:\Users\21030\AppData\Local\Temp/cchtovzi.s:633    .data:00000000 usbTxLen
                             .bss:00000000 usbMsgFlags
                            *COM*:00000001 usbNewDeviceAddr
C:\Users\21030\AppData\Local\Temp/cchtovzi.s:670    .progmem.data:00000022 usbDescriptorDevice
C:\Users\21030\AppData\Local\Temp/cchtovzi.s:639    .progmem.data:00000000 usbDescriptorString0
                            *COM*:00000002 usbMsgPtr
C:\Users\21030\AppData\Local\Temp/cchtovzi.s:647    .progmem.data:00000004 usbDescriptorStringVendor
C:\Users\21030\AppData\Local\Temp/cchtovzi.s:657    .progmem.data:00000010 usbDescriptorStringDevice
                            *COM*:00000001 usbConfiguration
C:\Users\21030\AppData\Local\Temp/cchtovzi.s:692    .data:00000001 usbMsgLen
                            *COM*:00000001 usbDeviceAddr
C:\Users\21030\AppData\Local\Temp/cchtovzi.s:528    .text:0000023a usbGenericSetInterrupt
C:\Users\21030\AppData\Local\Temp/cchtovzi.s:595    .text:00000282 usbSetInterrupt3
C:\Users\21030\AppData\Local\Temp/cchtovzi.s:613    .text:0000028c usbSetInterrupt
                            *COM*:00000001 usbCurrentTok

UNDEFINED SYMBOLS
usbFunctionSetup
usbFunctionDescriptor
usbFunctionWrite
usbCrc16Append
__do_copy_data
__do_clear_bss
