GAS LISTING C:\Users\21030\AppData\Local\Temp/ccAQkdr0.s 			page 1


   1               		.file	"main.c"
   2               	__SREG__ = 0x3f
   3               	__SP_H__ = 0x3e
   4               	__SP_L__ = 0x3d
   5               	__CCP__  = 0x34
   6               	__tmp_reg__ = 0
   7               	__zero_reg__ = 1
   8               		.section	.debug_abbrev,"",@progbits
   9               	.Ldebug_abbrev0:
  10               		.section	.debug_info,"",@progbits
  11               	.Ldebug_info0:
  12               		.section	.debug_line,"",@progbits
  13               	.Ldebug_line0:
  14               		.text
  15               	.Ltext0:
  16               	.global	enable_printf
  17               		.type	enable_printf, @function
  18               	enable_printf:
  19               	.LFB7:
  20               	.LM1:
  21               	/* prologue: function */
  22               	/* frame size = 0 */
  23               	/* epilogue start */
  24               	.LM2:
  25 0000 0895      		ret
  26               	.LFE7:
  27               		.size	enable_printf, .-enable_printf
  28               	.global	DPpullEn
  29               		.type	DPpullEn, @function
  30               	DPpullEn:
  31               	.LFB8:
  32               	.LM3:
  33               	.LVL0:
  34               	/* prologue: function */
  35               	/* frame size = 0 */
  36               	.LM4:
  37 0002 8823      		tst r24
  38 0004 01F0      		breq .L4
  39               	.LM5:
  40 0006 969A      		sbi 50-32,6
  41               	.LM6:
  42 0008 8E98      		cbi 49-32,6
  43               	.LM7:
  44 000a 8F9A      		sbi 49-32,7
  45               	.LM8:
  46 000c 9798      		cbi 50-32,7
  47 000e 0895      		ret
  48               	.L4:
  49               	.LM9:
  50 0010 8E9A      		sbi 49-32,6
  51               	.LM10:
  52 0012 9698      		cbi 50-32,6
  53               	.LM11:
  54 0014 979A      		sbi 50-32,7
  55               	.LM12:
  56 0016 8F98      		cbi 49-32,7
  57 0018 0895      		ret
GAS LISTING C:\Users\21030\AppData\Local\Temp/ccAQkdr0.s 			page 2


  58               	.LFE8:
  59               		.size	DPpullEn, .-DPpullEn
  60               	.global	portInit
  61               		.type	portInit, @function
  62               	portInit:
  63               	.LFB9:
  64               	.LM13:
  65               	/* prologue: function */
  66               	/* frame size = 0 */
  67               	.LM14:
  68 001a 8FEF      		ldi r24,lo8(-1)
  69 001c 8BBB      		out 59-32,r24
  70               	.LM15:
  71 001e 85BB      		out 53-32,r24
  72               	.LM16:
  73 0020 88BB      		out 56-32,r24
  74               	.LM17:
  75 0022 1ABA      		out 58-32,__zero_reg__
  76               	.LM18:
  77 0024 14BA      		out 52-32,__zero_reg__
  78               	.LM19:
  79 0026 17BA      		out 55-32,__zero_reg__
  80               	.LM20:
  81 0028 83EB      		ldi r24,lo8(-77)
  82 002a 81BB      		out 49-32,r24
  83               	.LM21:
  84 002c 80E4      		ldi r24,lo8(64)
  85 002e 82BB      		out 50-32,r24
  86               	.LM22:
  87 0030 80E0      		ldi r24,lo8(0)
  88 0032 90E0      		ldi r25,hi8(0)
  89               	/* epilogue start */
  90 0034 0895      		ret
  91               	.LFE9:
  92               		.size	portInit, .-portInit
  93               	.global	checkInterface
  94               		.type	checkInterface, @function
  95               	checkInterface:
  96               	.LFB10:
  97               	.LM23:
  98               	/* prologue: function */
  99               	/* frame size = 0 */
 100               	.LM24:
 101 0036 BA9A      		sbi 55-32,2
 102               	.LM25:
 103 0038 C298      		cbi 56-32,2
 104               	.LBB26:
 105               	.LBB27:
 106               	.LBB28:
 107               	.LBB29:
 108               	.LM26:
 109 003a 88E2      		ldi r24,lo8(40)
 110               	.LVL1:
 111               	/* #APP */
 112               	 ;  83 "c:/winavr-20100110/lib/gcc/../../avr/include/util/delay_basic.h" 1
 113 003c 8A95      		1: dec r24
 114 003e 01F4      		brne 1b
GAS LISTING C:\Users\21030\AppData\Local\Temp/ccAQkdr0.s 			page 3


 115               	 ;  0 "" 2
 116               	/* #NOAPP */
 117               	.LBE29:
 118               	.LBE28:
 119               	.LBE27:
 120               	.LBE26:
 121               	.LM27:
 122 0040 CF99      		sbic 57-32,7
 123 0042 00C0      		rjmp .L10
 124               	.LM28:
 125 0044 8CE0      		ldi r24,lo8(12)
 126 0046 90E0      		ldi r25,hi8(12)
 127               	.LVL2:
 128 0048 61E0      		ldi r22,lo8(1)
 129 004a 0E94 0000 		call __eewr_byte_m32
 130 004e 81E0      		ldi r24,lo8(1)
 131               	.LVL3:
 132 0050 0895      		ret
 133               	.LVL4:
 134               	.L10:
 135               	.LM29:
 136 0052 9D99      		sbic 51-32,5
 137 0054 00C0      		rjmp .L12
 138               	.LM30:
 139 0056 8CE0      		ldi r24,lo8(12)
 140 0058 90E0      		ldi r25,hi8(12)
 141               	.LVL5:
 142 005a 60E0      		ldi r22,lo8(0)
 143 005c 0E94 0000 		call __eewr_byte_m32
 144 0060 80E0      		ldi r24,lo8(0)
 145               	.LVL6:
 146 0062 0895      		ret
 147               	.LVL7:
 148               	.L12:
 149               	.LM31:
 150 0064 8CE0      		ldi r24,lo8(12)
 151 0066 90E0      		ldi r25,hi8(12)
 152               	.LVL8:
 153 0068 0E94 0000 		call __eerd_byte_m32
 154               	.LVL9:
 155 006c 8111      		cpse r24,__zero_reg__
 156 006e 81E0      		ldi r24,lo8(1)
 157               	.L11:
 158               	.LVL10:
 159               	.LM32:
 160 0070 0895      		ret
 161               	.LFE10:
 162               		.size	checkInterface, .-checkInterface
 163               	.global	main
 164               		.type	main, @function
 165               	main:
 166               	.LFB11:
 167               	.LM33:
 168               	/* prologue: function */
 169               	/* frame size = 0 */
 170               	.LM34:
 171 0072 0E94 0000 		call portInit
GAS LISTING C:\Users\21030\AppData\Local\Temp/ccAQkdr0.s 			page 4


 172               	.LM35:
 173 0076 0E94 0000 		call checkInterface
 174 007a 8093 0000 		sts usbmode,r24
 175               	.LM36:
 176 007e 0E94 0000 		call DPpullEn
 177               	.LM37:
 178 0082 0E94 0000 		call timerInit
 179               	.LM38:
 180 0086 88E0      		ldi r24,lo8(8)
 181 0088 0E94 0000 		call timer1PWMInit
 182               	.LM39:
 183 008c 88E0      		ldi r24,lo8(8)
 184 008e 90E0      		ldi r25,hi8(8)
 185 0090 0E94 0000 		call timer2PWMInit
 186               	.LM40:
 187 0094 0E94 0000 		call keymap_init
 188               	.LM41:
 189 0098 0E94 0000 		call initMacroAddr
 190               	.LM42:
 191 009c 8091 0000 		lds r24,usbmode
 192 00a0 8823      		tst r24
 193 00a2 01F0      		breq .L16
 194               	.LM43:
 195 00a4 81E0      		ldi r24,lo8(1)
 196 00a6 0E94 0000 		call led_check
 197               	.LM44:
 198 00aa 85E0      		ldi r24,lo8(5)
 199 00ac 90E0      		ldi r25,hi8(5)
 200 00ae 0E94 0000 		call led_off
 201               	.LM45:
 202 00b2 87E0      		ldi r24,lo8(7)
 203 00b4 90E0      		ldi r25,hi8(7)
 204 00b6 0E94 0000 		call led_off
 205               	.LM46:
 206 00ba 88E0      		ldi r24,lo8(8)
 207 00bc 90E0      		ldi r25,hi8(8)
 208 00be 0E94 0000 		call led_off
 209               	.LM47:
 210 00c2 0E94 0000 		call led_mode_init
 211               	.LM48:
 212 00c6 0E94 0000 		call usbmain
 213 00ca 00C0      		rjmp .L17
 214               	.L16:
 215               	.LM49:
 216 00cc 85E0      		ldi r24,lo8(5)
 217 00ce 90E0      		ldi r25,hi8(5)
 218 00d0 0E94 0000 		call led_on
 219               	.LM50:
 220 00d4 80E0      		ldi r24,lo8(0)
 221 00d6 0E94 0000 		call led_check
 222               	.LM51:
 223 00da 0E94 0000 		call led_mode_init
 224               	.LM52:
 225 00de 0E94 0000 		call ps2main
 226               	.L17:
 227               	.LM53:
 228 00e2 80E0      		ldi r24,lo8(0)
GAS LISTING C:\Users\21030\AppData\Local\Temp/ccAQkdr0.s 			page 5


 229 00e4 90E0      		ldi r25,hi8(0)
 230               	/* epilogue start */
 231 00e6 0895      		ret
 232               	.LFE11:
 233               		.size	main, .-main
 234               		.comm usbmode,1,1
 235               		.section	.debug_frame,"",@progbits
 236               	.Lframe0:
 237 0000 0C00 0000 		.long	.LECIE0-.LSCIE0
 238               	.LSCIE0:
 239 0004 FFFF FFFF 		.long	0xffffffff
 240 0008 01        		.byte	0x1
 241 0009 00        		.string	""
 242 000a 01        		.uleb128 0x1
 243 000b 7F        		.sleb128 -1
 244 000c 24        		.byte	0x24
 245 000d 0C        		.byte	0xc
 246 000e 20        		.uleb128 0x20
 247 000f 00        		.uleb128 0x0
 248               		.p2align	2
 249               	.LECIE0:
 250               	.LSFDE0:
 251 0010 0C00 0000 		.long	.LEFDE0-.LASFDE0
 252               	.LASFDE0:
 253 0014 0000 0000 		.long	.Lframe0
 254 0018 0000 0000 		.long	.LFB7
 255 001c 0200 0000 		.long	.LFE7-.LFB7
 256               		.p2align	2
 257               	.LEFDE0:
 258               	.LSFDE2:
 259 0020 0C00 0000 		.long	.LEFDE2-.LASFDE2
 260               	.LASFDE2:
 261 0024 0000 0000 		.long	.Lframe0
 262 0028 0000 0000 		.long	.LFB8
 263 002c 1800 0000 		.long	.LFE8-.LFB8
 264               		.p2align	2
 265               	.LEFDE2:
 266               	.LSFDE4:
 267 0030 0C00 0000 		.long	.LEFDE4-.LASFDE4
 268               	.LASFDE4:
 269 0034 0000 0000 		.long	.Lframe0
 270 0038 0000 0000 		.long	.LFB9
 271 003c 1C00 0000 		.long	.LFE9-.LFB9
 272               		.p2align	2
 273               	.LEFDE4:
 274               	.LSFDE6:
 275 0040 0C00 0000 		.long	.LEFDE6-.LASFDE6
 276               	.LASFDE6:
 277 0044 0000 0000 		.long	.Lframe0
 278 0048 0000 0000 		.long	.LFB10
 279 004c 3C00 0000 		.long	.LFE10-.LFB10
 280               		.p2align	2
 281               	.LEFDE6:
 282               	.LSFDE8:
 283 0050 0C00 0000 		.long	.LEFDE8-.LASFDE8
 284               	.LASFDE8:
 285 0054 0000 0000 		.long	.Lframe0
GAS LISTING C:\Users\21030\AppData\Local\Temp/ccAQkdr0.s 			page 6


 286 0058 0000 0000 		.long	.LFB11
 287 005c 7600 0000 		.long	.LFE11-.LFB11
 288               		.p2align	2
 289               	.LEFDE8:
 290               		.text
 291               	.Letext0:
 292               		.section	.debug_loc,"",@progbits
 293               	.Ldebug_loc0:
 294               	.LLST4:
 295 0000 5000 0000 		.long	.LVL3-.Ltext0
 296 0004 5200 0000 		.long	.LVL4-.Ltext0
 297 0008 0100      		.word	0x1
 298 000a 68        		.byte	0x68
 299 000b 6200 0000 		.long	.LVL6-.Ltext0
 300 000f 6400 0000 		.long	.LVL7-.Ltext0
 301 0013 0100      		.word	0x1
 302 0015 68        		.byte	0x68
 303 0016 6C00 0000 		.long	.LVL9-.Ltext0
 304 001a 7000 0000 		.long	.LVL10-.Ltext0
 305 001e 0100      		.word	0x1
 306 0020 68        		.byte	0x68
 307 0021 0000 0000 		.long	0x0
 308 0025 0000 0000 		.long	0x0
 309               	.LLST5:
 310 0029 3C00 0000 		.long	.LVL1-.Ltext0
 311 002d 4800 0000 		.long	.LVL2-.Ltext0
 312 0031 0100      		.word	0x1
 313 0033 68        		.byte	0x68
 314 0034 5200 0000 		.long	.LVL4-.Ltext0
 315 0038 5A00 0000 		.long	.LVL5-.Ltext0
 316 003c 0100      		.word	0x1
 317 003e 68        		.byte	0x68
 318 003f 6400 0000 		.long	.LVL7-.Ltext0
 319 0043 6800 0000 		.long	.LVL8-.Ltext0
 320 0047 0100      		.word	0x1
 321 0049 68        		.byte	0x68
 322 004a 0000 0000 		.long	0x0
 323 004e 0000 0000 		.long	0x0
 324               		.section	.debug_info
 325 0000 7E02 0000 		.long	0x27e
 326 0004 0200      		.word	0x2
 327 0006 0000 0000 		.long	.Ldebug_abbrev0
 328 000a 04        		.byte	0x4
 329 000b 01        		.uleb128 0x1
 330 000c 0000 0000 		.long	.LASF37
 331 0010 01        		.byte	0x1
 332 0011 0000 0000 		.long	.LASF38
 333 0015 0000 0000 		.long	.LASF39
 334 0019 0000 0000 		.long	.Ltext0
 335 001d 0000 0000 		.long	.Letext0
 336 0021 0000 0000 		.long	.Ldebug_line0
 337 0025 02        		.uleb128 0x2
 338 0026 01        		.byte	0x1
 339 0027 08        		.byte	0x8
 340 0028 0000 0000 		.long	.LASF0
 341 002c 02        		.uleb128 0x2
 342 002d 01        		.byte	0x1
GAS LISTING C:\Users\21030\AppData\Local\Temp/ccAQkdr0.s 			page 7


 343 002e 06        		.byte	0x6
 344 002f 0000 0000 		.long	.LASF1
 345 0033 02        		.uleb128 0x2
 346 0034 02        		.byte	0x2
 347 0035 07        		.byte	0x7
 348 0036 0000 0000 		.long	.LASF2
 349 003a 02        		.uleb128 0x2
 350 003b 02        		.byte	0x2
 351 003c 05        		.byte	0x5
 352 003d 0000 0000 		.long	.LASF3
 353 0041 02        		.uleb128 0x2
 354 0042 04        		.byte	0x4
 355 0043 07        		.byte	0x7
 356 0044 0000 0000 		.long	.LASF4
 357 0048 02        		.uleb128 0x2
 358 0049 04        		.byte	0x4
 359 004a 05        		.byte	0x5
 360 004b 0000 0000 		.long	.LASF5
 361 004f 02        		.uleb128 0x2
 362 0050 08        		.byte	0x8
 363 0051 07        		.byte	0x7
 364 0052 0000 0000 		.long	.LASF6
 365 0056 02        		.uleb128 0x2
 366 0057 08        		.byte	0x8
 367 0058 05        		.byte	0x5
 368 0059 0000 0000 		.long	.LASF7
 369 005d 02        		.uleb128 0x2
 370 005e 02        		.byte	0x2
 371 005f 07        		.byte	0x7
 372 0060 0000 0000 		.long	.LASF8
 373 0064 02        		.uleb128 0x2
 374 0065 01        		.byte	0x1
 375 0066 06        		.byte	0x6
 376 0067 0000 0000 		.long	.LASF9
 377 006b 03        		.uleb128 0x3
 378 006c 02        		.byte	0x2
 379 006d 05        		.byte	0x5
 380 006e 696E 7400 		.string	"int"
 381 0072 04        		.uleb128 0x4
 382 0073 0000 0000 		.long	.LASF10
 383 0077 03        		.byte	0x3
 384 0078 79        		.byte	0x79
 385 0079 2C00 0000 		.long	0x2c
 386 007d 04        		.uleb128 0x4
 387 007e 0000 0000 		.long	.LASF11
 388 0082 03        		.byte	0x3
 389 0083 7A        		.byte	0x7a
 390 0084 2500 0000 		.long	0x25
 391 0088 04        		.uleb128 0x4
 392 0089 0000 0000 		.long	.LASF12
 393 008d 03        		.byte	0x3
 394 008e 7C        		.byte	0x7c
 395 008f 5D00 0000 		.long	0x5d
 396 0093 05        		.uleb128 0x5
 397 0094 01        		.byte	0x1
 398 0095 06        		.byte	0x6
 399 0096 05        		.uleb128 0x5
GAS LISTING C:\Users\21030\AppData\Local\Temp/ccAQkdr0.s 			page 8


 400 0097 01        		.byte	0x1
 401 0098 08        		.byte	0x8
 402 0099 06        		.uleb128 0x6
 403 009a 02        		.byte	0x2
 404 009b 05        		.byte	0x5
 405 009c 04        		.byte	0x4
 406 009d EA00 0000 		.long	0xea
 407 00a1 07        		.uleb128 0x7
 408 00a2 0000 0000 		.long	.LASF13
 409 00a6 00        		.sleb128 0
 410 00a7 07        		.uleb128 0x7
 411 00a8 0000 0000 		.long	.LASF14
 412 00ac 01        		.sleb128 1
 413 00ad 07        		.uleb128 0x7
 414 00ae 0000 0000 		.long	.LASF15
 415 00b2 02        		.sleb128 2
 416 00b3 07        		.uleb128 0x7
 417 00b4 0000 0000 		.long	.LASF16
 418 00b8 03        		.sleb128 3
 419 00b9 07        		.uleb128 0x7
 420 00ba 0000 0000 		.long	.LASF17
 421 00be 04        		.sleb128 4
 422 00bf 07        		.uleb128 0x7
 423 00c0 0000 0000 		.long	.LASF18
 424 00c4 05        		.sleb128 5
 425 00c5 07        		.uleb128 0x7
 426 00c6 0000 0000 		.long	.LASF19
 427 00ca 06        		.sleb128 6
 428 00cb 07        		.uleb128 0x7
 429 00cc 0000 0000 		.long	.LASF20
 430 00d0 07        		.sleb128 7
 431 00d1 07        		.uleb128 0x7
 432 00d2 0000 0000 		.long	.LASF21
 433 00d6 08        		.sleb128 8
 434 00d7 07        		.uleb128 0x7
 435 00d8 0000 0000 		.long	.LASF22
 436 00dc 09        		.sleb128 9
 437 00dd 07        		.uleb128 0x7
 438 00de 0000 0000 		.long	.LASF23
 439 00e2 0A        		.sleb128 10
 440 00e3 07        		.uleb128 0x7
 441 00e4 0000 0000 		.long	.LASF24
 442 00e8 0B        		.sleb128 11
 443 00e9 00        		.byte	0x0
 444 00ea 05        		.uleb128 0x5
 445 00eb 02        		.byte	0x2
 446 00ec 07        		.byte	0x7
 447 00ed 08        		.uleb128 0x8
 448 00ee 0000 0000 		.long	.LASF25
 449 00f2 02        		.byte	0x2
 450 00f3 68        		.byte	0x68
 451 00f4 01        		.byte	0x1
 452 00f5 03        		.byte	0x3
 453 00f6 0601 0000 		.long	0x106
 454 00fa 09        		.uleb128 0x9
 455 00fb 0000 0000 		.long	.LASF27
 456 00ff 02        		.byte	0x2
GAS LISTING C:\Users\21030\AppData\Local\Temp/ccAQkdr0.s 			page 9


 457 0100 67        		.byte	0x67
 458 0101 8800 0000 		.long	0x88
 459 0105 00        		.byte	0x0
 460 0106 08        		.uleb128 0x8
 461 0107 0000 0000 		.long	.LASF26
 462 010b 04        		.byte	0x4
 463 010c 6F        		.byte	0x6f
 464 010d 01        		.byte	0x1
 465 010e 03        		.byte	0x3
 466 010f 3701 0000 		.long	0x137
 467 0113 09        		.uleb128 0x9
 468 0114 0000 0000 		.long	.LASF28
 469 0118 04        		.byte	0x4
 470 0119 6E        		.byte	0x6e
 471 011a 3701 0000 		.long	0x137
 472 011e 0A        		.uleb128 0xa
 473 011f 0000 0000 		.long	.LASF29
 474 0123 04        		.byte	0x4
 475 0124 70        		.byte	0x70
 476 0125 8800 0000 		.long	0x88
 477 0129 0A        		.uleb128 0xa
 478 012a 0000 0000 		.long	.LASF30
 479 012e 04        		.byte	0x4
 480 012f 71        		.byte	0x71
 481 0130 3701 0000 		.long	0x137
 482 0134 0B        		.uleb128 0xb
 483 0135 0B        		.uleb128 0xb
 484 0136 00        		.byte	0x0
 485 0137 02        		.uleb128 0x2
 486 0138 04        		.byte	0x4
 487 0139 04        		.byte	0x4
 488 013a 0000 0000 		.long	.LASF31
 489 013e 08        		.uleb128 0x8
 490 013f 0000 0000 		.long	.LASF32
 491 0143 02        		.byte	0x2
 492 0144 52        		.byte	0x52
 493 0145 01        		.byte	0x1
 494 0146 03        		.byte	0x3
 495 0147 5701 0000 		.long	0x157
 496 014b 09        		.uleb128 0x9
 497 014c 0000 0000 		.long	.LASF27
 498 0150 02        		.byte	0x2
 499 0151 51        		.byte	0x51
 500 0152 7D00 0000 		.long	0x7d
 501 0156 00        		.byte	0x0
 502 0157 08        		.uleb128 0x8
 503 0158 0000 0000 		.long	.LASF33
 504 015c 04        		.byte	0x4
 505 015d 95        		.byte	0x95
 506 015e 01        		.byte	0x1
 507 015f 03        		.byte	0x3
 508 0160 A001 0000 		.long	0x1a0
 509 0164 09        		.uleb128 0x9
 510 0165 0000 0000 		.long	.LASF34
 511 0169 04        		.byte	0x4
 512 016a 94        		.byte	0x94
 513 016b 3701 0000 		.long	0x137
GAS LISTING C:\Users\21030\AppData\Local\Temp/ccAQkdr0.s 			page 10


 514 016f 0A        		.uleb128 0xa
 515 0170 0000 0000 		.long	.LASF29
 516 0174 04        		.byte	0x4
 517 0175 96        		.byte	0x96
 518 0176 7D00 0000 		.long	0x7d
 519 017a 0A        		.uleb128 0xa
 520 017b 0000 0000 		.long	.LASF30
 521 017f 04        		.byte	0x4
 522 0180 97        		.byte	0x97
 523 0181 3701 0000 		.long	0x137
 524 0185 0C        		.uleb128 0xc
 525 0186 9E01 0000 		.long	0x19e
 526 018a 0D        		.uleb128 0xd
 527 018b 1301 0000 		.long	0x113
 528 018f 0E        		.uleb128 0xe
 529 0190 0F        		.uleb128 0xf
 530 0191 1E01 0000 		.long	0x11e
 531 0195 0F        		.uleb128 0xf
 532 0196 2901 0000 		.long	0x129
 533 019a 0B        		.uleb128 0xb
 534 019b 0B        		.uleb128 0xb
 535 019c 00        		.byte	0x0
 536 019d 00        		.byte	0x0
 537 019e 0B        		.uleb128 0xb
 538 019f 00        		.byte	0x0
 539 01a0 10        		.uleb128 0x10
 540 01a1 01        		.byte	0x1
 541 01a2 0000 0000 		.long	.LASF40
 542 01a6 01        		.byte	0x1
 543 01a7 2E        		.byte	0x2e
 544 01a8 01        		.byte	0x1
 545 01a9 01        		.byte	0x1
 546 01aa 11        		.uleb128 0x11
 547 01ab A001 0000 		.long	0x1a0
 548 01af 0000 0000 		.long	.LFB7
 549 01b3 0000 0000 		.long	.LFE7
 550 01b7 02        		.byte	0x2
 551 01b8 90        		.byte	0x90
 552 01b9 20        		.uleb128 0x20
 553 01ba 12        		.uleb128 0x12
 554 01bb 01        		.byte	0x1
 555 01bc 0000 0000 		.long	.LASF41
 556 01c0 01        		.byte	0x1
 557 01c1 3B        		.byte	0x3b
 558 01c2 01        		.byte	0x1
 559 01c3 0000 0000 		.long	.LFB8
 560 01c7 0000 0000 		.long	.LFE8
 561 01cb 02        		.byte	0x2
 562 01cc 90        		.byte	0x90
 563 01cd 20        		.uleb128 0x20
 564 01ce E001 0000 		.long	0x1e0
 565 01d2 13        		.uleb128 0x13
 566 01d3 0000 0000 		.long	.LASF42
 567 01d7 01        		.byte	0x1
 568 01d8 3A        		.byte	0x3a
 569 01d9 7D00 0000 		.long	0x7d
 570 01dd 01        		.byte	0x1
GAS LISTING C:\Users\21030\AppData\Local\Temp/ccAQkdr0.s 			page 11


 571 01de 68        		.byte	0x68
 572 01df 00        		.byte	0x0
 573 01e0 14        		.uleb128 0x14
 574 01e1 01        		.byte	0x1
 575 01e2 0000 0000 		.long	.LASF35
 576 01e6 01        		.byte	0x1
 577 01e7 51        		.byte	0x51
 578 01e8 01        		.byte	0x1
 579 01e9 6B00 0000 		.long	0x6b
 580 01ed 0000 0000 		.long	.LFB9
 581 01f1 0000 0000 		.long	.LFE9
 582 01f5 02        		.byte	0x2
 583 01f6 90        		.byte	0x90
 584 01f7 20        		.uleb128 0x20
 585 01f8 15        		.uleb128 0x15
 586 01f9 01        		.byte	0x1
 587 01fa 0000 0000 		.long	.LASF43
 588 01fe 01        		.byte	0x1
 589 01ff 8F        		.byte	0x8f
 590 0200 01        		.byte	0x1
 591 0201 7200 0000 		.long	0x72
 592 0205 0000 0000 		.long	.LFB10
 593 0209 0000 0000 		.long	.LFE10
 594 020d 02        		.byte	0x2
 595 020e 90        		.byte	0x90
 596 020f 20        		.uleb128 0x20
 597 0210 5702 0000 		.long	0x257
 598 0214 16        		.uleb128 0x16
 599 0215 0000 0000 		.long	.LASF44
 600 0219 01        		.byte	0x1
 601 021a 90        		.byte	0x90
 602 021b 7D00 0000 		.long	0x7d
 603 021f 0000 0000 		.long	.LLST4
 604 0223 17        		.uleb128 0x17
 605 0224 5701 0000 		.long	0x157
 606 0228 0000 0000 		.long	.LBB26
 607 022c 0000 0000 		.long	.LBE26
 608 0230 01        		.byte	0x1
 609 0231 95        		.byte	0x95
 610 0232 18        		.uleb128 0x18
 611 0233 0000 0000 		.long	.LBB27
 612 0237 0000 0000 		.long	.LBE27
 613 023b 17        		.uleb128 0x17
 614 023c 3E01 0000 		.long	0x13e
 615 0240 0000 0000 		.long	.LBB28
 616 0244 0000 0000 		.long	.LBE28
 617 0248 04        		.byte	0x4
 618 0249 A1        		.byte	0xa1
 619 024a 19        		.uleb128 0x19
 620 024b 4B01 0000 		.long	0x14b
 621 024f 0000 0000 		.long	.LLST5
 622 0253 00        		.byte	0x0
 623 0254 00        		.byte	0x0
 624 0255 00        		.byte	0x0
 625 0256 00        		.byte	0x0
 626 0257 14        		.uleb128 0x14
 627 0258 01        		.byte	0x1
GAS LISTING C:\Users\21030\AppData\Local\Temp/ccAQkdr0.s 			page 12


 628 0259 0000 0000 		.long	.LASF36
 629 025d 01        		.byte	0x1
 630 025e AA        		.byte	0xaa
 631 025f 01        		.byte	0x1
 632 0260 6B00 0000 		.long	0x6b
 633 0264 0000 0000 		.long	.LFB11
 634 0268 0000 0000 		.long	.LFE11
 635 026c 02        		.byte	0x2
 636 026d 90        		.byte	0x90
 637 026e 20        		.uleb128 0x20
 638 026f 1A        		.uleb128 0x1a
 639 0270 0000 0000 		.long	.LASF45
 640 0274 01        		.byte	0x1
 641 0275 1A        		.byte	0x1a
 642 0276 7200 0000 		.long	0x72
 643 027a 01        		.byte	0x1
 644 027b 05        		.byte	0x5
 645 027c 03        		.byte	0x3
 646 027d 0000 0000 		.long	usbmode
 647 0281 00        		.byte	0x0
 648               		.section	.debug_abbrev
 649 0000 01        		.uleb128 0x1
 650 0001 11        		.uleb128 0x11
 651 0002 01        		.byte	0x1
 652 0003 25        		.uleb128 0x25
 653 0004 0E        		.uleb128 0xe
 654 0005 13        		.uleb128 0x13
 655 0006 0B        		.uleb128 0xb
 656 0007 03        		.uleb128 0x3
 657 0008 0E        		.uleb128 0xe
 658 0009 1B        		.uleb128 0x1b
 659 000a 0E        		.uleb128 0xe
 660 000b 11        		.uleb128 0x11
 661 000c 01        		.uleb128 0x1
 662 000d 12        		.uleb128 0x12
 663 000e 01        		.uleb128 0x1
 664 000f 10        		.uleb128 0x10
 665 0010 06        		.uleb128 0x6
 666 0011 00        		.byte	0x0
 667 0012 00        		.byte	0x0
 668 0013 02        		.uleb128 0x2
 669 0014 24        		.uleb128 0x24
 670 0015 00        		.byte	0x0
 671 0016 0B        		.uleb128 0xb
 672 0017 0B        		.uleb128 0xb
 673 0018 3E        		.uleb128 0x3e
 674 0019 0B        		.uleb128 0xb
 675 001a 03        		.uleb128 0x3
 676 001b 0E        		.uleb128 0xe
 677 001c 00        		.byte	0x0
 678 001d 00        		.byte	0x0
 679 001e 03        		.uleb128 0x3
 680 001f 24        		.uleb128 0x24
 681 0020 00        		.byte	0x0
 682 0021 0B        		.uleb128 0xb
 683 0022 0B        		.uleb128 0xb
 684 0023 3E        		.uleb128 0x3e
GAS LISTING C:\Users\21030\AppData\Local\Temp/ccAQkdr0.s 			page 13


 685 0024 0B        		.uleb128 0xb
 686 0025 03        		.uleb128 0x3
 687 0026 08        		.uleb128 0x8
 688 0027 00        		.byte	0x0
 689 0028 00        		.byte	0x0
 690 0029 04        		.uleb128 0x4
 691 002a 16        		.uleb128 0x16
 692 002b 00        		.byte	0x0
 693 002c 03        		.uleb128 0x3
 694 002d 0E        		.uleb128 0xe
 695 002e 3A        		.uleb128 0x3a
 696 002f 0B        		.uleb128 0xb
 697 0030 3B        		.uleb128 0x3b
 698 0031 0B        		.uleb128 0xb
 699 0032 49        		.uleb128 0x49
 700 0033 13        		.uleb128 0x13
 701 0034 00        		.byte	0x0
 702 0035 00        		.byte	0x0
 703 0036 05        		.uleb128 0x5
 704 0037 24        		.uleb128 0x24
 705 0038 00        		.byte	0x0
 706 0039 0B        		.uleb128 0xb
 707 003a 0B        		.uleb128 0xb
 708 003b 3E        		.uleb128 0x3e
 709 003c 0B        		.uleb128 0xb
 710 003d 00        		.byte	0x0
 711 003e 00        		.byte	0x0
 712 003f 06        		.uleb128 0x6
 713 0040 04        		.uleb128 0x4
 714 0041 01        		.byte	0x1
 715 0042 0B        		.uleb128 0xb
 716 0043 0B        		.uleb128 0xb
 717 0044 3A        		.uleb128 0x3a
 718 0045 0B        		.uleb128 0xb
 719 0046 3B        		.uleb128 0x3b
 720 0047 0B        		.uleb128 0xb
 721 0048 01        		.uleb128 0x1
 722 0049 13        		.uleb128 0x13
 723 004a 00        		.byte	0x0
 724 004b 00        		.byte	0x0
 725 004c 07        		.uleb128 0x7
 726 004d 28        		.uleb128 0x28
 727 004e 00        		.byte	0x0
 728 004f 03        		.uleb128 0x3
 729 0050 0E        		.uleb128 0xe
 730 0051 1C        		.uleb128 0x1c
 731 0052 0D        		.uleb128 0xd
 732 0053 00        		.byte	0x0
 733 0054 00        		.byte	0x0
 734 0055 08        		.uleb128 0x8
 735 0056 2E        		.uleb128 0x2e
 736 0057 01        		.byte	0x1
 737 0058 03        		.uleb128 0x3
 738 0059 0E        		.uleb128 0xe
 739 005a 3A        		.uleb128 0x3a
 740 005b 0B        		.uleb128 0xb
 741 005c 3B        		.uleb128 0x3b
GAS LISTING C:\Users\21030\AppData\Local\Temp/ccAQkdr0.s 			page 14


 742 005d 0B        		.uleb128 0xb
 743 005e 27        		.uleb128 0x27
 744 005f 0C        		.uleb128 0xc
 745 0060 20        		.uleb128 0x20
 746 0061 0B        		.uleb128 0xb
 747 0062 01        		.uleb128 0x1
 748 0063 13        		.uleb128 0x13
 749 0064 00        		.byte	0x0
 750 0065 00        		.byte	0x0
 751 0066 09        		.uleb128 0x9
 752 0067 05        		.uleb128 0x5
 753 0068 00        		.byte	0x0
 754 0069 03        		.uleb128 0x3
 755 006a 0E        		.uleb128 0xe
 756 006b 3A        		.uleb128 0x3a
 757 006c 0B        		.uleb128 0xb
 758 006d 3B        		.uleb128 0x3b
 759 006e 0B        		.uleb128 0xb
 760 006f 49        		.uleb128 0x49
 761 0070 13        		.uleb128 0x13
 762 0071 00        		.byte	0x0
 763 0072 00        		.byte	0x0
 764 0073 0A        		.uleb128 0xa
 765 0074 34        		.uleb128 0x34
 766 0075 00        		.byte	0x0
 767 0076 03        		.uleb128 0x3
 768 0077 0E        		.uleb128 0xe
 769 0078 3A        		.uleb128 0x3a
 770 0079 0B        		.uleb128 0xb
 771 007a 3B        		.uleb128 0x3b
 772 007b 0B        		.uleb128 0xb
 773 007c 49        		.uleb128 0x49
 774 007d 13        		.uleb128 0x13
 775 007e 00        		.byte	0x0
 776 007f 00        		.byte	0x0
 777 0080 0B        		.uleb128 0xb
 778 0081 0B        		.uleb128 0xb
 779 0082 00        		.byte	0x0
 780 0083 00        		.byte	0x0
 781 0084 00        		.byte	0x0
 782 0085 0C        		.uleb128 0xc
 783 0086 0B        		.uleb128 0xb
 784 0087 01        		.byte	0x1
 785 0088 01        		.uleb128 0x1
 786 0089 13        		.uleb128 0x13
 787 008a 00        		.byte	0x0
 788 008b 00        		.byte	0x0
 789 008c 0D        		.uleb128 0xd
 790 008d 05        		.uleb128 0x5
 791 008e 00        		.byte	0x0
 792 008f 31        		.uleb128 0x31
 793 0090 13        		.uleb128 0x13
 794 0091 00        		.byte	0x0
 795 0092 00        		.byte	0x0
 796 0093 0E        		.uleb128 0xe
 797 0094 0B        		.uleb128 0xb
 798 0095 01        		.byte	0x1
GAS LISTING C:\Users\21030\AppData\Local\Temp/ccAQkdr0.s 			page 15


 799 0096 00        		.byte	0x0
 800 0097 00        		.byte	0x0
 801 0098 0F        		.uleb128 0xf
 802 0099 34        		.uleb128 0x34
 803 009a 00        		.byte	0x0
 804 009b 31        		.uleb128 0x31
 805 009c 13        		.uleb128 0x13
 806 009d 00        		.byte	0x0
 807 009e 00        		.byte	0x0
 808 009f 10        		.uleb128 0x10
 809 00a0 2E        		.uleb128 0x2e
 810 00a1 00        		.byte	0x0
 811 00a2 3F        		.uleb128 0x3f
 812 00a3 0C        		.uleb128 0xc
 813 00a4 03        		.uleb128 0x3
 814 00a5 0E        		.uleb128 0xe
 815 00a6 3A        		.uleb128 0x3a
 816 00a7 0B        		.uleb128 0xb
 817 00a8 3B        		.uleb128 0x3b
 818 00a9 0B        		.uleb128 0xb
 819 00aa 27        		.uleb128 0x27
 820 00ab 0C        		.uleb128 0xc
 821 00ac 20        		.uleb128 0x20
 822 00ad 0B        		.uleb128 0xb
 823 00ae 00        		.byte	0x0
 824 00af 00        		.byte	0x0
 825 00b0 11        		.uleb128 0x11
 826 00b1 2E        		.uleb128 0x2e
 827 00b2 00        		.byte	0x0
 828 00b3 31        		.uleb128 0x31
 829 00b4 13        		.uleb128 0x13
 830 00b5 11        		.uleb128 0x11
 831 00b6 01        		.uleb128 0x1
 832 00b7 12        		.uleb128 0x12
 833 00b8 01        		.uleb128 0x1
 834 00b9 40        		.uleb128 0x40
 835 00ba 0A        		.uleb128 0xa
 836 00bb 00        		.byte	0x0
 837 00bc 00        		.byte	0x0
 838 00bd 12        		.uleb128 0x12
 839 00be 2E        		.uleb128 0x2e
 840 00bf 01        		.byte	0x1
 841 00c0 3F        		.uleb128 0x3f
 842 00c1 0C        		.uleb128 0xc
 843 00c2 03        		.uleb128 0x3
 844 00c3 0E        		.uleb128 0xe
 845 00c4 3A        		.uleb128 0x3a
 846 00c5 0B        		.uleb128 0xb
 847 00c6 3B        		.uleb128 0x3b
 848 00c7 0B        		.uleb128 0xb
 849 00c8 27        		.uleb128 0x27
 850 00c9 0C        		.uleb128 0xc
 851 00ca 11        		.uleb128 0x11
 852 00cb 01        		.uleb128 0x1
 853 00cc 12        		.uleb128 0x12
 854 00cd 01        		.uleb128 0x1
 855 00ce 40        		.uleb128 0x40
GAS LISTING C:\Users\21030\AppData\Local\Temp/ccAQkdr0.s 			page 16


 856 00cf 0A        		.uleb128 0xa
 857 00d0 01        		.uleb128 0x1
 858 00d1 13        		.uleb128 0x13
 859 00d2 00        		.byte	0x0
 860 00d3 00        		.byte	0x0
 861 00d4 13        		.uleb128 0x13
 862 00d5 05        		.uleb128 0x5
 863 00d6 00        		.byte	0x0
 864 00d7 03        		.uleb128 0x3
 865 00d8 0E        		.uleb128 0xe
 866 00d9 3A        		.uleb128 0x3a
 867 00da 0B        		.uleb128 0xb
 868 00db 3B        		.uleb128 0x3b
 869 00dc 0B        		.uleb128 0xb
 870 00dd 49        		.uleb128 0x49
 871 00de 13        		.uleb128 0x13
 872 00df 02        		.uleb128 0x2
 873 00e0 0A        		.uleb128 0xa
 874 00e1 00        		.byte	0x0
 875 00e2 00        		.byte	0x0
 876 00e3 14        		.uleb128 0x14
 877 00e4 2E        		.uleb128 0x2e
 878 00e5 00        		.byte	0x0
 879 00e6 3F        		.uleb128 0x3f
 880 00e7 0C        		.uleb128 0xc
 881 00e8 03        		.uleb128 0x3
 882 00e9 0E        		.uleb128 0xe
 883 00ea 3A        		.uleb128 0x3a
 884 00eb 0B        		.uleb128 0xb
 885 00ec 3B        		.uleb128 0x3b
 886 00ed 0B        		.uleb128 0xb
 887 00ee 27        		.uleb128 0x27
 888 00ef 0C        		.uleb128 0xc
 889 00f0 49        		.uleb128 0x49
 890 00f1 13        		.uleb128 0x13
 891 00f2 11        		.uleb128 0x11
 892 00f3 01        		.uleb128 0x1
 893 00f4 12        		.uleb128 0x12
 894 00f5 01        		.uleb128 0x1
 895 00f6 40        		.uleb128 0x40
 896 00f7 0A        		.uleb128 0xa
 897 00f8 00        		.byte	0x0
 898 00f9 00        		.byte	0x0
 899 00fa 15        		.uleb128 0x15
 900 00fb 2E        		.uleb128 0x2e
 901 00fc 01        		.byte	0x1
 902 00fd 3F        		.uleb128 0x3f
 903 00fe 0C        		.uleb128 0xc
 904 00ff 03        		.uleb128 0x3
 905 0100 0E        		.uleb128 0xe
 906 0101 3A        		.uleb128 0x3a
 907 0102 0B        		.uleb128 0xb
 908 0103 3B        		.uleb128 0x3b
 909 0104 0B        		.uleb128 0xb
 910 0105 27        		.uleb128 0x27
 911 0106 0C        		.uleb128 0xc
 912 0107 49        		.uleb128 0x49
GAS LISTING C:\Users\21030\AppData\Local\Temp/ccAQkdr0.s 			page 17


 913 0108 13        		.uleb128 0x13
 914 0109 11        		.uleb128 0x11
 915 010a 01        		.uleb128 0x1
 916 010b 12        		.uleb128 0x12
 917 010c 01        		.uleb128 0x1
 918 010d 40        		.uleb128 0x40
 919 010e 0A        		.uleb128 0xa
 920 010f 01        		.uleb128 0x1
 921 0110 13        		.uleb128 0x13
 922 0111 00        		.byte	0x0
 923 0112 00        		.byte	0x0
 924 0113 16        		.uleb128 0x16
 925 0114 34        		.uleb128 0x34
 926 0115 00        		.byte	0x0
 927 0116 03        		.uleb128 0x3
 928 0117 0E        		.uleb128 0xe
 929 0118 3A        		.uleb128 0x3a
 930 0119 0B        		.uleb128 0xb
 931 011a 3B        		.uleb128 0x3b
 932 011b 0B        		.uleb128 0xb
 933 011c 49        		.uleb128 0x49
 934 011d 13        		.uleb128 0x13
 935 011e 02        		.uleb128 0x2
 936 011f 06        		.uleb128 0x6
 937 0120 00        		.byte	0x0
 938 0121 00        		.byte	0x0
 939 0122 17        		.uleb128 0x17
 940 0123 1D        		.uleb128 0x1d
 941 0124 01        		.byte	0x1
 942 0125 31        		.uleb128 0x31
 943 0126 13        		.uleb128 0x13
 944 0127 11        		.uleb128 0x11
 945 0128 01        		.uleb128 0x1
 946 0129 12        		.uleb128 0x12
 947 012a 01        		.uleb128 0x1
 948 012b 58        		.uleb128 0x58
 949 012c 0B        		.uleb128 0xb
 950 012d 59        		.uleb128 0x59
 951 012e 0B        		.uleb128 0xb
 952 012f 00        		.byte	0x0
 953 0130 00        		.byte	0x0
 954 0131 18        		.uleb128 0x18
 955 0132 0B        		.uleb128 0xb
 956 0133 01        		.byte	0x1
 957 0134 11        		.uleb128 0x11
 958 0135 01        		.uleb128 0x1
 959 0136 12        		.uleb128 0x12
 960 0137 01        		.uleb128 0x1
 961 0138 00        		.byte	0x0
 962 0139 00        		.byte	0x0
 963 013a 19        		.uleb128 0x19
 964 013b 05        		.uleb128 0x5
 965 013c 00        		.byte	0x0
 966 013d 31        		.uleb128 0x31
 967 013e 13        		.uleb128 0x13
 968 013f 02        		.uleb128 0x2
 969 0140 06        		.uleb128 0x6
GAS LISTING C:\Users\21030\AppData\Local\Temp/ccAQkdr0.s 			page 18


 970 0141 00        		.byte	0x0
 971 0142 00        		.byte	0x0
 972 0143 1A        		.uleb128 0x1a
 973 0144 34        		.uleb128 0x34
 974 0145 00        		.byte	0x0
 975 0146 03        		.uleb128 0x3
 976 0147 0E        		.uleb128 0xe
 977 0148 3A        		.uleb128 0x3a
 978 0149 0B        		.uleb128 0xb
 979 014a 3B        		.uleb128 0x3b
 980 014b 0B        		.uleb128 0xb
 981 014c 49        		.uleb128 0x49
 982 014d 13        		.uleb128 0x13
 983 014e 3F        		.uleb128 0x3f
 984 014f 0C        		.uleb128 0xc
 985 0150 02        		.uleb128 0x2
 986 0151 0A        		.uleb128 0xa
 987 0152 00        		.byte	0x0
 988 0153 00        		.byte	0x0
 989 0154 00        		.byte	0x0
 990               		.section	.debug_pubnames,"",@progbits
 991 0000 6200 0000 		.long	0x62
 992 0004 0200      		.word	0x2
 993 0006 0000 0000 		.long	.Ldebug_info0
 994 000a 8202 0000 		.long	0x282
 995 000e AA01 0000 		.long	0x1aa
 996 0012 656E 6162 		.string	"enable_printf"
 996      6C65 5F70 
 996      7269 6E74 
 996      6600 
 997 0020 BA01 0000 		.long	0x1ba
 998 0024 4450 7075 		.string	"DPpullEn"
 998      6C6C 456E 
 998      00
 999 002d E001 0000 		.long	0x1e0
 1000 0031 706F 7274 		.string	"portInit"
 1000      496E 6974 
 1000      00
 1001 003a F801 0000 		.long	0x1f8
 1002 003e 6368 6563 		.string	"checkInterface"
 1002      6B49 6E74 
 1002      6572 6661 
 1002      6365 00
 1003 004d 5702 0000 		.long	0x257
 1004 0051 6D61 696E 		.string	"main"
 1004      00
 1005 0056 6F02 0000 		.long	0x26f
 1006 005a 7573 626D 		.string	"usbmode"
 1006      6F64 6500 
 1007 0062 0000 0000 		.long	0x0
 1008               		.section	.debug_aranges,"",@progbits
 1009 0000 1C00 0000 		.long	0x1c
 1010 0004 0200      		.word	0x2
 1011 0006 0000 0000 		.long	.Ldebug_info0
 1012 000a 04        		.byte	0x4
 1013 000b 00        		.byte	0x0
 1014 000c 0000      		.word	0x0
GAS LISTING C:\Users\21030\AppData\Local\Temp/ccAQkdr0.s 			page 19


 1015 000e 0000      		.word	0x0
 1016 0010 0000 0000 		.long	.Ltext0
 1017 0014 E800 0000 		.long	.Letext0-.Ltext0
 1018 0018 0000 0000 		.long	0x0
 1019 001c 0000 0000 		.long	0x0
 1020               		.section	.debug_line
 1021 0000 7602 0000 		.long	.LELT0-.LSLT0
 1022               	.LSLT0:
 1023 0004 0200      		.word	0x2
 1024 0006 B800 0000 		.long	.LELTP0-.LASLTP0
 1025               	.LASLTP0:
 1026 000a 01        		.byte	0x1
 1027 000b 01        		.byte	0x1
 1028 000c F6        		.byte	0xf6
 1029 000d F5        		.byte	0xf5
 1030 000e 0A        		.byte	0xa
 1031 000f 00        		.byte	0x0
 1032 0010 01        		.byte	0x1
 1033 0011 01        		.byte	0x1
 1034 0012 01        		.byte	0x1
 1035 0013 01        		.byte	0x1
 1036 0014 00        		.byte	0x0
 1037 0015 00        		.byte	0x0
 1038 0016 00        		.byte	0x0
 1039 0017 01        		.byte	0x1
 1040 0018 633A 2F77 		.ascii	"c:/winavr-20100110/lib/gcc/../../avr/include"
 1040      696E 6176 
 1040      722D 3230 
 1040      3130 3031 
 1040      3130 2F6C 
 1041 0044 00        		.byte	0
 1042 0045 633A 2F77 		.ascii	"c:/winavr-20100110/lib/gcc/../../avr/include/util"
 1042      696E 6176 
 1042      722D 3230 
 1042      3130 3031 
 1042      3130 2F6C 
 1043 0076 00        		.byte	0
 1044 0077 6C65 64   		.ascii	"led"
 1045 007a 00        		.byte	0
 1046 007b 00        		.byte	0x0
 1047 007c 6D61 696E 		.string	"main.c"
 1047      2E63 00
 1048 0083 00        		.uleb128 0x0
 1049 0084 00        		.uleb128 0x0
 1050 0085 00        		.uleb128 0x0
 1051 0086 7574 696C 		.string	"util/delay_basic.h"
 1051      2F64 656C 
 1051      6179 5F62 
 1051      6173 6963 
 1051      2E68 00
 1052 0099 01        		.uleb128 0x1
 1053 009a 00        		.uleb128 0x0
 1054 009b 00        		.uleb128 0x0
 1055 009c 7374 6469 		.string	"stdint.h"
 1055      6E74 2E68 
 1055      00
 1056 00a5 01        		.uleb128 0x1
GAS LISTING C:\Users\21030\AppData\Local\Temp/ccAQkdr0.s 			page 20


 1057 00a6 00        		.uleb128 0x0
 1058 00a7 00        		.uleb128 0x0
 1059 00a8 7574 696C 		.string	"util/delay.h"
 1059      2F64 656C 
 1059      6179 2E68 
 1059      00
 1060 00b5 01        		.uleb128 0x1
 1061 00b6 00        		.uleb128 0x0
 1062 00b7 00        		.uleb128 0x0
 1063 00b8 6C65 642E 		.string	"led.h"
 1063      6800 
 1064 00be 03        		.uleb128 0x3
 1065 00bf 00        		.uleb128 0x0
 1066 00c0 00        		.uleb128 0x0
 1067 00c1 00        		.byte	0x0
 1068               	.LELTP0:
 1069 00c2 00        		.byte	0x0
 1070 00c3 05        		.uleb128 0x5
 1071 00c4 02        		.byte	0x2
 1072 00c5 0000 0000 		.long	.LM1
 1073 00c9 41        		.byte	0x41
 1074 00ca 00        		.byte	0x0
 1075 00cb 05        		.uleb128 0x5
 1076 00cc 02        		.byte	0x2
 1077 00cd 0000 0000 		.long	.LM2
 1078 00d1 15        		.byte	0x15
 1079 00d2 00        		.byte	0x0
 1080 00d3 05        		.uleb128 0x5
 1081 00d4 02        		.byte	0x2
 1082 00d5 0000 0000 		.long	.LM3
 1083 00d9 20        		.byte	0x20
 1084 00da 00        		.byte	0x0
 1085 00db 05        		.uleb128 0x5
 1086 00dc 02        		.byte	0x2
 1087 00dd 0000 0000 		.long	.LM4
 1088 00e1 15        		.byte	0x15
 1089 00e2 00        		.byte	0x0
 1090 00e3 05        		.uleb128 0x5
 1091 00e4 02        		.byte	0x2
 1092 00e5 0000 0000 		.long	.LM5
 1093 00e9 16        		.byte	0x16
 1094 00ea 00        		.byte	0x0
 1095 00eb 05        		.uleb128 0x5
 1096 00ec 02        		.byte	0x2
 1097 00ed 0000 0000 		.long	.LM6
 1098 00f1 15        		.byte	0x15
 1099 00f2 00        		.byte	0x0
 1100 00f3 05        		.uleb128 0x5
 1101 00f4 02        		.byte	0x2
 1102 00f5 0000 0000 		.long	.LM7
 1103 00f9 16        		.byte	0x16
 1104 00fa 00        		.byte	0x0
 1105 00fb 05        		.uleb128 0x5
 1106 00fc 02        		.byte	0x2
 1107 00fd 0000 0000 		.long	.LM8
 1108 0101 15        		.byte	0x15
 1109 0102 00        		.byte	0x0
GAS LISTING C:\Users\21030\AppData\Local\Temp/ccAQkdr0.s 			page 21


 1110 0103 05        		.uleb128 0x5
 1111 0104 02        		.byte	0x2
 1112 0105 0000 0000 		.long	.LM9
 1113 0109 18        		.byte	0x18
 1114 010a 00        		.byte	0x0
 1115 010b 05        		.uleb128 0x5
 1116 010c 02        		.byte	0x2
 1117 010d 0000 0000 		.long	.LM10
 1118 0111 15        		.byte	0x15
 1119 0112 00        		.byte	0x0
 1120 0113 05        		.uleb128 0x5
 1121 0114 02        		.byte	0x2
 1122 0115 0000 0000 		.long	.LM11
 1123 0119 16        		.byte	0x16
 1124 011a 00        		.byte	0x0
 1125 011b 05        		.uleb128 0x5
 1126 011c 02        		.byte	0x2
 1127 011d 0000 0000 		.long	.LM12
 1128 0121 15        		.byte	0x15
 1129 0122 00        		.byte	0x0
 1130 0123 05        		.uleb128 0x5
 1131 0124 02        		.byte	0x2
 1132 0125 0000 0000 		.long	.LM13
 1133 0129 1B        		.byte	0x1b
 1134 012a 00        		.byte	0x0
 1135 012b 05        		.uleb128 0x5
 1136 012c 02        		.byte	0x2
 1137 012d 0000 0000 		.long	.LM14
 1138 0131 3F        		.byte	0x3f
 1139 0132 00        		.byte	0x0
 1140 0133 05        		.uleb128 0x5
 1141 0134 02        		.byte	0x2
 1142 0135 0000 0000 		.long	.LM15
 1143 0139 15        		.byte	0x15
 1144 013a 00        		.byte	0x0
 1145 013b 05        		.uleb128 0x5
 1146 013c 02        		.byte	0x2
 1147 013d 0000 0000 		.long	.LM16
 1148 0141 15        		.byte	0x15
 1149 0142 00        		.byte	0x0
 1150 0143 05        		.uleb128 0x5
 1151 0144 02        		.byte	0x2
 1152 0145 0000 0000 		.long	.LM17
 1153 0149 16        		.byte	0x16
 1154 014a 00        		.byte	0x0
 1155 014b 05        		.uleb128 0x5
 1156 014c 02        		.byte	0x2
 1157 014d 0000 0000 		.long	.LM18
 1158 0151 15        		.byte	0x15
 1159 0152 00        		.byte	0x0
 1160 0153 05        		.uleb128 0x5
 1161 0154 02        		.byte	0x2
 1162 0155 0000 0000 		.long	.LM19
 1163 0159 15        		.byte	0x15
 1164 015a 00        		.byte	0x0
 1165 015b 05        		.uleb128 0x5
 1166 015c 02        		.byte	0x2
GAS LISTING C:\Users\21030\AppData\Local\Temp/ccAQkdr0.s 			page 22


 1167 015d 0000 0000 		.long	.LM20
 1168 0161 16        		.byte	0x16
 1169 0162 00        		.byte	0x0
 1170 0163 05        		.uleb128 0x5
 1171 0164 02        		.byte	0x2
 1172 0165 0000 0000 		.long	.LM21
 1173 0169 15        		.byte	0x15
 1174 016a 00        		.byte	0x0
 1175 016b 05        		.uleb128 0x5
 1176 016c 02        		.byte	0x2
 1177 016d 0000 0000 		.long	.LM22
 1178 0171 17        		.byte	0x17
 1179 0172 00        		.byte	0x0
 1180 0173 05        		.uleb128 0x5
 1181 0174 02        		.byte	0x2
 1182 0175 0000 0000 		.long	.LM23
 1183 0179 1B        		.byte	0x1b
 1184 017a 00        		.byte	0x0
 1185 017b 05        		.uleb128 0x5
 1186 017c 02        		.byte	0x2
 1187 017d 0000 0000 		.long	.LM24
 1188 0181 17        		.byte	0x17
 1189 0182 00        		.byte	0x0
 1190 0183 05        		.uleb128 0x5
 1191 0184 02        		.byte	0x2
 1192 0185 0000 0000 		.long	.LM25
 1193 0189 15        		.byte	0x15
 1194 018a 00        		.byte	0x0
 1195 018b 05        		.uleb128 0x5
 1196 018c 02        		.byte	0x2
 1197 018d 0000 0000 		.long	.LM26
 1198 0191 04        		.byte	0x4
 1199 0192 02        		.uleb128 0x2
 1200 0193 03        		.byte	0x3
 1201 0194 40        		.sleb128 -64
 1202 0195 01        		.byte	0x1
 1203 0196 00        		.byte	0x0
 1204 0197 05        		.uleb128 0x5
 1205 0198 02        		.byte	0x2
 1206 0199 0000 0000 		.long	.LM27
 1207 019d 04        		.byte	0x4
 1208 019e 01        		.uleb128 0x1
 1209 019f 58        		.byte	0x58
 1210 01a0 00        		.byte	0x0
 1211 01a1 05        		.uleb128 0x5
 1212 01a2 02        		.byte	0x2
 1213 01a3 0000 0000 		.long	.LM28
 1214 01a7 17        		.byte	0x17
 1215 01a8 00        		.byte	0x0
 1216 01a9 05        		.uleb128 0x5
 1217 01aa 02        		.byte	0x2
 1218 01ab 0000 0000 		.long	.LM29
 1219 01af 15        		.byte	0x15
 1220 01b0 00        		.byte	0x0
 1221 01b1 05        		.uleb128 0x5
 1222 01b2 02        		.byte	0x2
 1223 01b3 0000 0000 		.long	.LM30
GAS LISTING C:\Users\21030\AppData\Local\Temp/ccAQkdr0.s 			page 23


 1224 01b7 17        		.byte	0x17
 1225 01b8 00        		.byte	0x0
 1226 01b9 05        		.uleb128 0x5
 1227 01ba 02        		.byte	0x2
 1228 01bb 0000 0000 		.long	.LM31
 1229 01bf 17        		.byte	0x17
 1230 01c0 00        		.byte	0x0
 1231 01c1 05        		.uleb128 0x5
 1232 01c2 02        		.byte	0x2
 1233 01c3 0000 0000 		.long	.LM32
 1234 01c7 19        		.byte	0x19
 1235 01c8 00        		.byte	0x0
 1236 01c9 05        		.uleb128 0x5
 1237 01ca 02        		.byte	0x2
 1238 01cb 0000 0000 		.long	.LM33
 1239 01cf 18        		.byte	0x18
 1240 01d0 00        		.byte	0x0
 1241 01d1 05        		.uleb128 0x5
 1242 01d2 02        		.byte	0x2
 1243 01d3 0000 0000 		.long	.LM34
 1244 01d7 17        		.byte	0x17
 1245 01d8 00        		.byte	0x0
 1246 01d9 05        		.uleb128 0x5
 1247 01da 02        		.byte	0x2
 1248 01db 0000 0000 		.long	.LM35
 1249 01df 15        		.byte	0x15
 1250 01e0 00        		.byte	0x0
 1251 01e1 05        		.uleb128 0x5
 1252 01e2 02        		.byte	0x2
 1253 01e3 0000 0000 		.long	.LM36
 1254 01e7 15        		.byte	0x15
 1255 01e8 00        		.byte	0x0
 1256 01e9 05        		.uleb128 0x5
 1257 01ea 02        		.byte	0x2
 1258 01eb 0000 0000 		.long	.LM37
 1259 01ef 17        		.byte	0x17
 1260 01f0 00        		.byte	0x0
 1261 01f1 05        		.uleb128 0x5
 1262 01f2 02        		.byte	0x2
 1263 01f3 0000 0000 		.long	.LM38
 1264 01f7 15        		.byte	0x15
 1265 01f8 00        		.byte	0x0
 1266 01f9 05        		.uleb128 0x5
 1267 01fa 02        		.byte	0x2
 1268 01fb 0000 0000 		.long	.LM39
 1269 01ff 15        		.byte	0x15
 1270 0200 00        		.byte	0x0
 1271 0201 05        		.uleb128 0x5
 1272 0202 02        		.byte	0x2
 1273 0203 0000 0000 		.long	.LM40
 1274 0207 15        		.byte	0x15
 1275 0208 00        		.byte	0x0
 1276 0209 05        		.uleb128 0x5
 1277 020a 02        		.byte	0x2
 1278 020b 0000 0000 		.long	.LM41
 1279 020f 15        		.byte	0x15
 1280 0210 00        		.byte	0x0
GAS LISTING C:\Users\21030\AppData\Local\Temp/ccAQkdr0.s 			page 24


 1281 0211 05        		.uleb128 0x5
 1282 0212 02        		.byte	0x2
 1283 0213 0000 0000 		.long	.LM42
 1284 0217 18        		.byte	0x18
 1285 0218 00        		.byte	0x0
 1286 0219 05        		.uleb128 0x5
 1287 021a 02        		.byte	0x2
 1288 021b 0000 0000 		.long	.LM43
 1289 021f 16        		.byte	0x16
 1290 0220 00        		.byte	0x0
 1291 0221 05        		.uleb128 0x5
 1292 0222 02        		.byte	0x2
 1293 0223 0000 0000 		.long	.LM44
 1294 0227 16        		.byte	0x16
 1295 0228 00        		.byte	0x0
 1296 0229 05        		.uleb128 0x5
 1297 022a 02        		.byte	0x2
 1298 022b 0000 0000 		.long	.LM45
 1299 022f 15        		.byte	0x15
 1300 0230 00        		.byte	0x0
 1301 0231 05        		.uleb128 0x5
 1302 0232 02        		.byte	0x2
 1303 0233 0000 0000 		.long	.LM46
 1304 0237 15        		.byte	0x15
 1305 0238 00        		.byte	0x0
 1306 0239 05        		.uleb128 0x5
 1307 023a 02        		.byte	0x2
 1308 023b 0000 0000 		.long	.LM47
 1309 023f 16        		.byte	0x16
 1310 0240 00        		.byte	0x0
 1311 0241 05        		.uleb128 0x5
 1312 0242 02        		.byte	0x2
 1313 0243 0000 0000 		.long	.LM48
 1314 0247 15        		.byte	0x15
 1315 0248 00        		.byte	0x0
 1316 0249 05        		.uleb128 0x5
 1317 024a 02        		.byte	0x2
 1318 024b 0000 0000 		.long	.LM49
 1319 024f 19        		.byte	0x19
 1320 0250 00        		.byte	0x0
 1321 0251 05        		.uleb128 0x5
 1322 0252 02        		.byte	0x2
 1323 0253 0000 0000 		.long	.LM50
 1324 0257 18        		.byte	0x18
 1325 0258 00        		.byte	0x0
 1326 0259 05        		.uleb128 0x5
 1327 025a 02        		.byte	0x2
 1328 025b 0000 0000 		.long	.LM51
 1329 025f 15        		.byte	0x15
 1330 0260 00        		.byte	0x0
 1331 0261 05        		.uleb128 0x5
 1332 0262 02        		.byte	0x2
 1333 0263 0000 0000 		.long	.LM52
 1334 0267 15        		.byte	0x15
 1335 0268 00        		.byte	0x0
 1336 0269 05        		.uleb128 0x5
 1337 026a 02        		.byte	0x2
GAS LISTING C:\Users\21030\AppData\Local\Temp/ccAQkdr0.s 			page 25


 1338 026b 0000 0000 		.long	.LM53
 1339 026f 17        		.byte	0x17
 1340 0270 00        		.byte	0x0
 1341 0271 05        		.uleb128 0x5
 1342 0272 02        		.byte	0x2
 1343 0273 0000 0000 		.long	.Letext0
 1344 0277 00        		.byte	0x0
 1345 0278 01        		.uleb128 0x1
 1346 0279 01        		.byte	0x1
 1347               	.LELT0:
 1348 027a 1600 0000 		.section	.debug_str,"MS",@progbits,1
 1348      0200 1000 
 1348      0000 0101 
 1348      FB0E 0A00 
 1348      0101 0101 
 1349               	.LASF23:
 1350 0000 4C45 445F 		.string	"LED_PIN_VESEL"
 1350      5049 4E5F 
 1350      5645 5345 
 1350      4C00 
 1351               	.LASF40:
 1352 000e 656E 6162 		.string	"enable_printf"
 1352      6C65 5F70 
 1352      7269 6E74 
 1352      6600 
 1353               	.LASF2:
 1354 001c 7368 6F72 		.string	"short unsigned int"
 1354      7420 756E 
 1354      7369 676E 
 1354      6564 2069 
 1354      6E74 00
 1355               	.LASF42:
 1356 002f 656E 6162 		.string	"enable"
 1356      6C65 00
 1357               	.LASF10:
 1358 0036 696E 7438 		.string	"int8_t"
 1358      5F74 00
 1359               	.LASF41:
 1360 003d 4450 7075 		.string	"DPpullEn"
 1360      6C6C 456E 
 1360      00
 1361               	.LASF24:
 1362 0046 4C45 445F 		.string	"LED_PIN_ALL"
 1362      5049 4E5F 
 1362      414C 4C00 
 1363               	.LASF17:
 1364 0052 4C45 445F 		.string	"LED_PIN_ESC"
 1364      5049 4E5F 
 1364      4553 4300 
 1365               	.LASF0:
 1366 005e 756E 7369 		.string	"unsigned char"
 1366      676E 6564 
 1366      2063 6861 
 1366      7200 
 1367               	.LASF35:
 1368 006c 706F 7274 		.string	"portInit"
 1368      496E 6974 
GAS LISTING C:\Users\21030\AppData\Local\Temp/ccAQkdr0.s 			page 26


 1368      00
 1369               	.LASF32:
 1370 0075 5F64 656C 		.string	"_delay_loop_1"
 1370      6179 5F6C 
 1370      6F6F 705F 
 1370      3100 
 1371               	.LASF25:
 1372 0083 5F64 656C 		.string	"_delay_loop_2"
 1372      6179 5F6C 
 1372      6F6F 705F 
 1372      3200 
 1373               	.LASF4:
 1374 0091 6C6F 6E67 		.string	"long unsigned int"
 1374      2075 6E73 
 1374      6967 6E65 
 1374      6420 696E 
 1374      7400 
 1375               	.LASF26:
 1376 00a3 5F64 656C 		.string	"_delay_ms"
 1376      6179 5F6D 
 1376      7300 
 1377               	.LASF37:
 1378 00ad 474E 5520 		.string	"GNU C 4.3.3"
 1378      4320 342E 
 1378      332E 3300 
 1379               	.LASF22:
 1380 00b9 4C45 445F 		.string	"LED_PIN_ARROW18"
 1380      5049 4E5F 
 1380      4152 524F 
 1380      5731 3800 
 1381               	.LASF34:
 1382 00c9 5F5F 7573 		.string	"__us"
 1382      00
 1383               	.LASF13:
 1384 00ce 4C45 445F 		.string	"LED_PIN_NUMLOCK"
 1384      5049 4E5F 
 1384      4E55 4D4C 
 1384      4F43 4B00 
 1385               	.LASF31:
 1386 00de 646F 7562 		.string	"double"
 1386      6C65 00
 1387               	.LASF44:
 1388 00e5 6375 725F 		.string	"cur_usbmode"
 1388      7573 626D 
 1388      6F64 6500 
 1389               	.LASF30:
 1390 00f1 5F5F 746D 		.string	"__tmp"
 1390      7000 
 1391               	.LASF36:
 1392 00f7 6D61 696E 		.string	"main"
 1392      00
 1393               	.LASF39:
 1394 00fc 433A 5C55 		.string	"C:\\Users\\21030\\Documents\\GitHub\\mx1830\\source"
 1394      7365 7273 
 1394      5C32 3130 
 1394      3330 5C44 
 1394      6F63 756D 
GAS LISTING C:\Users\21030\AppData\Local\Temp/ccAQkdr0.s 			page 27


 1395               	.LASF8:
 1396 012a 756E 7369 		.string	"unsigned int"
 1396      676E 6564 
 1396      2069 6E74 
 1396      00
 1397               	.LASF21:
 1398 0137 4C45 445F 		.string	"LED_PIN_WASD"
 1398      5049 4E5F 
 1398      5741 5344 
 1398      00
 1399               	.LASF33:
 1400 0144 5F64 656C 		.string	"_delay_us"
 1400      6179 5F75 
 1400      7300 
 1401               	.LASF6:
 1402 014e 6C6F 6E67 		.string	"long long unsigned int"
 1402      206C 6F6E 
 1402      6720 756E 
 1402      7369 676E 
 1402      6564 2069 
 1403               	.LASF11:
 1404 0165 7569 6E74 		.string	"uint8_t"
 1404      385F 7400 
 1405               	.LASF19:
 1406 016d 4C45 445F 		.string	"LED_PIN_PAD"
 1406      5049 4E5F 
 1406      5041 4400 
 1407               	.LASF18:
 1408 0179 4C45 445F 		.string	"LED_PIN_Fx"
 1408      5049 4E5F 
 1408      4678 00
 1409               	.LASF43:
 1410 0184 6368 6563 		.string	"checkInterface"
 1410      6B49 6E74 
 1410      6572 6661 
 1410      6365 00
 1411               	.LASF7:
 1412 0193 6C6F 6E67 		.string	"long long int"
 1412      206C 6F6E 
 1412      6720 696E 
 1412      7400 
 1413               	.LASF38:
 1414 01a1 6D61 696E 		.string	"main.c"
 1414      2E63 00
 1415               	.LASF9:
 1416 01a8 6368 6172 		.string	"char"
 1416      00
 1417               	.LASF27:
 1418 01ad 5F5F 636F 		.string	"__count"
 1418      756E 7400 
 1419               	.LASF3:
 1420 01b5 7368 6F72 		.string	"short int"
 1420      7420 696E 
 1420      7400 
 1421               	.LASF12:
 1422 01bf 7569 6E74 		.string	"uint16_t"
 1422      3136 5F74 
GAS LISTING C:\Users\21030\AppData\Local\Temp/ccAQkdr0.s 			page 28


 1422      00
 1423               	.LASF29:
 1424 01c8 5F5F 7469 		.string	"__ticks"
 1424      636B 7300 
 1425               	.LASF5:
 1426 01d0 6C6F 6E67 		.string	"long int"
 1426      2069 6E74 
 1426      00
 1427               	.LASF16:
 1428 01d9 4C45 445F 		.string	"LED_PIN_PRT"
 1428      5049 4E5F 
 1428      5052 5400 
 1429               	.LASF1:
 1430 01e5 7369 676E 		.string	"signed char"
 1430      6564 2063 
 1430      6861 7200 
 1431               	.LASF45:
 1432 01f1 7573 626D 		.string	"usbmode"
 1432      6F64 6500 
 1433               	.LASF15:
 1434 01f9 4C45 445F 		.string	"LED_PIN_SCROLLOCK"
 1434      5049 4E5F 
 1434      5343 524F 
 1434      4C4C 4F43 
 1434      4B00 
 1435               	.LASF14:
 1436 020b 4C45 445F 		.string	"LED_PIN_CAPSLOCK"
 1436      5049 4E5F 
 1436      4341 5053 
 1436      4C4F 434B 
 1436      00
 1437               	.LASF28:
 1438 021c 5F5F 6D73 		.string	"__ms"
 1438      00
 1439               	.LASF20:
 1440 0221 4C45 445F 		.string	"LED_PIN_BASE"
 1440      5049 4E5F 
 1440      4241 5345 
 1440      00
 1441               	.global __do_clear_bss
GAS LISTING C:\Users\21030\AppData\Local\Temp/ccAQkdr0.s 			page 29


DEFINED SYMBOLS
                            *ABS*:00000000 main.c
C:\Users\21030\AppData\Local\Temp/ccAQkdr0.s:2      *ABS*:0000003f __SREG__
C:\Users\21030\AppData\Local\Temp/ccAQkdr0.s:3      *ABS*:0000003e __SP_H__
C:\Users\21030\AppData\Local\Temp/ccAQkdr0.s:4      *ABS*:0000003d __SP_L__
C:\Users\21030\AppData\Local\Temp/ccAQkdr0.s:5      *ABS*:00000034 __CCP__
C:\Users\21030\AppData\Local\Temp/ccAQkdr0.s:6      *ABS*:00000000 __tmp_reg__
C:\Users\21030\AppData\Local\Temp/ccAQkdr0.s:7      *ABS*:00000001 __zero_reg__
C:\Users\21030\AppData\Local\Temp/ccAQkdr0.s:18     .text:00000000 enable_printf
C:\Users\21030\AppData\Local\Temp/ccAQkdr0.s:30     .text:00000002 DPpullEn
C:\Users\21030\AppData\Local\Temp/ccAQkdr0.s:62     .text:0000001a portInit
C:\Users\21030\AppData\Local\Temp/ccAQkdr0.s:95     .text:00000036 checkInterface
C:\Users\21030\AppData\Local\Temp/ccAQkdr0.s:165    .text:00000072 main
                            *COM*:00000001 usbmode

UNDEFINED SYMBOLS
__eewr_byte_m32
__eerd_byte_m32
timerInit
timer1PWMInit
timer2PWMInit
keymap_init
initMacroAddr
led_check
led_off
led_mode_init
usbmain
led_on
ps2main
__do_clear_bss
