GAS LISTING C:\Users\21030\AppData\Local\Temp/ccjZa2Dn.s 			page 1


   1               		.file	"timer.c"
   2               	__SREG__ = 0x3f
   3               	__SP_H__ = 0x3e
   4               	__SP_L__ = 0x3d
   5               	__CCP__  = 0x34
   6               	__tmp_reg__ = 0
   7               	__zero_reg__ = 1
   8               		.section	.debug_abbrev,"",@progbits
   9               	.Ldebug_abbrev0:
  10               		.section	.debug_info,"",@progbits
  11               	.Ldebug_info0:
  12               		.section	.debug_line,"",@progbits
  13               	.Ldebug_line0:
  14               		.text
  15               	.Ltext0:
  16               	.global	delay_us
  17               		.type	delay_us, @function
  18               	delay_us:
  19               	.LFB2:
  20               	.LM1:
  21               	.LVL0:
  22               	/* prologue: function */
  23               	/* frame size = 0 */
  24               	/* epilogue start */
  25               	.LM2:
  26 0000 0895      		ret
  27               	.LFE2:
  28               		.size	delay_us, .-delay_us
  29               	.global	timerInit
  30               		.type	timerInit, @function
  31               	timerInit:
  32               	.LFB3:
  33               	.LM3:
  34               	/* prologue: function */
  35               	/* frame size = 0 */
  36               	.LM4:
  37 0002 80E0      		ldi r24,lo8(0)
  38 0004 90E0      		ldi r25,hi8(0)
  39               	.L4:
  40               	.LBB37:
  41               	.LBB38:
  42               	.LM5:
  43 0006 FC01      		movw r30,r24
  44 0008 EE0F      		lsl r30
  45 000a FF1F      		rol r31
  46 000c E050      		subi r30,lo8(-(TimerIntFunc))
  47 000e F040      		sbci r31,hi8(-(TimerIntFunc))
  48 0010 1182      		std Z+1,__zero_reg__
  49 0012 1082      		st Z,__zero_reg__
  50 0014 0196      		adiw r24,1
  51               	.LBE38:
  52               	.LBE37:
  53               	.LM6:
  54 0016 8830      		cpi r24,8
  55 0018 9105      		cpc r25,__zero_reg__
  56 001a 01F4      		brne .L4
  57               	.LBB39:
GAS LISTING C:\Users\21030\AppData\Local\Temp/ccjZa2Dn.s 			page 2


  58               	.LBB40:
  59               	.LBB41:
  60               	.LBB42:
  61               	.LM7:
  62 001c 83B7      		in r24,83-32
  63 001e 887F      		andi r24,lo8(-8)
  64 0020 8460      		ori r24,lo8(4)
  65 0022 83BF      		out 83-32,r24
  66               	.LBE42:
  67               	.LBE41:
  68               	.LM8:
  69 0024 12BE      		out 82-32,__zero_reg__
  70               	.LBB43:
  71               	.LBB44:
  72               	.LM9:
  73 0026 1092 0000 		sts Timer0Reg0,__zero_reg__
  74 002a 1092 0000 		sts (Timer0Reg0)+1,__zero_reg__
  75 002e 1092 0000 		sts (Timer0Reg0)+2,__zero_reg__
  76 0032 1092 0000 		sts (Timer0Reg0)+3,__zero_reg__
  77               	.LBE44:
  78               	.LBE43:
  79               	.LBE40:
  80               	.LBE39:
  81               	.LBB45:
  82               	.LBB46:
  83               	.LBB47:
  84               	.LBB48:
  85               	.LM10:
  86 0036 8EB5      		in r24,78-32
  87 0038 887F      		andi r24,lo8(-8)
  88 003a 8460      		ori r24,lo8(4)
  89 003c 8EBD      		out 78-32,r24
  90               	.LBE48:
  91               	.LBE47:
  92               	.LM11:
  93 003e 1DBC      		out 77-32,__zero_reg__
  94               	.LM12:
  95 0040 1CBC      		out 76-32,__zero_reg__
  96               	.LBE46:
  97               	.LBE45:
  98               	.LBB49:
  99               	.LBB50:
 100               	.LBB51:
 101               	.LBB52:
 102               	.LM13:
 103 0042 85B5      		in r24,69-32
 104 0044 887F      		andi r24,lo8(-8)
 105 0046 8460      		ori r24,lo8(4)
 106 0048 85BD      		out 69-32,r24
 107               	.LBE52:
 108               	.LBE51:
 109               	.LM14:
 110 004a 14BC      		out 68-32,__zero_reg__
 111               	.LBB53:
 112               	.LBB54:
 113               	.LM15:
 114 004c 1092 0000 		sts Timer2Reg0,__zero_reg__
GAS LISTING C:\Users\21030\AppData\Local\Temp/ccjZa2Dn.s 			page 3


 115 0050 1092 0000 		sts (Timer2Reg0)+1,__zero_reg__
 116 0054 1092 0000 		sts (Timer2Reg0)+2,__zero_reg__
 117 0058 1092 0000 		sts (Timer2Reg0)+3,__zero_reg__
 118               	.LBE54:
 119               	.LBE53:
 120               	.LBE50:
 121               	.LBE49:
 122               	.LM16:
 123               	/* #APP */
 124               	 ;  90 "../avrlib/timer.c" 1
 125 005c 7894      		sei
 126               	 ;  0 "" 2
 127               	/* epilogue start */
 128               	.LM17:
 129               	/* #NOAPP */
 130 005e 0895      		ret
 131               	.LFE3:
 132               		.size	timerInit, .-timerInit
 133               	.global	timer0Init
 134               		.type	timer0Init, @function
 135               	timer0Init:
 136               	.LFB4:
 137               	.LM18:
 138               	/* prologue: function */
 139               	/* frame size = 0 */
 140               	.LBB55:
 141               	.LBB56:
 142               	.LM19:
 143 0060 83B7      		in r24,83-32
 144 0062 887F      		andi r24,lo8(-8)
 145 0064 8460      		ori r24,lo8(4)
 146 0066 83BF      		out 83-32,r24
 147               	.LBE56:
 148               	.LBE55:
 149               	.LM20:
 150 0068 12BE      		out 82-32,__zero_reg__
 151               	.LBB57:
 152               	.LBB58:
 153               	.LM21:
 154 006a 1092 0000 		sts Timer0Reg0,__zero_reg__
 155 006e 1092 0000 		sts (Timer0Reg0)+1,__zero_reg__
 156 0072 1092 0000 		sts (Timer0Reg0)+2,__zero_reg__
 157 0076 1092 0000 		sts (Timer0Reg0)+3,__zero_reg__
 158               	/* epilogue start */
 159               	.LBE58:
 160               	.LBE57:
 161               	.LM22:
 162 007a 0895      		ret
 163               	.LFE4:
 164               		.size	timer0Init, .-timer0Init
 165               	.global	timer1Init
 166               		.type	timer1Init, @function
 167               	timer1Init:
 168               	.LFB5:
 169               	.LM23:
 170               	/* prologue: function */
 171               	/* frame size = 0 */
GAS LISTING C:\Users\21030\AppData\Local\Temp/ccjZa2Dn.s 			page 4


 172               	.LBB59:
 173               	.LBB60:
 174               	.LM24:
 175 007c 8EB5      		in r24,78-32
 176 007e 887F      		andi r24,lo8(-8)
 177 0080 8460      		ori r24,lo8(4)
 178 0082 8EBD      		out 78-32,r24
 179               	.LBE60:
 180               	.LBE59:
 181               	.LM25:
 182 0084 1DBC      		out 77-32,__zero_reg__
 183               	.LM26:
 184 0086 1CBC      		out 76-32,__zero_reg__
 185               	/* epilogue start */
 186               	.LM27:
 187 0088 0895      		ret
 188               	.LFE5:
 189               		.size	timer1Init, .-timer1Init
 190               	.global	timer2Init
 191               		.type	timer2Init, @function
 192               	timer2Init:
 193               	.LFB6:
 194               	.LM28:
 195               	/* prologue: function */
 196               	/* frame size = 0 */
 197               	.LBB61:
 198               	.LBB62:
 199               	.LM29:
 200 008a 85B5      		in r24,69-32
 201 008c 887F      		andi r24,lo8(-8)
 202 008e 8460      		ori r24,lo8(4)
 203 0090 85BD      		out 69-32,r24
 204               	.LBE62:
 205               	.LBE61:
 206               	.LM30:
 207 0092 14BC      		out 68-32,__zero_reg__
 208               	.LBB63:
 209               	.LBB64:
 210               	.LM31:
 211 0094 1092 0000 		sts Timer2Reg0,__zero_reg__
 212 0098 1092 0000 		sts (Timer2Reg0)+1,__zero_reg__
 213 009c 1092 0000 		sts (Timer2Reg0)+2,__zero_reg__
 214 00a0 1092 0000 		sts (Timer2Reg0)+3,__zero_reg__
 215               	/* epilogue start */
 216               	.LBE64:
 217               	.LBE63:
 218               	.LM32:
 219 00a4 0895      		ret
 220               	.LFE6:
 221               		.size	timer2Init, .-timer2Init
 222               	.global	timer2IntEnable
 223               		.type	timer2IntEnable, @function
 224               	timer2IntEnable:
 225               	.LFB7:
 226               	.LM33:
 227               	/* prologue: function */
 228               	/* frame size = 0 */
GAS LISTING C:\Users\21030\AppData\Local\Temp/ccjZa2Dn.s 			page 5


 229               	.LM34:
 230 00a6 89B7      		in r24,89-32
 231 00a8 8064      		ori r24,lo8(64)
 232 00aa 89BF      		out 89-32,r24
 233               	/* epilogue start */
 234               	.LM35:
 235 00ac 0895      		ret
 236               	.LFE7:
 237               		.size	timer2IntEnable, .-timer2IntEnable
 238               	.global	timer0SetPrescaler
 239               		.type	timer0SetPrescaler, @function
 240               	timer0SetPrescaler:
 241               	.LFB8:
 242               	.LM36:
 243               	.LVL1:
 244               	/* prologue: function */
 245               	/* frame size = 0 */
 246               	.LM37:
 247 00ae 93B7      		in r25,83-32
 248 00b0 987F      		andi r25,lo8(-8)
 249 00b2 982B      		or r25,r24
 250 00b4 93BF      		out 83-32,r25
 251               	/* epilogue start */
 252               	.LM38:
 253 00b6 0895      		ret
 254               	.LFE8:
 255               		.size	timer0SetPrescaler, .-timer0SetPrescaler
 256               	.global	timer1SetPrescaler
 257               		.type	timer1SetPrescaler, @function
 258               	timer1SetPrescaler:
 259               	.LFB9:
 260               	.LM39:
 261               	.LVL2:
 262               	/* prologue: function */
 263               	/* frame size = 0 */
 264               	.LM40:
 265 00b8 9EB5      		in r25,78-32
 266 00ba 987F      		andi r25,lo8(-8)
 267 00bc 982B      		or r25,r24
 268 00be 9EBD      		out 78-32,r25
 269               	/* epilogue start */
 270               	.LM41:
 271 00c0 0895      		ret
 272               	.LFE9:
 273               		.size	timer1SetPrescaler, .-timer1SetPrescaler
 274               	.global	timer2SetPrescaler
 275               		.type	timer2SetPrescaler, @function
 276               	timer2SetPrescaler:
 277               	.LFB10:
 278               	.LM42:
 279               	.LVL3:
 280               	/* prologue: function */
 281               	/* frame size = 0 */
 282               	.LM43:
 283 00c2 95B5      		in r25,69-32
 284 00c4 987F      		andi r25,lo8(-8)
 285 00c6 982B      		or r25,r24
GAS LISTING C:\Users\21030\AppData\Local\Temp/ccjZa2Dn.s 			page 6


 286 00c8 95BD      		out 69-32,r25
 287               	/* epilogue start */
 288               	.LM44:
 289 00ca 0895      		ret
 290               	.LFE10:
 291               		.size	timer2SetPrescaler, .-timer2SetPrescaler
 292               	.global	timer0GetPrescaler
 293               		.type	timer0GetPrescaler, @function
 294               	timer0GetPrescaler:
 295               	.LFB11:
 296               	.LM45:
 297               	/* prologue: function */
 298               	/* frame size = 0 */
 299               	.LBB65:
 300               	.LM46:
 301 00cc 83B7      		in r24,83-32
 302 00ce E82F      		mov r30,r24
 303               	.LVL4:
 304 00d0 F0E0      		ldi r31,lo8(0)
 305               	.LVL5:
 306 00d2 E770      		andi r30,lo8(7)
 307 00d4 F070      		andi r31,hi8(7)
 308               	.LVL6:
 309 00d6 EE0F      		lsl r30
 310 00d8 FF1F      		rol r31
 311 00da E050      		subi r30,lo8(-(TimerPrescaleFactor))
 312 00dc F040      		sbci r31,hi8(-(TimerPrescaleFactor))
 313               	/* #APP */
 314               	 ;  154 "../avrlib/timer.c" 1
 315 00de 2591      		lpm r18, Z+
 316 00e0 3491      		lpm r19, Z
 317               		
 318               	 ;  0 "" 2
 319               	.LVL7:
 320               	/* #NOAPP */
 321               	.LBE65:
 322               	.LM47:
 323 00e2 C901      		movw r24,r18
 324               	.LVL8:
 325               	/* epilogue start */
 326 00e4 0895      		ret
 327               	.LFE11:
 328               		.size	timer0GetPrescaler, .-timer0GetPrescaler
 329               	.global	timer1GetPrescaler
 330               		.type	timer1GetPrescaler, @function
 331               	timer1GetPrescaler:
 332               	.LFB12:
 333               	.LM48:
 334               	/* prologue: function */
 335               	/* frame size = 0 */
 336               	.LBB66:
 337               	.LM49:
 338 00e6 8EB5      		in r24,78-32
 339 00e8 E82F      		mov r30,r24
 340               	.LVL9:
 341 00ea F0E0      		ldi r31,lo8(0)
 342               	.LVL10:
GAS LISTING C:\Users\21030\AppData\Local\Temp/ccjZa2Dn.s 			page 7


 343 00ec E770      		andi r30,lo8(7)
 344 00ee F070      		andi r31,hi8(7)
 345               	.LVL11:
 346 00f0 EE0F      		lsl r30
 347 00f2 FF1F      		rol r31
 348 00f4 E050      		subi r30,lo8(-(TimerPrescaleFactor))
 349 00f6 F040      		sbci r31,hi8(-(TimerPrescaleFactor))
 350               	/* #APP */
 351               	 ;  160 "../avrlib/timer.c" 1
 352 00f8 2591      		lpm r18, Z+
 353 00fa 3491      		lpm r19, Z
 354               		
 355               	 ;  0 "" 2
 356               	.LVL12:
 357               	/* #NOAPP */
 358               	.LBE66:
 359               	.LM50:
 360 00fc C901      		movw r24,r18
 361               	.LVL13:
 362               	/* epilogue start */
 363 00fe 0895      		ret
 364               	.LFE12:
 365               		.size	timer1GetPrescaler, .-timer1GetPrescaler
 366               	.global	timer2GetPrescaler
 367               		.type	timer2GetPrescaler, @function
 368               	timer2GetPrescaler:
 369               	.LFB13:
 370               	.LM51:
 371               	/* prologue: function */
 372               	/* frame size = 0 */
 373               	.LBB67:
 374               	.LM52:
 375 0100 85B5      		in r24,69-32
 376 0102 E82F      		mov r30,r24
 377               	.LVL14:
 378 0104 F0E0      		ldi r31,lo8(0)
 379               	.LVL15:
 380 0106 E770      		andi r30,lo8(7)
 381 0108 F070      		andi r31,hi8(7)
 382               	.LVL16:
 383 010a EE0F      		lsl r30
 384 010c FF1F      		rol r31
 385 010e E050      		subi r30,lo8(-(TimerRTCPrescaleFactor))
 386 0110 F040      		sbci r31,hi8(-(TimerRTCPrescaleFactor))
 387               	/* #APP */
 388               	 ;  170 "../avrlib/timer.c" 1
 389 0112 2591      		lpm r18, Z+
 390 0114 3491      		lpm r19, Z
 391               		
 392               	 ;  0 "" 2
 393               	.LVL17:
 394               	/* #NOAPP */
 395               	.LBE67:
 396               	.LM53:
 397 0116 C901      		movw r24,r18
 398               	.LVL18:
 399               	/* epilogue start */
GAS LISTING C:\Users\21030\AppData\Local\Temp/ccjZa2Dn.s 			page 8


 400 0118 0895      		ret
 401               	.LFE13:
 402               		.size	timer2GetPrescaler, .-timer2GetPrescaler
 403               	.global	timerAttach
 404               		.type	timerAttach, @function
 405               	timerAttach:
 406               	.LFB14:
 407               	.LM54:
 408               	.LVL19:
 409               	/* prologue: function */
 410               	/* frame size = 0 */
 411               	.LM55:
 412 011a 8830      		cpi r24,lo8(8)
 413 011c 00F4      		brsh .L29
 414               	.LM56:
 415 011e E82F      		mov r30,r24
 416 0120 F0E0      		ldi r31,lo8(0)
 417 0122 EE0F      		lsl r30
 418 0124 FF1F      		rol r31
 419 0126 E050      		subi r30,lo8(-(TimerIntFunc))
 420 0128 F040      		sbci r31,hi8(-(TimerIntFunc))
 421 012a 7183      		std Z+1,r23
 422 012c 6083      		st Z,r22
 423               	.L29:
 424 012e 0895      		ret
 425               	.LFE14:
 426               		.size	timerAttach, .-timerAttach
 427               	.global	timerDetach
 428               		.type	timerDetach, @function
 429               	timerDetach:
 430               	.LFB15:
 431               	.LM57:
 432               	.LVL20:
 433               	/* prologue: function */
 434               	/* frame size = 0 */
 435               	.LM58:
 436 0130 8830      		cpi r24,lo8(8)
 437 0132 00F4      		brsh .L32
 438               	.LM59:
 439 0134 E82F      		mov r30,r24
 440 0136 F0E0      		ldi r31,lo8(0)
 441 0138 EE0F      		lsl r30
 442 013a FF1F      		rol r31
 443 013c E050      		subi r30,lo8(-(TimerIntFunc))
 444 013e F040      		sbci r31,hi8(-(TimerIntFunc))
 445 0140 1182      		std Z+1,__zero_reg__
 446 0142 1082      		st Z,__zero_reg__
 447               	.L32:
 448 0144 0895      		ret
 449               	.LFE15:
 450               		.size	timerDetach, .-timerDetach
 451               	.global	timerPause
 452               		.type	timerPause, @function
 453               	timerPause:
 454               	.LFB16:
 455               	.LM60:
 456               	.LVL21:
GAS LISTING C:\Users\21030\AppData\Local\Temp/ccjZa2Dn.s 			page 9


 457 0146 EF92      		push r14
 458 0148 FF92      		push r15
 459 014a 0F93      		push r16
 460 014c 1F93      		push r17
 461 014e CF93      		push r28
 462 0150 DF93      		push r29
 463               	/* prologue: function */
 464               	/* frame size = 0 */
 465 0152 EC01      		movw r28,r24
 466               	.LM61:
 467 0154 12B7      		in r17,82-32
 468               	.LVL22:
 469               	.LM62:
 470 0156 1092 0000 		sts TimerPauseReg,__zero_reg__
 471 015a 1092 0000 		sts (TimerPauseReg)+1,__zero_reg__
 472 015e 1092 0000 		sts (TimerPauseReg)+2,__zero_reg__
 473 0162 1092 0000 		sts (TimerPauseReg)+3,__zero_reg__
 474               	.LBB68:
 475               	.LBB69:
 476               	.LBB70:
 477               	.LM63:
 478 0166 83B7      		in r24,83-32
 479               	.LVL23:
 480 0168 E82F      		mov r30,r24
 481               	.LVL24:
 482 016a F0E0      		ldi r31,lo8(0)
 483               	.LVL25:
 484 016c E770      		andi r30,lo8(7)
 485 016e F070      		andi r31,hi8(7)
 486               	.LVL26:
 487 0170 EE0F      		lsl r30
 488 0172 FF1F      		rol r31
 489 0174 E050      		subi r30,lo8(-(TimerPrescaleFactor))
 490 0176 F040      		sbci r31,hi8(-(TimerPrescaleFactor))
 491               	/* #APP */
 492               	 ;  154 "../avrlib/timer.c" 1
 493 0178 2591      		lpm r18, Z+
 494 017a 3491      		lpm r19, Z
 495               		
 496               	 ;  0 "" 2
 497               	.LVL27:
 498               	/* #NOAPP */
 499               	.LBE70:
 500               	.LBE69:
 501               	.LBE68:
 502               	.LM64:
 503 017c 40E0      		ldi r20,lo8(0)
 504 017e 50E0      		ldi r21,hi8(0)
 505               	.LVL28:
 506 0180 60E0      		ldi r22,lo8(12000000)
 507 0182 7BE1      		ldi r23,hi8(12000000)
 508 0184 87EB      		ldi r24,hlo8(12000000)
 509 0186 90E0      		ldi r25,hhi8(12000000)
 510 0188 0E94 0000 		call __udivmodsi4
 511               	.LVL29:
 512 018c B901      		movw r22,r18
 513 018e CA01      		movw r24,r20
GAS LISTING C:\Users\21030\AppData\Local\Temp/ccjZa2Dn.s 			page 10


 514               	.LVL30:
 515               	.LM65:
 516 0190 693B      		cpi r22,lo8(429497)
 517 0192 2DE8      		ldi r18,hi8(429497)
 518 0194 7207      		cpc r23,r18
 519 0196 26E0      		ldi r18,hlo8(429497)
 520 0198 8207      		cpc r24,r18
 521 019a 20E0      		ldi r18,hhi8(429497)
 522 019c 9207      		cpc r25,r18
 523               	.LVL31:
 524 019e 00F4      		brsh .L34
 525 01a0 37E2      		ldi r19,hi8(10001)
 526 01a2 C131      		cpi r28,lo8(10001)
 527 01a4 D307      		cpc r29,r19
 528 01a6 00F4      		brsh .L34
 529               	.LM66:
 530 01a8 9E01      		movw r18,r28
 531 01aa 40E0      		ldi r20,lo8(0)
 532 01ac 50E0      		ldi r21,hi8(0)
 533               	.LVL32:
 534 01ae 0E94 0000 		call __mulsi3
 535               	.LVL33:
 536 01b2 28EE      		ldi r18,lo8(1000)
 537 01b4 33E0      		ldi r19,hi8(1000)
 538 01b6 40E0      		ldi r20,hlo8(1000)
 539 01b8 50E0      		ldi r21,hhi8(1000)
 540 01ba 0E94 0000 		call __udivmodsi4
 541 01be C901      		movw r24,r18
 542 01c0 DA01      		movw r26,r20
 543               	.LVL34:
 544 01c2 BC01      		movw r22,r24
 545 01c4 CD01      		movw r24,r26
 546               	.LVL35:
 547 01c6 00C0      		rjmp .L35
 548               	.LVL36:
 549               	.L34:
 550               	.LM67:
 551 01c8 28EE      		ldi r18,lo8(1000)
 552 01ca 33E0      		ldi r19,hi8(1000)
 553 01cc 40E0      		ldi r20,hlo8(1000)
 554 01ce 50E0      		ldi r21,hhi8(1000)
 555 01d0 0E94 0000 		call __udivmodsi4
 556               	.LVL37:
 557 01d4 CA01      		movw r24,r20
 558 01d6 B901      		movw r22,r18
 559 01d8 9E01      		movw r18,r28
 560 01da 40E0      		ldi r20,lo8(0)
 561 01dc 50E0      		ldi r21,hi8(0)
 562               	.LVL38:
 563 01de 0E94 0000 		call __mulsi3
 564 01e2 00C0      		rjmp .L35
 565               	.L36:
 566               	.LM68:
 567 01e4 8091 0000 		lds r24,TimerPauseReg
 568 01e8 9091 0000 		lds r25,(TimerPauseReg)+1
 569 01ec A091 0000 		lds r26,(TimerPauseReg)+2
 570 01f0 B091 0000 		lds r27,(TimerPauseReg)+3
GAS LISTING C:\Users\21030\AppData\Local\Temp/ccjZa2Dn.s 			page 11


 571               	.LM69:
 572 01f4 85B7      		in r24,85-32
 573 01f6 8F78      		andi r24,lo8(-113)
 574 01f8 85BF      		out 85-32,r24
 575               	.LM70:
 576 01fa 85B7      		in r24,85-32
 577 01fc 8068      		ori r24,lo8(-128)
 578 01fe 85BF      		out 85-32,r24
 579               	/* #APP */
 580               	 ;  240 "../avrlib/timer.c" 1
 581 0200 8895      		sleep
 582               		
 583               	 ;  0 "" 2
 584               	/* #NOAPP */
 585 0202 85B7      		in r24,85-32
 586 0204 8F77      		andi r24,lo8(127)
 587 0206 85BF      		out 85-32,r24
 588 0208 00C0      		rjmp .L38
 589               	.LVL39:
 590               	.L35:
 591               	.LM71:
 592 020a 9B01      		movw r18,r22
 593 020c AC01      		movw r20,r24
 594 020e 210F      		add r18,r17
 595 0210 311D      		adc r19,__zero_reg__
 596 0212 411D      		adc r20,__zero_reg__
 597 0214 511D      		adc r21,__zero_reg__
 598 0216 7901      		movw r14,r18
 599 0218 8A01      		movw r16,r20
 600               	.L38:
 601 021a 2091 0000 		lds r18,TimerPauseReg
 602 021e 3091 0000 		lds r19,(TimerPauseReg)+1
 603 0222 4091 0000 		lds r20,(TimerPauseReg)+2
 604 0226 5091 0000 		lds r21,(TimerPauseReg)+3
 605 022a 82B7      		in r24,82-32
 606 022c 90E0      		ldi r25,lo8(0)
 607 022e A0E0      		ldi r26,lo8(0)
 608 0230 B0E0      		ldi r27,hi8(0)
 609 0232 542F      		mov r21,r20
 610 0234 432F      		mov r20,r19
 611 0236 322F      		mov r19,r18
 612 0238 2227      		clr r18
 613               	.LVL40:
 614 023a 822B      		or r24,r18
 615 023c 932B      		or r25,r19
 616 023e A42B      		or r26,r20
 617 0240 B52B      		or r27,r21
 618 0242 8E15      		cp r24,r14
 619 0244 9F05      		cpc r25,r15
 620 0246 A007      		cpc r26,r16
 621 0248 B107      		cpc r27,r17
 622 024a 00F0      		brlo .L36
 623               	/* epilogue start */
 624               	.LM72:
 625 024c DF91      		pop r29
 626 024e CF91      		pop r28
 627               	.LVL41:
GAS LISTING C:\Users\21030\AppData\Local\Temp/ccjZa2Dn.s 			page 12


 628 0250 1F91      		pop r17
 629               	.LVL42:
 630 0252 0F91      		pop r16
 631 0254 FF90      		pop r15
 632 0256 EF90      		pop r14
 633 0258 0895      		ret
 634               	.LFE16:
 635               		.size	timerPause, .-timerPause
 636               	.global	timer0ClearOverflowCount
 637               		.type	timer0ClearOverflowCount, @function
 638               	timer0ClearOverflowCount:
 639               	.LFB17:
 640               	.LM73:
 641               	/* prologue: function */
 642               	/* frame size = 0 */
 643               	.LM74:
 644 025a 1092 0000 		sts Timer0Reg0,__zero_reg__
 645 025e 1092 0000 		sts (Timer0Reg0)+1,__zero_reg__
 646 0262 1092 0000 		sts (Timer0Reg0)+2,__zero_reg__
 647 0266 1092 0000 		sts (Timer0Reg0)+3,__zero_reg__
 648               	/* epilogue start */
 649               	.LM75:
 650 026a 0895      		ret
 651               	.LFE17:
 652               		.size	timer0ClearOverflowCount, .-timer0ClearOverflowCount
 653               	.global	timer0GetOverflowCount
 654               		.type	timer0GetOverflowCount, @function
 655               	timer0GetOverflowCount:
 656               	.LFB18:
 657               	.LM76:
 658               	/* prologue: function */
 659               	/* frame size = 0 */
 660               	.LM77:
 661 026c 2091 0000 		lds r18,Timer0Reg0
 662 0270 3091 0000 		lds r19,(Timer0Reg0)+1
 663 0274 4091 0000 		lds r20,(Timer0Reg0)+2
 664 0278 5091 0000 		lds r21,(Timer0Reg0)+3
 665               	.LM78:
 666 027c B901      		movw r22,r18
 667 027e CA01      		movw r24,r20
 668               	/* epilogue start */
 669 0280 0895      		ret
 670               	.LFE18:
 671               		.size	timer0GetOverflowCount, .-timer0GetOverflowCount
 672               	.global	timer2ClearOverflowCount
 673               		.type	timer2ClearOverflowCount, @function
 674               	timer2ClearOverflowCount:
 675               	.LFB19:
 676               	.LM79:
 677               	/* prologue: function */
 678               	/* frame size = 0 */
 679               	.LM80:
 680 0282 1092 0000 		sts Timer2Reg0,__zero_reg__
 681 0286 1092 0000 		sts (Timer2Reg0)+1,__zero_reg__
 682 028a 1092 0000 		sts (Timer2Reg0)+2,__zero_reg__
 683 028e 1092 0000 		sts (Timer2Reg0)+3,__zero_reg__
 684               	/* epilogue start */
GAS LISTING C:\Users\21030\AppData\Local\Temp/ccjZa2Dn.s 			page 13


 685               	.LM81:
 686 0292 0895      		ret
 687               	.LFE19:
 688               		.size	timer2ClearOverflowCount, .-timer2ClearOverflowCount
 689               	.global	timer2GetOverflowCount
 690               		.type	timer2GetOverflowCount, @function
 691               	timer2GetOverflowCount:
 692               	.LFB20:
 693               	.LM82:
 694               	/* prologue: function */
 695               	/* frame size = 0 */
 696               	.LM83:
 697 0294 2091 0000 		lds r18,Timer2Reg0
 698 0298 3091 0000 		lds r19,(Timer2Reg0)+1
 699 029c 4091 0000 		lds r20,(Timer2Reg0)+2
 700 02a0 5091 0000 		lds r21,(Timer2Reg0)+3
 701               	.LM84:
 702 02a4 B901      		movw r22,r18
 703 02a6 CA01      		movw r24,r20
 704               	/* epilogue start */
 705 02a8 0895      		ret
 706               	.LFE20:
 707               		.size	timer2GetOverflowCount, .-timer2GetOverflowCount
 708               	.global	timer1PWMInit
 709               		.type	timer1PWMInit, @function
 710               	timer1PWMInit:
 711               	.LFB21:
 712               	.LM85:
 713               	.LVL43:
 714               	/* prologue: function */
 715               	/* frame size = 0 */
 716               	.LM86:
 717 02aa 8930      		cpi r24,lo8(9)
 718 02ac 01F4      		brne .L48
 719               	.LM87:
 720 02ae 8FB5      		in r24,79-32
 721               	.LVL44:
 722 02b0 8260      		ori r24,lo8(2)
 723 02b2 8FBD      		out 79-32,r24
 724               	.LM88:
 725 02b4 8FB5      		in r24,79-32
 726 02b6 8E7F      		andi r24,lo8(-2)
 727 02b8 00C0      		rjmp .L52
 728               	.LVL45:
 729               	.L48:
 730               	.LM89:
 731 02ba 8A30      		cpi r24,lo8(10)
 732 02bc 01F4      		brne .L50
 733               	.LM90:
 734 02be 8FB5      		in r24,79-32
 735               	.LVL46:
 736 02c0 8260      		ori r24,lo8(2)
 737 02c2 00C0      		rjmp .L53
 738               	.LVL47:
 739               	.L50:
 740               	.LM91:
 741 02c4 8FB5      		in r24,79-32
GAS LISTING C:\Users\21030\AppData\Local\Temp/ccjZa2Dn.s 			page 14


 742               	.LVL48:
 743 02c6 8D7F      		andi r24,lo8(-3)
 744               	.L53:
 745 02c8 8FBD      		out 79-32,r24
 746               	.LM92:
 747 02ca 8FB5      		in r24,79-32
 748 02cc 8160      		ori r24,lo8(1)
 749               	.L52:
 750 02ce 8FBD      		out 79-32,r24
 751               	.LM93:
 752 02d0 1BBC      		out 75-32,__zero_reg__
 753               	.LM94:
 754 02d2 1ABC      		out 74-32,__zero_reg__
 755               	.LM95:
 756 02d4 19BC      		out 73-32,__zero_reg__
 757               	.LM96:
 758 02d6 18BC      		out 72-32,__zero_reg__
 759               	/* epilogue start */
 760               	.LM97:
 761 02d8 0895      		ret
 762               	.LFE21:
 763               		.size	timer1PWMInit, .-timer1PWMInit
 764               	.global	timer1PWMInitICR
 765               		.type	timer1PWMInitICR, @function
 766               	timer1PWMInitICR:
 767               	.LFB22:
 768               	.LM98:
 769               	.LVL49:
 770               	/* prologue: function */
 771               	/* frame size = 0 */
 772               	.LM99:
 773 02da 2FB5      		in r18,79-32
 774 02dc 2E7F      		andi r18,lo8(-2)
 775 02de 2FBD      		out 79-32,r18
 776               	.LM100:
 777 02e0 2FB5      		in r18,79-32
 778 02e2 2260      		ori r18,lo8(2)
 779 02e4 2FBD      		out 79-32,r18
 780               	.LM101:
 781 02e6 2EB5      		in r18,78-32
 782 02e8 2860      		ori r18,lo8(8)
 783 02ea 2EBD      		out 78-32,r18
 784               	.LM102:
 785 02ec 2EB5      		in r18,78-32
 786 02ee 2061      		ori r18,lo8(16)
 787 02f0 2EBD      		out 78-32,r18
 788               	.LM103:
 789 02f2 97BD      		out (70)+1-32,r25
 790 02f4 86BD      		out 70-32,r24
 791               	.LM104:
 792 02f6 1BBC      		out (74)+1-32,__zero_reg__
 793 02f8 1ABC      		out 74-32,__zero_reg__
 794               	.LM105:
 795 02fa 19BC      		out (72)+1-32,__zero_reg__
 796 02fc 18BC      		out 72-32,__zero_reg__
 797               	/* epilogue start */
 798               	.LM106:
GAS LISTING C:\Users\21030\AppData\Local\Temp/ccjZa2Dn.s 			page 15


 799 02fe 0895      		ret
 800               	.LFE22:
 801               		.size	timer1PWMInitICR, .-timer1PWMInitICR
 802               	.global	timer1PWMOff
 803               		.type	timer1PWMOff, @function
 804               	timer1PWMOff:
 805               	.LFB23:
 806               	.LM107:
 807               	/* prologue: function */
 808               	/* frame size = 0 */
 809               	.LM108:
 810 0300 8FB5      		in r24,79-32
 811 0302 8D7F      		andi r24,lo8(-3)
 812 0304 8FBD      		out 79-32,r24
 813               	.LM109:
 814 0306 8FB5      		in r24,79-32
 815 0308 8E7F      		andi r24,lo8(-2)
 816 030a 8FBD      		out 79-32,r24
 817               	.LBB71:
 818               	.LBB72:
 819               	.LM110:
 820 030c 8FB5      		in r24,79-32
 821 030e 8F77      		andi r24,lo8(127)
 822 0310 8FBD      		out 79-32,r24
 823               	.LM111:
 824 0312 8FB5      		in r24,79-32
 825 0314 8F7B      		andi r24,lo8(-65)
 826 0316 8FBD      		out 79-32,r24
 827               	.LBE72:
 828               	.LBE71:
 829               	.LBB73:
 830               	.LBB74:
 831               	.LM112:
 832 0318 8FB5      		in r24,79-32
 833 031a 8F7D      		andi r24,lo8(-33)
 834 031c 8FBD      		out 79-32,r24
 835               	.LM113:
 836 031e 8FB5      		in r24,79-32
 837 0320 8F7E      		andi r24,lo8(-17)
 838 0322 8FBD      		out 79-32,r24
 839               	/* epilogue start */
 840               	.LBE74:
 841               	.LBE73:
 842               	.LM114:
 843 0324 0895      		ret
 844               	.LFE23:
 845               		.size	timer1PWMOff, .-timer1PWMOff
 846               	.global	timer1PWMAOn
 847               		.type	timer1PWMAOn, @function
 848               	timer1PWMAOn:
 849               	.LFB24:
 850               	.LM115:
 851               	/* prologue: function */
 852               	/* frame size = 0 */
 853               	.LM116:
 854 0326 8FB5      		in r24,79-32
 855 0328 8068      		ori r24,lo8(-128)
GAS LISTING C:\Users\21030\AppData\Local\Temp/ccjZa2Dn.s 			page 16


 856 032a 8FBD      		out 79-32,r24
 857               	.LM117:
 858 032c 8FB5      		in r24,79-32
 859 032e 8F7B      		andi r24,lo8(-65)
 860 0330 8FBD      		out 79-32,r24
 861               	/* epilogue start */
 862               	.LM118:
 863 0332 0895      		ret
 864               	.LFE24:
 865               		.size	timer1PWMAOn, .-timer1PWMAOn
 866               	.global	timer1PWMBOn
 867               		.type	timer1PWMBOn, @function
 868               	timer1PWMBOn:
 869               	.LFB25:
 870               	.LM119:
 871               	/* prologue: function */
 872               	/* frame size = 0 */
 873               	.LM120:
 874 0334 8FB5      		in r24,79-32
 875 0336 8062      		ori r24,lo8(32)
 876 0338 8FBD      		out 79-32,r24
 877               	.LM121:
 878 033a 8FB5      		in r24,79-32
 879 033c 8F7E      		andi r24,lo8(-17)
 880 033e 8FBD      		out 79-32,r24
 881               	/* epilogue start */
 882               	.LM122:
 883 0340 0895      		ret
 884               	.LFE25:
 885               		.size	timer1PWMBOn, .-timer1PWMBOn
 886               	.global	timer1PWMAOff
 887               		.type	timer1PWMAOff, @function
 888               	timer1PWMAOff:
 889               	.LFB26:
 890               	.LM123:
 891               	/* prologue: function */
 892               	/* frame size = 0 */
 893               	.LM124:
 894 0342 8FB5      		in r24,79-32
 895 0344 8F77      		andi r24,lo8(127)
 896 0346 8FBD      		out 79-32,r24
 897               	.LM125:
 898 0348 8FB5      		in r24,79-32
 899 034a 8F7B      		andi r24,lo8(-65)
 900 034c 8FBD      		out 79-32,r24
 901               	/* epilogue start */
 902               	.LM126:
 903 034e 0895      		ret
 904               	.LFE26:
 905               		.size	timer1PWMAOff, .-timer1PWMAOff
 906               	.global	timer1PWMBOff
 907               		.type	timer1PWMBOff, @function
 908               	timer1PWMBOff:
 909               	.LFB27:
 910               	.LM127:
 911               	/* prologue: function */
 912               	/* frame size = 0 */
GAS LISTING C:\Users\21030\AppData\Local\Temp/ccjZa2Dn.s 			page 17


 913               	.LM128:
 914 0350 8FB5      		in r24,79-32
 915 0352 8F7D      		andi r24,lo8(-33)
 916 0354 8FBD      		out 79-32,r24
 917               	.LM129:
 918 0356 8FB5      		in r24,79-32
 919 0358 8F7E      		andi r24,lo8(-17)
 920 035a 8FBD      		out 79-32,r24
 921               	/* epilogue start */
 922               	.LM130:
 923 035c 0895      		ret
 924               	.LFE27:
 925               		.size	timer1PWMBOff, .-timer1PWMBOff
 926               	.global	timer1PWMASet
 927               		.type	timer1PWMASet, @function
 928               	timer1PWMASet:
 929               	.LFB28:
 930               	.LM131:
 931               	.LVL50:
 932               	/* prologue: function */
 933               	/* frame size = 0 */
 934               	.LM132:
 935 035e 9BBD      		out (74)+1-32,r25
 936 0360 8ABD      		out 74-32,r24
 937               	/* epilogue start */
 938               	.LM133:
 939 0362 0895      		ret
 940               	.LFE28:
 941               		.size	timer1PWMASet, .-timer1PWMASet
 942               	.global	timer1PWMBSet
 943               		.type	timer1PWMBSet, @function
 944               	timer1PWMBSet:
 945               	.LFB29:
 946               	.LM134:
 947               	.LVL51:
 948               	/* prologue: function */
 949               	/* frame size = 0 */
 950               	.LM135:
 951 0364 99BD      		out (72)+1-32,r25
 952 0366 88BD      		out 72-32,r24
 953               	/* epilogue start */
 954               	.LM136:
 955 0368 0895      		ret
 956               	.LFE29:
 957               		.size	timer1PWMBSet, .-timer1PWMBSet
 958               	.global	__vector_11
 959               		.type	__vector_11, @function
 960               	__vector_11:
 961               	.LFB30:
 962               	.LM137:
 963 036a 1F92      		push __zero_reg__
 964 036c 0F92      		push r0
 965 036e 0FB6      		in r0,__SREG__
 966 0370 0F92      		push r0
 967 0372 1124      		clr __zero_reg__
 968 0374 2F93      		push r18
 969 0376 3F93      		push r19
GAS LISTING C:\Users\21030\AppData\Local\Temp/ccjZa2Dn.s 			page 18


 970 0378 4F93      		push r20
 971 037a 5F93      		push r21
 972 037c 6F93      		push r22
 973 037e 7F93      		push r23
 974 0380 8F93      		push r24
 975 0382 9F93      		push r25
 976 0384 AF93      		push r26
 977 0386 BF93      		push r27
 978 0388 EF93      		push r30
 979 038a FF93      		push r31
 980               	/* prologue: Signal */
 981               	/* frame size = 0 */
 982               	.LM138:
 983 038c 8091 0000 		lds r24,Timer0Reg0
 984 0390 9091 0000 		lds r25,(Timer0Reg0)+1
 985 0394 A091 0000 		lds r26,(Timer0Reg0)+2
 986 0398 B091 0000 		lds r27,(Timer0Reg0)+3
 987 039c 0196      		adiw r24,1
 988 039e A11D      		adc r26,__zero_reg__
 989 03a0 B11D      		adc r27,__zero_reg__
 990 03a2 8093 0000 		sts Timer0Reg0,r24
 991 03a6 9093 0000 		sts (Timer0Reg0)+1,r25
 992 03aa A093 0000 		sts (Timer0Reg0)+2,r26
 993 03ae B093 0000 		sts (Timer0Reg0)+3,r27
 994               	.LM139:
 995 03b2 8091 0000 		lds r24,TimerPauseReg
 996 03b6 9091 0000 		lds r25,(TimerPauseReg)+1
 997 03ba A091 0000 		lds r26,(TimerPauseReg)+2
 998 03be B091 0000 		lds r27,(TimerPauseReg)+3
 999 03c2 0196      		adiw r24,1
 1000 03c4 A11D      		adc r26,__zero_reg__
 1001 03c6 B11D      		adc r27,__zero_reg__
 1002 03c8 8093 0000 		sts TimerPauseReg,r24
 1003 03cc 9093 0000 		sts (TimerPauseReg)+1,r25
 1004 03d0 A093 0000 		sts (TimerPauseReg)+2,r26
 1005 03d4 B093 0000 		sts (TimerPauseReg)+3,r27
 1006               	.LM140:
 1007 03d8 8091 0000 		lds r24,TimerIntFunc
 1008 03dc 9091 0000 		lds r25,(TimerIntFunc)+1
 1009 03e0 892B      		or r24,r25
 1010 03e2 01F0      		breq .L72
 1011               	.LM141:
 1012 03e4 E091 0000 		lds r30,TimerIntFunc
 1013 03e8 F091 0000 		lds r31,(TimerIntFunc)+1
 1014 03ec 0995      		icall
 1015               	.L72:
 1016               	/* epilogue start */
 1017               	.LM142:
 1018 03ee FF91      		pop r31
 1019 03f0 EF91      		pop r30
 1020 03f2 BF91      		pop r27
 1021 03f4 AF91      		pop r26
 1022 03f6 9F91      		pop r25
 1023 03f8 8F91      		pop r24
 1024 03fa 7F91      		pop r23
 1025 03fc 6F91      		pop r22
 1026 03fe 5F91      		pop r21
GAS LISTING C:\Users\21030\AppData\Local\Temp/ccjZa2Dn.s 			page 19


 1027 0400 4F91      		pop r20
 1028 0402 3F91      		pop r19
 1029 0404 2F91      		pop r18
 1030 0406 0F90      		pop r0
 1031 0408 0FBE      		out __SREG__,r0
 1032 040a 0F90      		pop r0
 1033 040c 1F90      		pop __zero_reg__
 1034 040e 1895      		reti
 1035               	.LFE30:
 1036               		.size	__vector_11, .-__vector_11
 1037               	.global	__vector_9
 1038               		.type	__vector_9, @function
 1039               	__vector_9:
 1040               	.LFB31:
 1041               	.LM143:
 1042 0410 1F92      		push __zero_reg__
 1043 0412 0F92      		push r0
 1044 0414 0FB6      		in r0,__SREG__
 1045 0416 0F92      		push r0
 1046 0418 1124      		clr __zero_reg__
 1047 041a 2F93      		push r18
 1048 041c 3F93      		push r19
 1049 041e 4F93      		push r20
 1050 0420 5F93      		push r21
 1051 0422 6F93      		push r22
 1052 0424 7F93      		push r23
 1053 0426 8F93      		push r24
 1054 0428 9F93      		push r25
 1055 042a AF93      		push r26
 1056 042c BF93      		push r27
 1057 042e EF93      		push r30
 1058 0430 FF93      		push r31
 1059               	/* prologue: Signal */
 1060               	/* frame size = 0 */
 1061               	.LM144:
 1062 0432 8091 0000 		lds r24,TimerIntFunc+2
 1063 0436 9091 0000 		lds r25,(TimerIntFunc+2)+1
 1064 043a 892B      		or r24,r25
 1065 043c 01F0      		breq .L75
 1066               	.LM145:
 1067 043e E091 0000 		lds r30,TimerIntFunc+2
 1068 0442 F091 0000 		lds r31,(TimerIntFunc+2)+1
 1069 0446 0995      		icall
 1070               	.L75:
 1071               	/* epilogue start */
 1072               	.LM146:
 1073 0448 FF91      		pop r31
 1074 044a EF91      		pop r30
 1075 044c BF91      		pop r27
 1076 044e AF91      		pop r26
 1077 0450 9F91      		pop r25
 1078 0452 8F91      		pop r24
 1079 0454 7F91      		pop r23
 1080 0456 6F91      		pop r22
 1081 0458 5F91      		pop r21
 1082 045a 4F91      		pop r20
 1083 045c 3F91      		pop r19
GAS LISTING C:\Users\21030\AppData\Local\Temp/ccjZa2Dn.s 			page 20


 1084 045e 2F91      		pop r18
 1085 0460 0F90      		pop r0
 1086 0462 0FBE      		out __SREG__,r0
 1087 0464 0F90      		pop r0
 1088 0466 1F90      		pop __zero_reg__
 1089 0468 1895      		reti
 1090               	.LFE31:
 1091               		.size	__vector_9, .-__vector_9
 1092               	.global	__vector_5
 1093               		.type	__vector_5, @function
 1094               	__vector_5:
 1095               	.LFB32:
 1096               	.LM147:
 1097 046a 1F92      		push __zero_reg__
 1098 046c 0F92      		push r0
 1099 046e 0FB6      		in r0,__SREG__
 1100 0470 0F92      		push r0
 1101 0472 1124      		clr __zero_reg__
 1102 0474 2F93      		push r18
 1103 0476 3F93      		push r19
 1104 0478 4F93      		push r20
 1105 047a 5F93      		push r21
 1106 047c 6F93      		push r22
 1107 047e 7F93      		push r23
 1108 0480 8F93      		push r24
 1109 0482 9F93      		push r25
 1110 0484 AF93      		push r26
 1111 0486 BF93      		push r27
 1112 0488 EF93      		push r30
 1113 048a FF93      		push r31
 1114               	/* prologue: Signal */
 1115               	/* frame size = 0 */
 1116               	.LM148:
 1117 048c 8091 0000 		lds r24,Timer2Reg0
 1118 0490 9091 0000 		lds r25,(Timer2Reg0)+1
 1119 0494 A091 0000 		lds r26,(Timer2Reg0)+2
 1120 0498 B091 0000 		lds r27,(Timer2Reg0)+3
 1121 049c 0196      		adiw r24,1
 1122 049e A11D      		adc r26,__zero_reg__
 1123 04a0 B11D      		adc r27,__zero_reg__
 1124 04a2 8093 0000 		sts Timer2Reg0,r24
 1125 04a6 9093 0000 		sts (Timer2Reg0)+1,r25
 1126 04aa A093 0000 		sts (Timer2Reg0)+2,r26
 1127 04ae B093 0000 		sts (Timer2Reg0)+3,r27
 1128               	.LM149:
 1129 04b2 8091 0000 		lds r24,TimerIntFunc+10
 1130 04b6 9091 0000 		lds r25,(TimerIntFunc+10)+1
 1131 04ba 892B      		or r24,r25
 1132 04bc 01F0      		breq .L78
 1133               	.LM150:
 1134 04be E091 0000 		lds r30,TimerIntFunc+10
 1135 04c2 F091 0000 		lds r31,(TimerIntFunc+10)+1
 1136 04c6 0995      		icall
 1137               	.L78:
 1138               	/* epilogue start */
 1139               	.LM151:
 1140 04c8 FF91      		pop r31
GAS LISTING C:\Users\21030\AppData\Local\Temp/ccjZa2Dn.s 			page 21


 1141 04ca EF91      		pop r30
 1142 04cc BF91      		pop r27
 1143 04ce AF91      		pop r26
 1144 04d0 9F91      		pop r25
 1145 04d2 8F91      		pop r24
 1146 04d4 7F91      		pop r23
 1147 04d6 6F91      		pop r22
 1148 04d8 5F91      		pop r21
 1149 04da 4F91      		pop r20
 1150 04dc 3F91      		pop r19
 1151 04de 2F91      		pop r18
 1152 04e0 0F90      		pop r0
 1153 04e2 0FBE      		out __SREG__,r0
 1154 04e4 0F90      		pop r0
 1155 04e6 1F90      		pop __zero_reg__
 1156 04e8 1895      		reti
 1157               	.LFE32:
 1158               		.size	__vector_5, .-__vector_5
 1159               	.global	__vector_10
 1160               		.type	__vector_10, @function
 1161               	__vector_10:
 1162               	.LFB33:
 1163               	.LM152:
 1164 04ea 1F92      		push __zero_reg__
 1165 04ec 0F92      		push r0
 1166 04ee 0FB6      		in r0,__SREG__
 1167 04f0 0F92      		push r0
 1168 04f2 1124      		clr __zero_reg__
 1169 04f4 2F93      		push r18
 1170 04f6 3F93      		push r19
 1171 04f8 4F93      		push r20
 1172 04fa 5F93      		push r21
 1173 04fc 6F93      		push r22
 1174 04fe 7F93      		push r23
 1175 0500 8F93      		push r24
 1176 0502 9F93      		push r25
 1177 0504 AF93      		push r26
 1178 0506 BF93      		push r27
 1179 0508 EF93      		push r30
 1180 050a FF93      		push r31
 1181               	/* prologue: Signal */
 1182               	/* frame size = 0 */
 1183               	.LM153:
 1184 050c 8091 0000 		lds r24,TimerIntFunc+14
 1185 0510 9091 0000 		lds r25,(TimerIntFunc+14)+1
 1186 0514 892B      		or r24,r25
 1187 0516 01F0      		breq .L81
 1188               	.LM154:
 1189 0518 E091 0000 		lds r30,TimerIntFunc+14
 1190 051c F091 0000 		lds r31,(TimerIntFunc+14)+1
 1191 0520 0995      		icall
 1192               	.L81:
 1193               	/* epilogue start */
 1194               	.LM155:
 1195 0522 FF91      		pop r31
 1196 0524 EF91      		pop r30
 1197 0526 BF91      		pop r27
GAS LISTING C:\Users\21030\AppData\Local\Temp/ccjZa2Dn.s 			page 22


 1198 0528 AF91      		pop r26
 1199 052a 9F91      		pop r25
 1200 052c 8F91      		pop r24
 1201 052e 7F91      		pop r23
 1202 0530 6F91      		pop r22
 1203 0532 5F91      		pop r21
 1204 0534 4F91      		pop r20
 1205 0536 3F91      		pop r19
 1206 0538 2F91      		pop r18
 1207 053a 0F90      		pop r0
 1208 053c 0FBE      		out __SREG__,r0
 1209 053e 0F90      		pop r0
 1210 0540 1F90      		pop __zero_reg__
 1211 0542 1895      		reti
 1212               	.LFE33:
 1213               		.size	__vector_10, .-__vector_10
 1214               	.global	__vector_7
 1215               		.type	__vector_7, @function
 1216               	__vector_7:
 1217               	.LFB34:
 1218               	.LM156:
 1219 0544 1F92      		push __zero_reg__
 1220 0546 0F92      		push r0
 1221 0548 0FB6      		in r0,__SREG__
 1222 054a 0F92      		push r0
 1223 054c 1124      		clr __zero_reg__
 1224 054e 2F93      		push r18
 1225 0550 3F93      		push r19
 1226 0552 4F93      		push r20
 1227 0554 5F93      		push r21
 1228 0556 6F93      		push r22
 1229 0558 7F93      		push r23
 1230 055a 8F93      		push r24
 1231 055c 9F93      		push r25
 1232 055e AF93      		push r26
 1233 0560 BF93      		push r27
 1234 0562 EF93      		push r30
 1235 0564 FF93      		push r31
 1236               	/* prologue: Signal */
 1237               	/* frame size = 0 */
 1238               	.LM157:
 1239 0566 8091 0000 		lds r24,TimerIntFunc+4
 1240 056a 9091 0000 		lds r25,(TimerIntFunc+4)+1
 1241 056e 892B      		or r24,r25
 1242 0570 01F0      		breq .L84
 1243               	.LM158:
 1244 0572 E091 0000 		lds r30,TimerIntFunc+4
 1245 0576 F091 0000 		lds r31,(TimerIntFunc+4)+1
 1246 057a 0995      		icall
 1247               	.L84:
 1248               	/* epilogue start */
 1249               	.LM159:
 1250 057c FF91      		pop r31
 1251 057e EF91      		pop r30
 1252 0580 BF91      		pop r27
 1253 0582 AF91      		pop r26
 1254 0584 9F91      		pop r25
GAS LISTING C:\Users\21030\AppData\Local\Temp/ccjZa2Dn.s 			page 23


 1255 0586 8F91      		pop r24
 1256 0588 7F91      		pop r23
 1257 058a 6F91      		pop r22
 1258 058c 5F91      		pop r21
 1259 058e 4F91      		pop r20
 1260 0590 3F91      		pop r19
 1261 0592 2F91      		pop r18
 1262 0594 0F90      		pop r0
 1263 0596 0FBE      		out __SREG__,r0
 1264 0598 0F90      		pop r0
 1265 059a 1F90      		pop __zero_reg__
 1266 059c 1895      		reti
 1267               	.LFE34:
 1268               		.size	__vector_7, .-__vector_7
 1269               	.global	__vector_8
 1270               		.type	__vector_8, @function
 1271               	__vector_8:
 1272               	.LFB35:
 1273               	.LM160:
 1274 059e 1F92      		push __zero_reg__
 1275 05a0 0F92      		push r0
 1276 05a2 0FB6      		in r0,__SREG__
 1277 05a4 0F92      		push r0
 1278 05a6 1124      		clr __zero_reg__
 1279 05a8 2F93      		push r18
 1280 05aa 3F93      		push r19
 1281 05ac 4F93      		push r20
 1282 05ae 5F93      		push r21
 1283 05b0 6F93      		push r22
 1284 05b2 7F93      		push r23
 1285 05b4 8F93      		push r24
 1286 05b6 9F93      		push r25
 1287 05b8 AF93      		push r26
 1288 05ba BF93      		push r27
 1289 05bc EF93      		push r30
 1290 05be FF93      		push r31
 1291               	/* prologue: Signal */
 1292               	/* frame size = 0 */
 1293               	.LM161:
 1294 05c0 8091 0000 		lds r24,TimerIntFunc+6
 1295 05c4 9091 0000 		lds r25,(TimerIntFunc+6)+1
 1296 05c8 892B      		or r24,r25
 1297 05ca 01F0      		breq .L87
 1298               	.LM162:
 1299 05cc E091 0000 		lds r30,TimerIntFunc+6
 1300 05d0 F091 0000 		lds r31,(TimerIntFunc+6)+1
 1301 05d4 0995      		icall
 1302               	.L87:
 1303               	/* epilogue start */
 1304               	.LM163:
 1305 05d6 FF91      		pop r31
 1306 05d8 EF91      		pop r30
 1307 05da BF91      		pop r27
 1308 05dc AF91      		pop r26
 1309 05de 9F91      		pop r25
 1310 05e0 8F91      		pop r24
 1311 05e2 7F91      		pop r23
GAS LISTING C:\Users\21030\AppData\Local\Temp/ccjZa2Dn.s 			page 24


 1312 05e4 6F91      		pop r22
 1313 05e6 5F91      		pop r21
 1314 05e8 4F91      		pop r20
 1315 05ea 3F91      		pop r19
 1316 05ec 2F91      		pop r18
 1317 05ee 0F90      		pop r0
 1318 05f0 0FBE      		out __SREG__,r0
 1319 05f2 0F90      		pop r0
 1320 05f4 1F90      		pop __zero_reg__
 1321 05f6 1895      		reti
 1322               	.LFE35:
 1323               		.size	__vector_8, .-__vector_8
 1324               	.global	__vector_6
 1325               		.type	__vector_6, @function
 1326               	__vector_6:
 1327               	.LFB36:
 1328               	.LM164:
 1329 05f8 1F92      		push __zero_reg__
 1330 05fa 0F92      		push r0
 1331 05fc 0FB6      		in r0,__SREG__
 1332 05fe 0F92      		push r0
 1333 0600 1124      		clr __zero_reg__
 1334 0602 2F93      		push r18
 1335 0604 3F93      		push r19
 1336 0606 4F93      		push r20
 1337 0608 5F93      		push r21
 1338 060a 6F93      		push r22
 1339 060c 7F93      		push r23
 1340 060e 8F93      		push r24
 1341 0610 9F93      		push r25
 1342 0612 AF93      		push r26
 1343 0614 BF93      		push r27
 1344 0616 EF93      		push r30
 1345 0618 FF93      		push r31
 1346               	/* prologue: Signal */
 1347               	/* frame size = 0 */
 1348               	.LM165:
 1349 061a 8091 0000 		lds r24,TimerIntFunc+8
 1350 061e 9091 0000 		lds r25,(TimerIntFunc+8)+1
 1351 0622 892B      		or r24,r25
 1352 0624 01F0      		breq .L90
 1353               	.LM166:
 1354 0626 E091 0000 		lds r30,TimerIntFunc+8
 1355 062a F091 0000 		lds r31,(TimerIntFunc+8)+1
 1356 062e 0995      		icall
 1357               	.L90:
 1358               	/* epilogue start */
 1359               	.LM167:
 1360 0630 FF91      		pop r31
 1361 0632 EF91      		pop r30
 1362 0634 BF91      		pop r27
 1363 0636 AF91      		pop r26
 1364 0638 9F91      		pop r25
 1365 063a 8F91      		pop r24
 1366 063c 7F91      		pop r23
 1367 063e 6F91      		pop r22
 1368 0640 5F91      		pop r21
GAS LISTING C:\Users\21030\AppData\Local\Temp/ccjZa2Dn.s 			page 25


 1369 0642 4F91      		pop r20
 1370 0644 3F91      		pop r19
 1371 0646 2F91      		pop r18
 1372 0648 0F90      		pop r0
 1373 064a 0FBE      		out __SREG__,r0
 1374 064c 0F90      		pop r0
 1375 064e 1F90      		pop __zero_reg__
 1376 0650 1895      		reti
 1377               	.LFE36:
 1378               		.size	__vector_6, .-__vector_6
 1379               	.global	__vector_4
 1380               		.type	__vector_4, @function
 1381               	__vector_4:
 1382               	.LFB37:
 1383               	.LM168:
 1384 0652 1F92      		push __zero_reg__
 1385 0654 0F92      		push r0
 1386 0656 0FB6      		in r0,__SREG__
 1387 0658 0F92      		push r0
 1388 065a 1124      		clr __zero_reg__
 1389 065c 2F93      		push r18
 1390 065e 3F93      		push r19
 1391 0660 4F93      		push r20
 1392 0662 5F93      		push r21
 1393 0664 6F93      		push r22
 1394 0666 7F93      		push r23
 1395 0668 8F93      		push r24
 1396 066a 9F93      		push r25
 1397 066c AF93      		push r26
 1398 066e BF93      		push r27
 1399 0670 EF93      		push r30
 1400 0672 FF93      		push r31
 1401               	/* prologue: Signal */
 1402               	/* frame size = 0 */
 1403               	.LM169:
 1404 0674 8091 0000 		lds r24,TimerIntFunc+12
 1405 0678 9091 0000 		lds r25,(TimerIntFunc+12)+1
 1406 067c 892B      		or r24,r25
 1407 067e 01F0      		breq .L93
 1408               	.LM170:
 1409 0680 E091 0000 		lds r30,TimerIntFunc+12
 1410 0684 F091 0000 		lds r31,(TimerIntFunc+12)+1
 1411 0688 0995      		icall
 1412               	.L93:
 1413               	/* epilogue start */
 1414               	.LM171:
 1415 068a FF91      		pop r31
 1416 068c EF91      		pop r30
 1417 068e BF91      		pop r27
 1418 0690 AF91      		pop r26
 1419 0692 9F91      		pop r25
 1420 0694 8F91      		pop r24
 1421 0696 7F91      		pop r23
 1422 0698 6F91      		pop r22
 1423 069a 5F91      		pop r21
 1424 069c 4F91      		pop r20
 1425 069e 3F91      		pop r19
GAS LISTING C:\Users\21030\AppData\Local\Temp/ccjZa2Dn.s 			page 26


 1426 06a0 2F91      		pop r18
 1427 06a2 0F90      		pop r0
 1428 06a4 0FBE      		out __SREG__,r0
 1429 06a6 0F90      		pop r0
 1430 06a8 1F90      		pop __zero_reg__
 1431 06aa 1895      		reti
 1432               	.LFE37:
 1433               		.size	__vector_4, .-__vector_4
 1434               	.global	TimerPrescaleFactor
 1435               		.section	.progmem.data,"a",@progbits
 1436               		.type	TimerPrescaleFactor, @object
 1437               		.size	TimerPrescaleFactor, 12
 1438               	TimerPrescaleFactor:
 1439 0000 0000      		.word	0
 1440 0002 0100      		.word	1
 1441 0004 0800      		.word	8
 1442 0006 4000      		.word	64
 1443 0008 0001      		.word	256
 1444 000a 0004      		.word	1024
 1445               	.global	TimerRTCPrescaleFactor
 1446               		.type	TimerRTCPrescaleFactor, @object
 1447               		.size	TimerRTCPrescaleFactor, 16
 1448               	TimerRTCPrescaleFactor:
 1449 000c 0000      		.word	0
 1450 000e 0100      		.word	1
 1451 0010 0800      		.word	8
 1452 0012 2000      		.word	32
 1453 0014 4000      		.word	64
 1454 0016 8000      		.word	128
 1455 0018 0001      		.word	256
 1456 001a 0004      		.word	1024
 1457               		.lcomm TimerIntFunc,16
 1458               		.comm TimerPauseReg,4,1
 1459               		.comm Timer0Reg0,4,1
 1460               		.comm Timer2Reg0,4,1
 1461               		.section	.debug_frame,"",@progbits
 1462               	.Lframe0:
 1463 0000 0C00 0000 		.long	.LECIE0-.LSCIE0
 1464               	.LSCIE0:
 1465 0004 FFFF FFFF 		.long	0xffffffff
 1466 0008 01        		.byte	0x1
 1467 0009 00        		.string	""
 1468 000a 01        		.uleb128 0x1
 1469 000b 7F        		.sleb128 -1
 1470 000c 24        		.byte	0x24
 1471 000d 0C        		.byte	0xc
 1472 000e 20        		.uleb128 0x20
 1473 000f 00        		.uleb128 0x0
 1474               		.p2align	2
 1475               	.LECIE0:
 1476               	.LSFDE0:
 1477 0010 0C00 0000 		.long	.LEFDE0-.LASFDE0
 1478               	.LASFDE0:
 1479 0014 0000 0000 		.long	.Lframe0
 1480 0018 0000 0000 		.long	.LFB2
 1481 001c 0200 0000 		.long	.LFE2-.LFB2
 1482               		.p2align	2
GAS LISTING C:\Users\21030\AppData\Local\Temp/ccjZa2Dn.s 			page 27


 1483               	.LEFDE0:
 1484               	.LSFDE2:
 1485 0020 0C00 0000 		.long	.LEFDE2-.LASFDE2
 1486               	.LASFDE2:
 1487 0024 0000 0000 		.long	.Lframe0
 1488 0028 0000 0000 		.long	.LFB3
 1489 002c 5E00 0000 		.long	.LFE3-.LFB3
 1490               		.p2align	2
 1491               	.LEFDE2:
 1492               	.LSFDE4:
 1493 0030 0C00 0000 		.long	.LEFDE4-.LASFDE4
 1494               	.LASFDE4:
 1495 0034 0000 0000 		.long	.Lframe0
 1496 0038 0000 0000 		.long	.LFB4
 1497 003c 1C00 0000 		.long	.LFE4-.LFB4
 1498               		.p2align	2
 1499               	.LEFDE4:
 1500               	.LSFDE6:
 1501 0040 0C00 0000 		.long	.LEFDE6-.LASFDE6
 1502               	.LASFDE6:
 1503 0044 0000 0000 		.long	.Lframe0
 1504 0048 0000 0000 		.long	.LFB5
 1505 004c 0E00 0000 		.long	.LFE5-.LFB5
 1506               		.p2align	2
 1507               	.LEFDE6:
 1508               	.LSFDE8:
 1509 0050 0C00 0000 		.long	.LEFDE8-.LASFDE8
 1510               	.LASFDE8:
 1511 0054 0000 0000 		.long	.Lframe0
 1512 0058 0000 0000 		.long	.LFB6
 1513 005c 1C00 0000 		.long	.LFE6-.LFB6
 1514               		.p2align	2
 1515               	.LEFDE8:
 1516               	.LSFDE10:
 1517 0060 0C00 0000 		.long	.LEFDE10-.LASFDE10
 1518               	.LASFDE10:
 1519 0064 0000 0000 		.long	.Lframe0
 1520 0068 0000 0000 		.long	.LFB7
 1521 006c 0800 0000 		.long	.LFE7-.LFB7
 1522               		.p2align	2
 1523               	.LEFDE10:
 1524               	.LSFDE12:
 1525 0070 0C00 0000 		.long	.LEFDE12-.LASFDE12
 1526               	.LASFDE12:
 1527 0074 0000 0000 		.long	.Lframe0
 1528 0078 0000 0000 		.long	.LFB8
 1529 007c 0A00 0000 		.long	.LFE8-.LFB8
 1530               		.p2align	2
 1531               	.LEFDE12:
 1532               	.LSFDE14:
 1533 0080 0C00 0000 		.long	.LEFDE14-.LASFDE14
 1534               	.LASFDE14:
 1535 0084 0000 0000 		.long	.Lframe0
 1536 0088 0000 0000 		.long	.LFB9
 1537 008c 0A00 0000 		.long	.LFE9-.LFB9
 1538               		.p2align	2
 1539               	.LEFDE14:
GAS LISTING C:\Users\21030\AppData\Local\Temp/ccjZa2Dn.s 			page 28


 1540               	.LSFDE16:
 1541 0090 0C00 0000 		.long	.LEFDE16-.LASFDE16
 1542               	.LASFDE16:
 1543 0094 0000 0000 		.long	.Lframe0
 1544 0098 0000 0000 		.long	.LFB10
 1545 009c 0A00 0000 		.long	.LFE10-.LFB10
 1546               		.p2align	2
 1547               	.LEFDE16:
 1548               	.LSFDE18:
 1549 00a0 0C00 0000 		.long	.LEFDE18-.LASFDE18
 1550               	.LASFDE18:
 1551 00a4 0000 0000 		.long	.Lframe0
 1552 00a8 0000 0000 		.long	.LFB11
 1553 00ac 1A00 0000 		.long	.LFE11-.LFB11
 1554               		.p2align	2
 1555               	.LEFDE18:
 1556               	.LSFDE20:
 1557 00b0 0C00 0000 		.long	.LEFDE20-.LASFDE20
 1558               	.LASFDE20:
 1559 00b4 0000 0000 		.long	.Lframe0
 1560 00b8 0000 0000 		.long	.LFB12
 1561 00bc 1A00 0000 		.long	.LFE12-.LFB12
 1562               		.p2align	2
 1563               	.LEFDE20:
 1564               	.LSFDE22:
 1565 00c0 0C00 0000 		.long	.LEFDE22-.LASFDE22
 1566               	.LASFDE22:
 1567 00c4 0000 0000 		.long	.Lframe0
 1568 00c8 0000 0000 		.long	.LFB13
 1569 00cc 1A00 0000 		.long	.LFE13-.LFB13
 1570               		.p2align	2
 1571               	.LEFDE22:
 1572               	.LSFDE24:
 1573 00d0 0C00 0000 		.long	.LEFDE24-.LASFDE24
 1574               	.LASFDE24:
 1575 00d4 0000 0000 		.long	.Lframe0
 1576 00d8 0000 0000 		.long	.LFB14
 1577 00dc 1600 0000 		.long	.LFE14-.LFB14
 1578               		.p2align	2
 1579               	.LEFDE24:
 1580               	.LSFDE26:
 1581 00e0 0C00 0000 		.long	.LEFDE26-.LASFDE26
 1582               	.LASFDE26:
 1583 00e4 0000 0000 		.long	.Lframe0
 1584 00e8 0000 0000 		.long	.LFB15
 1585 00ec 1600 0000 		.long	.LFE15-.LFB15
 1586               		.p2align	2
 1587               	.LEFDE26:
 1588               	.LSFDE28:
 1589 00f0 0C00 0000 		.long	.LEFDE28-.LASFDE28
 1590               	.LASFDE28:
 1591 00f4 0000 0000 		.long	.Lframe0
 1592 00f8 0000 0000 		.long	.LFB16
 1593 00fc 1401 0000 		.long	.LFE16-.LFB16
 1594               		.p2align	2
 1595               	.LEFDE28:
 1596               	.LSFDE30:
GAS LISTING C:\Users\21030\AppData\Local\Temp/ccjZa2Dn.s 			page 29


 1597 0100 0C00 0000 		.long	.LEFDE30-.LASFDE30
 1598               	.LASFDE30:
 1599 0104 0000 0000 		.long	.Lframe0
 1600 0108 0000 0000 		.long	.LFB17
 1601 010c 1200 0000 		.long	.LFE17-.LFB17
 1602               		.p2align	2
 1603               	.LEFDE30:
 1604               	.LSFDE32:
 1605 0110 0C00 0000 		.long	.LEFDE32-.LASFDE32
 1606               	.LASFDE32:
 1607 0114 0000 0000 		.long	.Lframe0
 1608 0118 0000 0000 		.long	.LFB18
 1609 011c 1600 0000 		.long	.LFE18-.LFB18
 1610               		.p2align	2
 1611               	.LEFDE32:
 1612               	.LSFDE34:
 1613 0120 0C00 0000 		.long	.LEFDE34-.LASFDE34
 1614               	.LASFDE34:
 1615 0124 0000 0000 		.long	.Lframe0
 1616 0128 0000 0000 		.long	.LFB19
 1617 012c 1200 0000 		.long	.LFE19-.LFB19
 1618               		.p2align	2
 1619               	.LEFDE34:
 1620               	.LSFDE36:
 1621 0130 0C00 0000 		.long	.LEFDE36-.LASFDE36
 1622               	.LASFDE36:
 1623 0134 0000 0000 		.long	.Lframe0
 1624 0138 0000 0000 		.long	.LFB20
 1625 013c 1600 0000 		.long	.LFE20-.LFB20
 1626               		.p2align	2
 1627               	.LEFDE36:
 1628               	.LSFDE38:
 1629 0140 0C00 0000 		.long	.LEFDE38-.LASFDE38
 1630               	.LASFDE38:
 1631 0144 0000 0000 		.long	.Lframe0
 1632 0148 0000 0000 		.long	.LFB21
 1633 014c 3000 0000 		.long	.LFE21-.LFB21
 1634               		.p2align	2
 1635               	.LEFDE38:
 1636               	.LSFDE40:
 1637 0150 0C00 0000 		.long	.LEFDE40-.LASFDE40
 1638               	.LASFDE40:
 1639 0154 0000 0000 		.long	.Lframe0
 1640 0158 0000 0000 		.long	.LFB22
 1641 015c 2600 0000 		.long	.LFE22-.LFB22
 1642               		.p2align	2
 1643               	.LEFDE40:
 1644               	.LSFDE42:
 1645 0160 0C00 0000 		.long	.LEFDE42-.LASFDE42
 1646               	.LASFDE42:
 1647 0164 0000 0000 		.long	.Lframe0
 1648 0168 0000 0000 		.long	.LFB23
 1649 016c 2600 0000 		.long	.LFE23-.LFB23
 1650               		.p2align	2
 1651               	.LEFDE42:
 1652               	.LSFDE44:
 1653 0170 0C00 0000 		.long	.LEFDE44-.LASFDE44
GAS LISTING C:\Users\21030\AppData\Local\Temp/ccjZa2Dn.s 			page 30


 1654               	.LASFDE44:
 1655 0174 0000 0000 		.long	.Lframe0
 1656 0178 0000 0000 		.long	.LFB24
 1657 017c 0E00 0000 		.long	.LFE24-.LFB24
 1658               		.p2align	2
 1659               	.LEFDE44:
 1660               	.LSFDE46:
 1661 0180 0C00 0000 		.long	.LEFDE46-.LASFDE46
 1662               	.LASFDE46:
 1663 0184 0000 0000 		.long	.Lframe0
 1664 0188 0000 0000 		.long	.LFB25
 1665 018c 0E00 0000 		.long	.LFE25-.LFB25
 1666               		.p2align	2
 1667               	.LEFDE46:
 1668               	.LSFDE48:
 1669 0190 0C00 0000 		.long	.LEFDE48-.LASFDE48
 1670               	.LASFDE48:
 1671 0194 0000 0000 		.long	.Lframe0
 1672 0198 0000 0000 		.long	.LFB26
 1673 019c 0E00 0000 		.long	.LFE26-.LFB26
 1674               		.p2align	2
 1675               	.LEFDE48:
 1676               	.LSFDE50:
 1677 01a0 0C00 0000 		.long	.LEFDE50-.LASFDE50
 1678               	.LASFDE50:
 1679 01a4 0000 0000 		.long	.Lframe0
 1680 01a8 0000 0000 		.long	.LFB27
 1681 01ac 0E00 0000 		.long	.LFE27-.LFB27
 1682               		.p2align	2
 1683               	.LEFDE50:
 1684               	.LSFDE52:
 1685 01b0 0C00 0000 		.long	.LEFDE52-.LASFDE52
 1686               	.LASFDE52:
 1687 01b4 0000 0000 		.long	.Lframe0
 1688 01b8 0000 0000 		.long	.LFB28
 1689 01bc 0600 0000 		.long	.LFE28-.LFB28
 1690               		.p2align	2
 1691               	.LEFDE52:
 1692               	.LSFDE54:
 1693 01c0 0C00 0000 		.long	.LEFDE54-.LASFDE54
 1694               	.LASFDE54:
 1695 01c4 0000 0000 		.long	.Lframe0
 1696 01c8 0000 0000 		.long	.LFB29
 1697 01cc 0600 0000 		.long	.LFE29-.LFB29
 1698               		.p2align	2
 1699               	.LEFDE54:
 1700               	.LSFDE56:
 1701 01d0 0C00 0000 		.long	.LEFDE56-.LASFDE56
 1702               	.LASFDE56:
 1703 01d4 0000 0000 		.long	.Lframe0
 1704 01d8 0000 0000 		.long	.LFB30
 1705 01dc A600 0000 		.long	.LFE30-.LFB30
 1706               		.p2align	2
 1707               	.LEFDE56:
 1708               	.LSFDE58:
 1709 01e0 0C00 0000 		.long	.LEFDE58-.LASFDE58
 1710               	.LASFDE58:
GAS LISTING C:\Users\21030\AppData\Local\Temp/ccjZa2Dn.s 			page 31


 1711 01e4 0000 0000 		.long	.Lframe0
 1712 01e8 0000 0000 		.long	.LFB31
 1713 01ec 5A00 0000 		.long	.LFE31-.LFB31
 1714               		.p2align	2
 1715               	.LEFDE58:
 1716               	.LSFDE60:
 1717 01f0 0C00 0000 		.long	.LEFDE60-.LASFDE60
 1718               	.LASFDE60:
 1719 01f4 0000 0000 		.long	.Lframe0
 1720 01f8 0000 0000 		.long	.LFB32
 1721 01fc 8000 0000 		.long	.LFE32-.LFB32
 1722               		.p2align	2
 1723               	.LEFDE60:
 1724               	.LSFDE62:
 1725 0200 0C00 0000 		.long	.LEFDE62-.LASFDE62
 1726               	.LASFDE62:
 1727 0204 0000 0000 		.long	.Lframe0
 1728 0208 0000 0000 		.long	.LFB33
 1729 020c 5A00 0000 		.long	.LFE33-.LFB33
 1730               		.p2align	2
 1731               	.LEFDE62:
 1732               	.LSFDE64:
 1733 0210 0C00 0000 		.long	.LEFDE64-.LASFDE64
 1734               	.LASFDE64:
 1735 0214 0000 0000 		.long	.Lframe0
 1736 0218 0000 0000 		.long	.LFB34
 1737 021c 5A00 0000 		.long	.LFE34-.LFB34
 1738               		.p2align	2
 1739               	.LEFDE64:
 1740               	.LSFDE66:
 1741 0220 0C00 0000 		.long	.LEFDE66-.LASFDE66
 1742               	.LASFDE66:
 1743 0224 0000 0000 		.long	.Lframe0
 1744 0228 0000 0000 		.long	.LFB35
 1745 022c 5A00 0000 		.long	.LFE35-.LFB35
 1746               		.p2align	2
 1747               	.LEFDE66:
 1748               	.LSFDE68:
 1749 0230 0C00 0000 		.long	.LEFDE68-.LASFDE68
 1750               	.LASFDE68:
 1751 0234 0000 0000 		.long	.Lframe0
 1752 0238 0000 0000 		.long	.LFB36
 1753 023c 5A00 0000 		.long	.LFE36-.LFB36
 1754               		.p2align	2
 1755               	.LEFDE68:
 1756               	.LSFDE70:
 1757 0240 0C00 0000 		.long	.LEFDE70-.LASFDE70
 1758               	.LASFDE70:
 1759 0244 0000 0000 		.long	.Lframe0
 1760 0248 0000 0000 		.long	.LFB37
 1761 024c 5A00 0000 		.long	.LFE37-.LFB37
 1762               		.p2align	2
 1763               	.LEFDE70:
 1764               		.text
 1765               	.Letext0:
 1766               		.section	.debug_loc,"",@progbits
 1767               	.Ldebug_loc0:
GAS LISTING C:\Users\21030\AppData\Local\Temp/ccjZa2Dn.s 			page 32


 1768               	.LLST10:
 1769 0000 E200 0000 		.long	.LVL7-.Ltext0
 1770 0004 E400 0000 		.long	.LVL8-.Ltext0
 1771 0008 0600      		.word	0x6
 1772 000a 62        		.byte	0x62
 1773 000b 93        		.byte	0x93
 1774 000c 01        		.uleb128 0x1
 1775 000d 63        		.byte	0x63
 1776 000e 93        		.byte	0x93
 1777 000f 01        		.uleb128 0x1
 1778 0010 0000 0000 		.long	0x0
 1779 0014 0000 0000 		.long	0x0
 1780               	.LLST12:
 1781 0018 FC00 0000 		.long	.LVL12-.Ltext0
 1782 001c FE00 0000 		.long	.LVL13-.Ltext0
 1783 0020 0600      		.word	0x6
 1784 0022 62        		.byte	0x62
 1785 0023 93        		.byte	0x93
 1786 0024 01        		.uleb128 0x1
 1787 0025 63        		.byte	0x63
 1788 0026 93        		.byte	0x93
 1789 0027 01        		.uleb128 0x1
 1790 0028 0000 0000 		.long	0x0
 1791 002c 0000 0000 		.long	0x0
 1792               	.LLST14:
 1793 0030 1601 0000 		.long	.LVL17-.Ltext0
 1794 0034 1801 0000 		.long	.LVL18-.Ltext0
 1795 0038 0600      		.word	0x6
 1796 003a 62        		.byte	0x62
 1797 003b 93        		.byte	0x93
 1798 003c 01        		.uleb128 0x1
 1799 003d 63        		.byte	0x63
 1800 003e 93        		.byte	0x93
 1801 003f 01        		.uleb128 0x1
 1802 0040 0000 0000 		.long	0x0
 1803 0044 0000 0000 		.long	0x0
 1804               	.LLST18:
 1805 0048 4601 0000 		.long	.LVL21-.Ltext0
 1806 004c 6801 0000 		.long	.LVL23-.Ltext0
 1807 0050 0600      		.word	0x6
 1808 0052 68        		.byte	0x68
 1809 0053 93        		.byte	0x93
 1810 0054 01        		.uleb128 0x1
 1811 0055 69        		.byte	0x69
 1812 0056 93        		.byte	0x93
 1813 0057 01        		.uleb128 0x1
 1814 0058 6801 0000 		.long	.LVL23-.Ltext0
 1815 005c AE01 0000 		.long	.LVL32-.Ltext0
 1816 0060 0600      		.word	0x6
 1817 0062 6C        		.byte	0x6c
 1818 0063 93        		.byte	0x93
 1819 0064 01        		.uleb128 0x1
 1820 0065 6D        		.byte	0x6d
 1821 0066 93        		.byte	0x93
 1822 0067 01        		.uleb128 0x1
 1823 0068 AE01 0000 		.long	.LVL32-.Ltext0
 1824 006c C201 0000 		.long	.LVL34-.Ltext0
GAS LISTING C:\Users\21030\AppData\Local\Temp/ccjZa2Dn.s 			page 33


 1825 0070 0C00      		.word	0xc
 1826 0072 62        		.byte	0x62
 1827 0073 93        		.byte	0x93
 1828 0074 01        		.uleb128 0x1
 1829 0075 63        		.byte	0x63
 1830 0076 93        		.byte	0x93
 1831 0077 01        		.uleb128 0x1
 1832 0078 64        		.byte	0x64
 1833 0079 93        		.byte	0x93
 1834 007a 01        		.uleb128 0x1
 1835 007b 65        		.byte	0x65
 1836 007c 93        		.byte	0x93
 1837 007d 01        		.uleb128 0x1
 1838 007e C201 0000 		.long	.LVL34-.Ltext0
 1839 0082 DE01 0000 		.long	.LVL38-.Ltext0
 1840 0086 0600      		.word	0x6
 1841 0088 6C        		.byte	0x6c
 1842 0089 93        		.byte	0x93
 1843 008a 01        		.uleb128 0x1
 1844 008b 6D        		.byte	0x6d
 1845 008c 93        		.byte	0x93
 1846 008d 01        		.uleb128 0x1
 1847 008e DE01 0000 		.long	.LVL38-.Ltext0
 1848 0092 5002 0000 		.long	.LVL41-.Ltext0
 1849 0096 0C00      		.word	0xc
 1850 0098 62        		.byte	0x62
 1851 0099 93        		.byte	0x93
 1852 009a 01        		.uleb128 0x1
 1853 009b 63        		.byte	0x63
 1854 009c 93        		.byte	0x93
 1855 009d 01        		.uleb128 0x1
 1856 009e 64        		.byte	0x64
 1857 009f 93        		.byte	0x93
 1858 00a0 01        		.uleb128 0x1
 1859 00a1 65        		.byte	0x65
 1860 00a2 93        		.byte	0x93
 1861 00a3 01        		.uleb128 0x1
 1862 00a4 0000 0000 		.long	0x0
 1863 00a8 0000 0000 		.long	0x0
 1864               	.LLST19:
 1865 00ac 5601 0000 		.long	.LVL22-.Ltext0
 1866 00b0 5202 0000 		.long	.LVL42-.Ltext0
 1867 00b4 0100      		.word	0x1
 1868 00b6 61        		.byte	0x61
 1869 00b7 0000 0000 		.long	0x0
 1870 00bb 0000 0000 		.long	0x0
 1871               	.LLST20:
 1872 00bf 9E01 0000 		.long	.LVL31-.Ltext0
 1873 00c3 B201 0000 		.long	.LVL33-.Ltext0
 1874 00c7 0C00      		.word	0xc
 1875 00c9 66        		.byte	0x66
 1876 00ca 93        		.byte	0x93
 1877 00cb 01        		.uleb128 0x1
 1878 00cc 67        		.byte	0x67
 1879 00cd 93        		.byte	0x93
 1880 00ce 01        		.uleb128 0x1
 1881 00cf 68        		.byte	0x68
GAS LISTING C:\Users\21030\AppData\Local\Temp/ccjZa2Dn.s 			page 34


 1882 00d0 93        		.byte	0x93
 1883 00d1 01        		.uleb128 0x1
 1884 00d2 69        		.byte	0x69
 1885 00d3 93        		.byte	0x93
 1886 00d4 01        		.uleb128 0x1
 1887 00d5 C801 0000 		.long	.LVL36-.Ltext0
 1888 00d9 D401 0000 		.long	.LVL37-.Ltext0
 1889 00dd 0C00      		.word	0xc
 1890 00df 66        		.byte	0x66
 1891 00e0 93        		.byte	0x93
 1892 00e1 01        		.uleb128 0x1
 1893 00e2 67        		.byte	0x67
 1894 00e3 93        		.byte	0x93
 1895 00e4 01        		.uleb128 0x1
 1896 00e5 68        		.byte	0x68
 1897 00e6 93        		.byte	0x93
 1898 00e7 01        		.uleb128 0x1
 1899 00e8 69        		.byte	0x69
 1900 00e9 93        		.byte	0x93
 1901 00ea 01        		.uleb128 0x1
 1902 00eb 0000 0000 		.long	0x0
 1903 00ef 0000 0000 		.long	0x0
 1904               	.LLST21:
 1905 00f3 C601 0000 		.long	.LVL35-.Ltext0
 1906 00f7 C801 0000 		.long	.LVL36-.Ltext0
 1907 00fb 0C00      		.word	0xc
 1908 00fd 68        		.byte	0x68
 1909 00fe 93        		.byte	0x93
 1910 00ff 01        		.uleb128 0x1
 1911 0100 69        		.byte	0x69
 1912 0101 93        		.byte	0x93
 1913 0102 01        		.uleb128 0x1
 1914 0103 6A        		.byte	0x6a
 1915 0104 93        		.byte	0x93
 1916 0105 01        		.uleb128 0x1
 1917 0106 6B        		.byte	0x6b
 1918 0107 93        		.byte	0x93
 1919 0108 01        		.uleb128 0x1
 1920 0109 0A02 0000 		.long	.LVL39-.Ltext0
 1921 010d 3A02 0000 		.long	.LVL40-.Ltext0
 1922 0111 0C00      		.word	0xc
 1923 0113 66        		.byte	0x66
 1924 0114 93        		.byte	0x93
 1925 0115 01        		.uleb128 0x1
 1926 0116 67        		.byte	0x67
 1927 0117 93        		.byte	0x93
 1928 0118 01        		.uleb128 0x1
 1929 0119 68        		.byte	0x68
 1930 011a 93        		.byte	0x93
 1931 011b 01        		.uleb128 0x1
 1932 011c 69        		.byte	0x69
 1933 011d 93        		.byte	0x93
 1934 011e 01        		.uleb128 0x1
 1935 011f 0000 0000 		.long	0x0
 1936 0123 0000 0000 		.long	0x0
 1937               	.LLST22:
 1938 0127 6C01 0000 		.long	.LVL25-.Ltext0
GAS LISTING C:\Users\21030\AppData\Local\Temp/ccjZa2Dn.s 			page 35


 1939 012b 8C01 0000 		.long	.LVL29-.Ltext0
 1940 012f 0600      		.word	0x6
 1941 0131 6E        		.byte	0x6e
 1942 0132 93        		.byte	0x93
 1943 0133 01        		.uleb128 0x1
 1944 0134 6F        		.byte	0x6f
 1945 0135 93        		.byte	0x93
 1946 0136 01        		.uleb128 0x1
 1947 0137 0000 0000 		.long	0x0
 1948 013b 0000 0000 		.long	0x0
 1949               	.LLST23:
 1950 013f 7C01 0000 		.long	.LVL27-.Ltext0
 1951 0143 8001 0000 		.long	.LVL28-.Ltext0
 1952 0147 0600      		.word	0x6
 1953 0149 62        		.byte	0x62
 1954 014a 93        		.byte	0x93
 1955 014b 01        		.uleb128 0x1
 1956 014c 63        		.byte	0x63
 1957 014d 93        		.byte	0x93
 1958 014e 01        		.uleb128 0x1
 1959 014f 8001 0000 		.long	.LVL28-.Ltext0
 1960 0153 8C01 0000 		.long	.LVL29-.Ltext0
 1961 0157 0C00      		.word	0xc
 1962 0159 62        		.byte	0x62
 1963 015a 93        		.byte	0x93
 1964 015b 01        		.uleb128 0x1
 1965 015c 63        		.byte	0x63
 1966 015d 93        		.byte	0x93
 1967 015e 01        		.uleb128 0x1
 1968 015f 64        		.byte	0x64
 1969 0160 93        		.byte	0x93
 1970 0161 01        		.uleb128 0x1
 1971 0162 65        		.byte	0x65
 1972 0163 93        		.byte	0x93
 1973 0164 01        		.uleb128 0x1
 1974 0165 0000 0000 		.long	0x0
 1975 0169 0000 0000 		.long	0x0
 1976               	.LLST29:
 1977 016d AA02 0000 		.long	.LVL43-.Ltext0
 1978 0171 B002 0000 		.long	.LVL44-.Ltext0
 1979 0175 0100      		.word	0x1
 1980 0177 68        		.byte	0x68
 1981 0178 BA02 0000 		.long	.LVL45-.Ltext0
 1982 017c C002 0000 		.long	.LVL46-.Ltext0
 1983 0180 0100      		.word	0x1
 1984 0182 68        		.byte	0x68
 1985 0183 C402 0000 		.long	.LVL47-.Ltext0
 1986 0187 C602 0000 		.long	.LVL48-.Ltext0
 1987 018b 0100      		.word	0x1
 1988 018d 68        		.byte	0x68
 1989 018e 0000 0000 		.long	0x0
 1990 0192 0000 0000 		.long	0x0
 1991               		.section	.debug_info
 1992 0000 5E08 0000 		.long	0x85e
 1993 0004 0200      		.word	0x2
 1994 0006 0000 0000 		.long	.Ldebug_abbrev0
 1995 000a 04        		.byte	0x4
GAS LISTING C:\Users\21030\AppData\Local\Temp/ccjZa2Dn.s 			page 36


 1996 000b 01        		.uleb128 0x1
 1997 000c 0000 0000 		.long	.LASF68
 1998 0010 01        		.byte	0x1
 1999 0011 0000 0000 		.long	.LASF69
 2000 0015 0000 0000 		.long	.LASF70
 2001 0019 0000 0000 		.long	.Ltext0
 2002 001d 0000 0000 		.long	.Letext0
 2003 0021 0000 0000 		.long	.Ldebug_line0
 2004 0025 02        		.uleb128 0x2
 2005 0026 01        		.byte	0x1
 2006 0027 06        		.byte	0x6
 2007 0028 0000 0000 		.long	.LASF0
 2008 002c 02        		.uleb128 0x2
 2009 002d 01        		.byte	0x1
 2010 002e 08        		.byte	0x8
 2011 002f 0000 0000 		.long	.LASF1
 2012 0033 03        		.uleb128 0x3
 2013 0034 02        		.byte	0x2
 2014 0035 05        		.byte	0x5
 2015 0036 696E 7400 		.string	"int"
 2016 003a 04        		.uleb128 0x4
 2017 003b 0000 0000 		.long	.LASF7
 2018 003f 03        		.byte	0x3
 2019 0040 7C        		.byte	0x7c
 2020 0041 4500 0000 		.long	0x45
 2021 0045 02        		.uleb128 0x2
 2022 0046 02        		.byte	0x2
 2023 0047 07        		.byte	0x7
 2024 0048 0000 0000 		.long	.LASF2
 2025 004c 02        		.uleb128 0x2
 2026 004d 04        		.byte	0x4
 2027 004e 05        		.byte	0x5
 2028 004f 0000 0000 		.long	.LASF3
 2029 0053 02        		.uleb128 0x2
 2030 0054 04        		.byte	0x4
 2031 0055 07        		.byte	0x7
 2032 0056 0000 0000 		.long	.LASF4
 2033 005a 02        		.uleb128 0x2
 2034 005b 08        		.byte	0x8
 2035 005c 05        		.byte	0x5
 2036 005d 0000 0000 		.long	.LASF5
 2037 0061 02        		.uleb128 0x2
 2038 0062 08        		.byte	0x8
 2039 0063 07        		.byte	0x7
 2040 0064 0000 0000 		.long	.LASF6
 2041 0068 05        		.uleb128 0x5
 2042 0069 01        		.byte	0x1
 2043 006a 06        		.byte	0x6
 2044 006b 05        		.uleb128 0x5
 2045 006c 01        		.byte	0x1
 2046 006d 08        		.byte	0x8
 2047 006e 06        		.uleb128 0x6
 2048 006f 7530 3800 		.string	"u08"
 2049 0073 02        		.byte	0x2
 2050 0074 20        		.byte	0x20
 2051 0075 2C00 0000 		.long	0x2c
 2052 0079 06        		.uleb128 0x6
GAS LISTING C:\Users\21030\AppData\Local\Temp/ccjZa2Dn.s 			page 37


 2053 007a 7531 3600 		.string	"u16"
 2054 007e 02        		.byte	0x2
 2055 007f 22        		.byte	0x22
 2056 0080 8400 0000 		.long	0x84
 2057 0084 02        		.uleb128 0x2
 2058 0085 02        		.byte	0x2
 2059 0086 07        		.byte	0x7
 2060 0087 0000 0000 		.long	.LASF8
 2061 008b 02        		.uleb128 0x2
 2062 008c 02        		.byte	0x2
 2063 008d 05        		.byte	0x5
 2064 008e 0000 0000 		.long	.LASF9
 2065 0092 06        		.uleb128 0x6
 2066 0093 7533 3200 		.string	"u32"
 2067 0097 02        		.byte	0x2
 2068 0098 24        		.byte	0x24
 2069 0099 5300 0000 		.long	0x53
 2070 009d 02        		.uleb128 0x2
 2071 009e 01        		.byte	0x1
 2072 009f 06        		.byte	0x6
 2073 00a0 0000 0000 		.long	.LASF10
 2074 00a4 04        		.uleb128 0x4
 2075 00a5 0000 0000 		.long	.LASF11
 2076 00a9 01        		.byte	0x1
 2077 00aa 2A        		.byte	0x2a
 2078 00ab AF00 0000 		.long	0xaf
 2079 00af 07        		.uleb128 0x7
 2080 00b0 02        		.byte	0x2
 2081 00b1 B500 0000 		.long	0xb5
 2082 00b5 08        		.uleb128 0x8
 2083 00b6 01        		.byte	0x1
 2084 00b7 09        		.uleb128 0x9
 2085 00b8 01        		.byte	0x1
 2086 00b9 0000 0000 		.long	.LASF14
 2087 00bd 01        		.byte	0x1
 2088 00be 8A        		.byte	0x8a
 2089 00bf 01        		.byte	0x1
 2090 00c0 01        		.byte	0x1
 2091 00c1 D100 0000 		.long	0xd1
 2092 00c5 0A        		.uleb128 0xa
 2093 00c6 0000 0000 		.long	.LASF16
 2094 00ca 01        		.byte	0x1
 2095 00cb 89        		.byte	0x89
 2096 00cc 6E00 0000 		.long	0x6e
 2097 00d0 00        		.byte	0x0
 2098 00d1 0B        		.uleb128 0xb
 2099 00d2 01        		.byte	0x1
 2100 00d3 0000 0000 		.long	.LASF71
 2101 00d7 01        		.byte	0x1
 2102 00d8 98        		.byte	0x98
 2103 00d9 01        		.byte	0x1
 2104 00da 7900 0000 		.long	0x79
 2105 00de 01        		.byte	0x1
 2106 00df FC00 0000 		.long	0xfc
 2107 00e3 0C        		.uleb128 0xc
 2108 00e4 0D        		.uleb128 0xd
 2109 00e5 0000 0000 		.long	.LASF12
GAS LISTING C:\Users\21030\AppData\Local\Temp/ccjZa2Dn.s 			page 38


 2110 00e9 01        		.byte	0x1
 2111 00ea 9A        		.byte	0x9a
 2112 00eb 3A00 0000 		.long	0x3a
 2113 00ef 0D        		.uleb128 0xd
 2114 00f0 0000 0000 		.long	.LASF13
 2115 00f4 01        		.byte	0x1
 2116 00f5 9A        		.byte	0x9a
 2117 00f6 3A00 0000 		.long	0x3a
 2118 00fa 00        		.byte	0x0
 2119 00fb 00        		.byte	0x0
 2120 00fc 09        		.uleb128 0x9
 2121 00fd 01        		.byte	0x1
 2122 00fe 0000 0000 		.long	.LASF15
 2123 0102 01        		.byte	0x1
 2124 0103 84        		.byte	0x84
 2125 0104 01        		.byte	0x1
 2126 0105 01        		.byte	0x1
 2127 0106 1601 0000 		.long	0x116
 2128 010a 0A        		.uleb128 0xa
 2129 010b 0000 0000 		.long	.LASF16
 2130 010f 01        		.byte	0x1
 2131 0110 83        		.byte	0x83
 2132 0111 6E00 0000 		.long	0x6e
 2133 0115 00        		.byte	0x0
 2134 0116 0E        		.uleb128 0xe
 2135 0117 01        		.byte	0x1
 2136 0118 0000 0000 		.long	.LASF18
 2137 011c 01        		.byte	0x1
 2138 011d 0101      		.word	0x101
 2139 011f 01        		.byte	0x1
 2140 0120 01        		.byte	0x1
 2141 0121 09        		.uleb128 0x9
 2142 0122 01        		.byte	0x1
 2143 0123 0000 0000 		.long	.LASF17
 2144 0127 01        		.byte	0x1
 2145 0128 91        		.byte	0x91
 2146 0129 01        		.byte	0x1
 2147 012a 01        		.byte	0x1
 2148 012b 3B01 0000 		.long	0x13b
 2149 012f 0A        		.uleb128 0xa
 2150 0130 0000 0000 		.long	.LASF16
 2151 0134 01        		.byte	0x1
 2152 0135 90        		.byte	0x90
 2153 0136 6E00 0000 		.long	0x6e
 2154 013a 00        		.byte	0x0
 2155 013b 0E        		.uleb128 0xe
 2156 013c 01        		.byte	0x1
 2157 013d 0000 0000 		.long	.LASF19
 2158 0141 01        		.byte	0x1
 2159 0142 0F01      		.word	0x10f
 2160 0144 01        		.byte	0x1
 2161 0145 01        		.byte	0x1
 2162 0146 09        		.uleb128 0x9
 2163 0147 01        		.byte	0x1
 2164 0148 0000 0000 		.long	.LASF20
 2165 014c 01        		.byte	0x1
 2166 014d BA        		.byte	0xba
GAS LISTING C:\Users\21030\AppData\Local\Temp/ccjZa2Dn.s 			page 39


 2167 014e 01        		.byte	0x1
 2168 014f 01        		.byte	0x1
 2169 0150 6001 0000 		.long	0x160
 2170 0154 0A        		.uleb128 0xa
 2171 0155 0000 0000 		.long	.LASF21
 2172 0159 01        		.byte	0x1
 2173 015a B9        		.byte	0xb9
 2174 015b 6E00 0000 		.long	0x6e
 2175 015f 00        		.byte	0x0
 2176 0160 09        		.uleb128 0x9
 2177 0161 01        		.byte	0x1
 2178 0162 0000 0000 		.long	.LASF22
 2179 0166 01        		.byte	0x1
 2180 0167 5E        		.byte	0x5e
 2181 0168 01        		.byte	0x1
 2182 0169 01        		.byte	0x1
 2183 016a 7B01 0000 		.long	0x17b
 2184 016e 0F        		.uleb128 0xf
 2185 016f 7901 0000 		.long	0x179
 2186 0173 10        		.uleb128 0x10
 2187 0174 0A01 0000 		.long	0x10a
 2188 0178 00        		.byte	0x0
 2189 0179 11        		.uleb128 0x11
 2190 017a 00        		.byte	0x0
 2191 017b 09        		.uleb128 0x9
 2192 017c 01        		.byte	0x1
 2193 017d 0000 0000 		.long	.LASF23
 2194 0181 01        		.byte	0x1
 2195 0182 68        		.byte	0x68
 2196 0183 01        		.byte	0x1
 2197 0184 01        		.byte	0x1
 2198 0185 9101 0000 		.long	0x191
 2199 0189 0C        		.uleb128 0xc
 2200 018a 10        		.uleb128 0x10
 2201 018b C500 0000 		.long	0xc5
 2202 018f 00        		.byte	0x0
 2203 0190 00        		.byte	0x0
 2204 0191 09        		.uleb128 0x9
 2205 0192 01        		.byte	0x1
 2206 0193 0000 0000 		.long	.LASF24
 2207 0197 01        		.byte	0x1
 2208 0198 72        		.byte	0x72
 2209 0199 01        		.byte	0x1
 2210 019a 01        		.byte	0x1
 2211 019b AC01 0000 		.long	0x1ac
 2212 019f 0F        		.uleb128 0xf
 2213 01a0 AA01 0000 		.long	0x1aa
 2214 01a4 10        		.uleb128 0x10
 2215 01a5 2F01 0000 		.long	0x12f
 2216 01a9 00        		.byte	0x0
 2217 01aa 11        		.uleb128 0x11
 2218 01ab 00        		.byte	0x0
 2219 01ac 0E        		.uleb128 0xe
 2220 01ad 01        		.byte	0x1
 2221 01ae 0000 0000 		.long	.LASF25
 2222 01b2 01        		.byte	0x1
 2223 01b3 6B01      		.word	0x16b
GAS LISTING C:\Users\21030\AppData\Local\Temp/ccjZa2Dn.s 			page 40


 2224 01b5 01        		.byte	0x1
 2225 01b6 01        		.byte	0x1
 2226 01b7 0E        		.uleb128 0xe
 2227 01b8 01        		.byte	0x1
 2228 01b9 0000 0000 		.long	.LASF26
 2229 01bd 01        		.byte	0x1
 2230 01be 7301      		.word	0x173
 2231 01c0 01        		.byte	0x1
 2232 01c1 01        		.byte	0x1
 2233 01c2 12        		.uleb128 0x12
 2234 01c3 01        		.byte	0x1
 2235 01c4 0000 0000 		.long	.LASF28
 2236 01c8 01        		.byte	0x1
 2237 01c9 31        		.byte	0x31
 2238 01ca 01        		.byte	0x1
 2239 01cb 0000 0000 		.long	.LFB2
 2240 01cf 0000 0000 		.long	.LFE2
 2241 01d3 02        		.byte	0x2
 2242 01d4 90        		.byte	0x90
 2243 01d5 20        		.uleb128 0x20
 2244 01d6 0102 0000 		.long	0x201
 2245 01da 13        		.uleb128 0x13
 2246 01db 0000 0000 		.long	.LASF34
 2247 01df 01        		.byte	0x1
 2248 01e0 30        		.byte	0x30
 2249 01e1 8400 0000 		.long	0x84
 2250 01e5 06        		.byte	0x6
 2251 01e6 68        		.byte	0x68
 2252 01e7 93        		.byte	0x93
 2253 01e8 01        		.uleb128 0x1
 2254 01e9 69        		.byte	0x69
 2255 01ea 93        		.byte	0x93
 2256 01eb 01        		.uleb128 0x1
 2257 01ec 0D        		.uleb128 0xd
 2258 01ed 0000 0000 		.long	.LASF27
 2259 01f1 01        		.byte	0x1
 2260 01f2 32        		.byte	0x32
 2261 01f3 8400 0000 		.long	0x84
 2262 01f7 14        		.uleb128 0x14
 2263 01f8 6900      		.string	"i"
 2264 01fa 01        		.byte	0x1
 2265 01fb 33        		.byte	0x33
 2266 01fc 8400 0000 		.long	0x84
 2267 0200 00        		.byte	0x0
 2268 0201 12        		.uleb128 0x12
 2269 0202 01        		.byte	0x1
 2270 0203 0000 0000 		.long	.LASF29
 2271 0207 01        		.byte	0x1
 2272 0208 4D        		.byte	0x4d
 2273 0209 01        		.byte	0x1
 2274 020a 0000 0000 		.long	.LFB3
 2275 020e 0000 0000 		.long	.LFE3
 2276 0212 02        		.byte	0x2
 2277 0213 90        		.byte	0x90
 2278 0214 20        		.uleb128 0x20
 2279 0215 DB02 0000 		.long	0x2db
 2280 0219 0D        		.uleb128 0xd
GAS LISTING C:\Users\21030\AppData\Local\Temp/ccjZa2Dn.s 			page 41


 2281 021a 0000 0000 		.long	.LASF30
 2282 021e 01        		.byte	0x1
 2283 021f 4E        		.byte	0x4e
 2284 0220 6E00 0000 		.long	0x6e
 2285 0224 15        		.uleb128 0x15
 2286 0225 4601 0000 		.long	0x146
 2287 0229 0000 0000 		.long	.LBB37
 2288 022d 0000 0000 		.long	.LBE37
 2289 0231 01        		.byte	0x1
 2290 0232 51        		.byte	0x51
 2291 0233 3D02 0000 		.long	0x23d
 2292 0237 10        		.uleb128 0x10
 2293 0238 5401 0000 		.long	0x154
 2294 023c 00        		.byte	0x0
 2295 023d 15        		.uleb128 0x15
 2296 023e 6001 0000 		.long	0x160
 2297 0242 0000 0000 		.long	.LBB39
 2298 0246 0000 0000 		.long	.LBE39
 2299 024a 01        		.byte	0x1
 2300 024b 54        		.byte	0x54
 2301 024c 7902 0000 		.long	0x279
 2302 0250 15        		.uleb128 0x15
 2303 0251 FC00 0000 		.long	0xfc
 2304 0255 0000 0000 		.long	.LBB41
 2305 0259 0000 0000 		.long	.LBE41
 2306 025d 01        		.byte	0x1
 2307 025e 60        		.byte	0x60
 2308 025f 6902 0000 		.long	0x269
 2309 0263 10        		.uleb128 0x10
 2310 0264 0A01 0000 		.long	0x10a
 2311 0268 00        		.byte	0x0
 2312 0269 16        		.uleb128 0x16
 2313 026a 1601 0000 		.long	0x116
 2314 026e 0000 0000 		.long	.LBB43
 2315 0272 0000 0000 		.long	.LBE43
 2316 0276 01        		.byte	0x1
 2317 0277 64        		.byte	0x64
 2318 0278 00        		.byte	0x0
 2319 0279 15        		.uleb128 0x15
 2320 027a 7B01 0000 		.long	0x17b
 2321 027e 0000 0000 		.long	.LBB45
 2322 0282 0000 0000 		.long	.LBE45
 2323 0286 01        		.byte	0x1
 2324 0287 55        		.byte	0x55
 2325 0288 A202 0000 		.long	0x2a2
 2326 028c 17        		.uleb128 0x17
 2327 028d B700 0000 		.long	0xb7
 2328 0291 0000 0000 		.long	.LBB47
 2329 0295 0000 0000 		.long	.LBE47
 2330 0299 01        		.byte	0x1
 2331 029a 6A        		.byte	0x6a
 2332 029b 10        		.uleb128 0x10
 2333 029c C500 0000 		.long	0xc5
 2334 02a0 00        		.byte	0x0
 2335 02a1 00        		.byte	0x0
 2336 02a2 17        		.uleb128 0x17
 2337 02a3 9101 0000 		.long	0x191
GAS LISTING C:\Users\21030\AppData\Local\Temp/ccjZa2Dn.s 			page 42


 2338 02a7 0000 0000 		.long	.LBB49
 2339 02ab 0000 0000 		.long	.LBE49
 2340 02af 01        		.byte	0x1
 2341 02b0 57        		.byte	0x57
 2342 02b1 15        		.uleb128 0x15
 2343 02b2 2101 0000 		.long	0x121
 2344 02b6 0000 0000 		.long	.LBB51
 2345 02ba 0000 0000 		.long	.LBE51
 2346 02be 01        		.byte	0x1
 2347 02bf 74        		.byte	0x74
 2348 02c0 CA02 0000 		.long	0x2ca
 2349 02c4 10        		.uleb128 0x10
 2350 02c5 2F01 0000 		.long	0x12f
 2351 02c9 00        		.byte	0x0
 2352 02ca 16        		.uleb128 0x16
 2353 02cb 3B01 0000 		.long	0x13b
 2354 02cf 0000 0000 		.long	.LBB53
 2355 02d3 0000 0000 		.long	.LBE53
 2356 02d7 01        		.byte	0x1
 2357 02d8 78        		.byte	0x78
 2358 02d9 00        		.byte	0x0
 2359 02da 00        		.byte	0x0
 2360 02db 18        		.uleb128 0x18
 2361 02dc 6001 0000 		.long	0x160
 2362 02e0 0000 0000 		.long	.LFB4
 2363 02e4 0000 0000 		.long	.LFE4
 2364 02e8 02        		.byte	0x2
 2365 02e9 90        		.byte	0x90
 2366 02ea 20        		.uleb128 0x20
 2367 02eb 1803 0000 		.long	0x318
 2368 02ef 15        		.uleb128 0x15
 2369 02f0 FC00 0000 		.long	0xfc
 2370 02f4 0000 0000 		.long	.LBB55
 2371 02f8 0000 0000 		.long	.LBE55
 2372 02fc 01        		.byte	0x1
 2373 02fd 60        		.byte	0x60
 2374 02fe 0803 0000 		.long	0x308
 2375 0302 10        		.uleb128 0x10
 2376 0303 0A01 0000 		.long	0x10a
 2377 0307 00        		.byte	0x0
 2378 0308 16        		.uleb128 0x16
 2379 0309 1601 0000 		.long	0x116
 2380 030d 0000 0000 		.long	.LBB57
 2381 0311 0000 0000 		.long	.LBE57
 2382 0315 01        		.byte	0x1
 2383 0316 64        		.byte	0x64
 2384 0317 00        		.byte	0x0
 2385 0318 18        		.uleb128 0x18
 2386 0319 7B01 0000 		.long	0x17b
 2387 031d 0000 0000 		.long	.LFB5
 2388 0321 0000 0000 		.long	.LFE5
 2389 0325 02        		.byte	0x2
 2390 0326 90        		.byte	0x90
 2391 0327 20        		.uleb128 0x20
 2392 0328 4203 0000 		.long	0x342
 2393 032c 17        		.uleb128 0x17
 2394 032d B700 0000 		.long	0xb7
GAS LISTING C:\Users\21030\AppData\Local\Temp/ccjZa2Dn.s 			page 43


 2395 0331 0000 0000 		.long	.LBB59
 2396 0335 0000 0000 		.long	.LBE59
 2397 0339 01        		.byte	0x1
 2398 033a 6A        		.byte	0x6a
 2399 033b 10        		.uleb128 0x10
 2400 033c C500 0000 		.long	0xc5
 2401 0340 00        		.byte	0x0
 2402 0341 00        		.byte	0x0
 2403 0342 18        		.uleb128 0x18
 2404 0343 9101 0000 		.long	0x191
 2405 0347 0000 0000 		.long	.LFB6
 2406 034b 0000 0000 		.long	.LFE6
 2407 034f 02        		.byte	0x2
 2408 0350 90        		.byte	0x90
 2409 0351 20        		.uleb128 0x20
 2410 0352 7F03 0000 		.long	0x37f
 2411 0356 15        		.uleb128 0x15
 2412 0357 2101 0000 		.long	0x121
 2413 035b 0000 0000 		.long	.LBB61
 2414 035f 0000 0000 		.long	.LBE61
 2415 0363 01        		.byte	0x1
 2416 0364 74        		.byte	0x74
 2417 0365 6F03 0000 		.long	0x36f
 2418 0369 10        		.uleb128 0x10
 2419 036a 2F01 0000 		.long	0x12f
 2420 036e 00        		.byte	0x0
 2421 036f 16        		.uleb128 0x16
 2422 0370 3B01 0000 		.long	0x13b
 2423 0374 0000 0000 		.long	.LBB63
 2424 0378 0000 0000 		.long	.LBE63
 2425 037c 01        		.byte	0x1
 2426 037d 78        		.byte	0x78
 2427 037e 00        		.byte	0x0
 2428 037f 19        		.uleb128 0x19
 2429 0380 01        		.byte	0x1
 2430 0381 0000 0000 		.long	.LASF48
 2431 0385 01        		.byte	0x1
 2432 0386 7D        		.byte	0x7d
 2433 0387 01        		.byte	0x1
 2434 0388 0000 0000 		.long	.LFB7
 2435 038c 0000 0000 		.long	.LFE7
 2436 0390 02        		.byte	0x2
 2437 0391 90        		.byte	0x90
 2438 0392 20        		.uleb128 0x20
 2439 0393 18        		.uleb128 0x18
 2440 0394 FC00 0000 		.long	0xfc
 2441 0398 0000 0000 		.long	.LFB8
 2442 039c 0000 0000 		.long	.LFE8
 2443 03a0 02        		.byte	0x2
 2444 03a1 90        		.byte	0x90
 2445 03a2 20        		.uleb128 0x20
 2446 03a3 AF03 0000 		.long	0x3af
 2447 03a7 1A        		.uleb128 0x1a
 2448 03a8 0A01 0000 		.long	0x10a
 2449 03ac 01        		.byte	0x1
 2450 03ad 68        		.byte	0x68
 2451 03ae 00        		.byte	0x0
GAS LISTING C:\Users\21030\AppData\Local\Temp/ccjZa2Dn.s 			page 44


 2452 03af 18        		.uleb128 0x18
 2453 03b0 B700 0000 		.long	0xb7
 2454 03b4 0000 0000 		.long	.LFB9
 2455 03b8 0000 0000 		.long	.LFE9
 2456 03bc 02        		.byte	0x2
 2457 03bd 90        		.byte	0x90
 2458 03be 20        		.uleb128 0x20
 2459 03bf CB03 0000 		.long	0x3cb
 2460 03c3 1A        		.uleb128 0x1a
 2461 03c4 C500 0000 		.long	0xc5
 2462 03c8 01        		.byte	0x1
 2463 03c9 68        		.byte	0x68
 2464 03ca 00        		.byte	0x0
 2465 03cb 18        		.uleb128 0x18
 2466 03cc 2101 0000 		.long	0x121
 2467 03d0 0000 0000 		.long	.LFB10
 2468 03d4 0000 0000 		.long	.LFE10
 2469 03d8 02        		.byte	0x2
 2470 03d9 90        		.byte	0x90
 2471 03da 20        		.uleb128 0x20
 2472 03db E703 0000 		.long	0x3e7
 2473 03df 1A        		.uleb128 0x1a
 2474 03e0 2F01 0000 		.long	0x12f
 2475 03e4 01        		.byte	0x1
 2476 03e5 68        		.byte	0x68
 2477 03e6 00        		.byte	0x0
 2478 03e7 18        		.uleb128 0x18
 2479 03e8 D100 0000 		.long	0xd1
 2480 03ec 0000 0000 		.long	.LFB11
 2481 03f0 0000 0000 		.long	.LFE11
 2482 03f4 02        		.byte	0x2
 2483 03f5 90        		.byte	0x90
 2484 03f6 20        		.uleb128 0x20
 2485 03f7 1B04 0000 		.long	0x41b
 2486 03fb 1B        		.uleb128 0x1b
 2487 03fc 0000 0000 		.long	.LBB65
 2488 0400 0000 0000 		.long	.LBE65
 2489 0404 1C        		.uleb128 0x1c
 2490 0405 E400 0000 		.long	0xe4
 2491 0409 06        		.byte	0x6
 2492 040a 6E        		.byte	0x6e
 2493 040b 93        		.byte	0x93
 2494 040c 01        		.uleb128 0x1
 2495 040d 6F        		.byte	0x6f
 2496 040e 93        		.byte	0x93
 2497 040f 01        		.uleb128 0x1
 2498 0410 1D        		.uleb128 0x1d
 2499 0411 EF00 0000 		.long	0xef
 2500 0415 0000 0000 		.long	.LLST10
 2501 0419 00        		.byte	0x0
 2502 041a 00        		.byte	0x0
 2503 041b 1E        		.uleb128 0x1e
 2504 041c 01        		.byte	0x1
 2505 041d 0000 0000 		.long	.LASF31
 2506 0421 01        		.byte	0x1
 2507 0422 9E        		.byte	0x9e
 2508 0423 01        		.byte	0x1
GAS LISTING C:\Users\21030\AppData\Local\Temp/ccjZa2Dn.s 			page 45


 2509 0424 7900 0000 		.long	0x79
 2510 0428 0000 0000 		.long	.LFB12
 2511 042c 0000 0000 		.long	.LFE12
 2512 0430 02        		.byte	0x2
 2513 0431 90        		.byte	0x90
 2514 0432 20        		.uleb128 0x20
 2515 0433 6304 0000 		.long	0x463
 2516 0437 1B        		.uleb128 0x1b
 2517 0438 0000 0000 		.long	.LBB66
 2518 043c 0000 0000 		.long	.LBE66
 2519 0440 1F        		.uleb128 0x1f
 2520 0441 0000 0000 		.long	.LASF12
 2521 0445 01        		.byte	0x1
 2522 0446 A0        		.byte	0xa0
 2523 0447 3A00 0000 		.long	0x3a
 2524 044b 06        		.byte	0x6
 2525 044c 6E        		.byte	0x6e
 2526 044d 93        		.byte	0x93
 2527 044e 01        		.uleb128 0x1
 2528 044f 6F        		.byte	0x6f
 2529 0450 93        		.byte	0x93
 2530 0451 01        		.uleb128 0x1
 2531 0452 20        		.uleb128 0x20
 2532 0453 0000 0000 		.long	.LASF13
 2533 0457 01        		.byte	0x1
 2534 0458 A0        		.byte	0xa0
 2535 0459 3A00 0000 		.long	0x3a
 2536 045d 0000 0000 		.long	.LLST12
 2537 0461 00        		.byte	0x0
 2538 0462 00        		.byte	0x0
 2539 0463 1E        		.uleb128 0x1e
 2540 0464 01        		.byte	0x1
 2541 0465 0000 0000 		.long	.LASF32
 2542 0469 01        		.byte	0x1
 2543 046a A5        		.byte	0xa5
 2544 046b 01        		.byte	0x1
 2545 046c 7900 0000 		.long	0x79
 2546 0470 0000 0000 		.long	.LFB13
 2547 0474 0000 0000 		.long	.LFE13
 2548 0478 02        		.byte	0x2
 2549 0479 90        		.byte	0x90
 2550 047a 20        		.uleb128 0x20
 2551 047b AB04 0000 		.long	0x4ab
 2552 047f 1B        		.uleb128 0x1b
 2553 0480 0000 0000 		.long	.LBB67
 2554 0484 0000 0000 		.long	.LBE67
 2555 0488 1F        		.uleb128 0x1f
 2556 0489 0000 0000 		.long	.LASF12
 2557 048d 01        		.byte	0x1
 2558 048e AA        		.byte	0xaa
 2559 048f 3A00 0000 		.long	0x3a
 2560 0493 06        		.byte	0x6
 2561 0494 6E        		.byte	0x6e
 2562 0495 93        		.byte	0x93
 2563 0496 01        		.uleb128 0x1
 2564 0497 6F        		.byte	0x6f
 2565 0498 93        		.byte	0x93
GAS LISTING C:\Users\21030\AppData\Local\Temp/ccjZa2Dn.s 			page 46


 2566 0499 01        		.uleb128 0x1
 2567 049a 20        		.uleb128 0x20
 2568 049b 0000 0000 		.long	.LASF13
 2569 049f 01        		.byte	0x1
 2570 04a0 AA        		.byte	0xaa
 2571 04a1 3A00 0000 		.long	0x3a
 2572 04a5 0000 0000 		.long	.LLST14
 2573 04a9 00        		.byte	0x0
 2574 04aa 00        		.byte	0x0
 2575 04ab 12        		.uleb128 0x12
 2576 04ac 01        		.byte	0x1
 2577 04ad 0000 0000 		.long	.LASF33
 2578 04b1 01        		.byte	0x1
 2579 04b2 AF        		.byte	0xaf
 2580 04b3 01        		.byte	0x1
 2581 04b4 0000 0000 		.long	.LFB14
 2582 04b8 0000 0000 		.long	.LFE14
 2583 04bc 02        		.byte	0x2
 2584 04bd 90        		.byte	0x90
 2585 04be 20        		.uleb128 0x20
 2586 04bf E304 0000 		.long	0x4e3
 2587 04c3 13        		.uleb128 0x13
 2588 04c4 0000 0000 		.long	.LASF21
 2589 04c8 01        		.byte	0x1
 2590 04c9 AE        		.byte	0xae
 2591 04ca 6E00 0000 		.long	0x6e
 2592 04ce 01        		.byte	0x1
 2593 04cf 68        		.byte	0x68
 2594 04d0 13        		.uleb128 0x13
 2595 04d1 0000 0000 		.long	.LASF35
 2596 04d5 01        		.byte	0x1
 2597 04d6 AE        		.byte	0xae
 2598 04d7 AF00 0000 		.long	0xaf
 2599 04db 06        		.byte	0x6
 2600 04dc 66        		.byte	0x66
 2601 04dd 93        		.byte	0x93
 2602 04de 01        		.uleb128 0x1
 2603 04df 67        		.byte	0x67
 2604 04e0 93        		.byte	0x93
 2605 04e1 01        		.uleb128 0x1
 2606 04e2 00        		.byte	0x0
 2607 04e3 18        		.uleb128 0x18
 2608 04e4 4601 0000 		.long	0x146
 2609 04e8 0000 0000 		.long	.LFB15
 2610 04ec 0000 0000 		.long	.LFE15
 2611 04f0 02        		.byte	0x2
 2612 04f1 90        		.byte	0x90
 2613 04f2 20        		.uleb128 0x20
 2614 04f3 FF04 0000 		.long	0x4ff
 2615 04f7 1A        		.uleb128 0x1a
 2616 04f8 5401 0000 		.long	0x154
 2617 04fc 01        		.byte	0x1
 2618 04fd 68        		.byte	0x68
 2619 04fe 00        		.byte	0x0
 2620 04ff 12        		.uleb128 0x12
 2621 0500 01        		.byte	0x1
 2622 0501 0000 0000 		.long	.LASF36
GAS LISTING C:\Users\21030\AppData\Local\Temp/ccjZa2Dn.s 			page 47


 2623 0505 01        		.byte	0x1
 2624 0506 D4        		.byte	0xd4
 2625 0507 01        		.byte	0x1
 2626 0508 0000 0000 		.long	.LFB16
 2627 050c 0000 0000 		.long	.LFE16
 2628 0510 02        		.byte	0x2
 2629 0511 90        		.byte	0x90
 2630 0512 20        		.uleb128 0x20
 2631 0513 8005 0000 		.long	0x580
 2632 0517 21        		.uleb128 0x21
 2633 0518 0000 0000 		.long	.LASF37
 2634 051c 01        		.byte	0x1
 2635 051d D3        		.byte	0xd3
 2636 051e 8400 0000 		.long	0x84
 2637 0522 0000 0000 		.long	.LLST18
 2638 0526 20        		.uleb128 0x20
 2639 0527 0000 0000 		.long	.LASF38
 2640 052b 01        		.byte	0x1
 2641 052c D6        		.byte	0xd6
 2642 052d 6E00 0000 		.long	0x6e
 2643 0531 0000 0000 		.long	.LLST19
 2644 0535 20        		.uleb128 0x20
 2645 0536 0000 0000 		.long	.LASF39
 2646 053a 01        		.byte	0x1
 2647 053b D7        		.byte	0xd7
 2648 053c 9200 0000 		.long	0x92
 2649 0540 0000 0000 		.long	.LLST20
 2650 0544 20        		.uleb128 0x20
 2651 0545 0000 0000 		.long	.LASF40
 2652 0549 01        		.byte	0x1
 2653 054a D8        		.byte	0xd8
 2654 054b 9200 0000 		.long	0x92
 2655 054f 0000 0000 		.long	.LLST21
 2656 0553 17        		.uleb128 0x17
 2657 0554 D100 0000 		.long	0xd1
 2658 0558 0000 0000 		.long	.LBB68
 2659 055c 0000 0000 		.long	.LBE68
 2660 0560 01        		.byte	0x1
 2661 0561 E0        		.byte	0xe0
 2662 0562 1B        		.uleb128 0x1b
 2663 0563 0000 0000 		.long	.LBB70
 2664 0567 0000 0000 		.long	.LBE70
 2665 056b 1D        		.uleb128 0x1d
 2666 056c E400 0000 		.long	0xe4
 2667 0570 0000 0000 		.long	.LLST22
 2668 0574 1D        		.uleb128 0x1d
 2669 0575 EF00 0000 		.long	0xef
 2670 0579 0000 0000 		.long	.LLST23
 2671 057d 00        		.byte	0x0
 2672 057e 00        		.byte	0x0
 2673 057f 00        		.byte	0x0
 2674 0580 22        		.uleb128 0x22
 2675 0581 1601 0000 		.long	0x116
 2676 0585 0000 0000 		.long	.LFB17
 2677 0589 0000 0000 		.long	.LFE17
 2678 058d 02        		.byte	0x2
 2679 058e 90        		.byte	0x90
GAS LISTING C:\Users\21030\AppData\Local\Temp/ccjZa2Dn.s 			page 48


 2680 058f 20        		.uleb128 0x20
 2681 0590 23        		.uleb128 0x23
 2682 0591 01        		.byte	0x1
 2683 0592 0000 0000 		.long	.LASF41
 2684 0596 01        		.byte	0x1
 2685 0597 0701      		.word	0x107
 2686 0599 01        		.byte	0x1
 2687 059a 4C00 0000 		.long	0x4c
 2688 059e 0000 0000 		.long	.LFB18
 2689 05a2 0000 0000 		.long	.LFE18
 2690 05a6 02        		.byte	0x2
 2691 05a7 90        		.byte	0x90
 2692 05a8 20        		.uleb128 0x20
 2693 05a9 22        		.uleb128 0x22
 2694 05aa 3B01 0000 		.long	0x13b
 2695 05ae 0000 0000 		.long	.LFB19
 2696 05b2 0000 0000 		.long	.LFE19
 2697 05b6 02        		.byte	0x2
 2698 05b7 90        		.byte	0x90
 2699 05b8 20        		.uleb128 0x20
 2700 05b9 23        		.uleb128 0x23
 2701 05ba 01        		.byte	0x1
 2702 05bb 0000 0000 		.long	.LASF42
 2703 05bf 01        		.byte	0x1
 2704 05c0 1501      		.word	0x115
 2705 05c2 01        		.byte	0x1
 2706 05c3 4C00 0000 		.long	0x4c
 2707 05c7 0000 0000 		.long	.LFB20
 2708 05cb 0000 0000 		.long	.LFE20
 2709 05cf 02        		.byte	0x2
 2710 05d0 90        		.byte	0x90
 2711 05d1 20        		.uleb128 0x20
 2712 05d2 24        		.uleb128 0x24
 2713 05d3 01        		.byte	0x1
 2714 05d4 0000 0000 		.long	.LASF43
 2715 05d8 01        		.byte	0x1
 2716 05d9 1D01      		.word	0x11d
 2717 05db 01        		.byte	0x1
 2718 05dc 0000 0000 		.long	.LFB21
 2719 05e0 0000 0000 		.long	.LFE21
 2720 05e4 02        		.byte	0x2
 2721 05e5 90        		.byte	0x90
 2722 05e6 20        		.uleb128 0x20
 2723 05e7 FC05 0000 		.long	0x5fc
 2724 05eb 25        		.uleb128 0x25
 2725 05ec 0000 0000 		.long	.LASF44
 2726 05f0 01        		.byte	0x1
 2727 05f1 1C01      		.word	0x11c
 2728 05f3 6E00 0000 		.long	0x6e
 2729 05f7 0000 0000 		.long	.LLST29
 2730 05fb 00        		.byte	0x0
 2731 05fc 24        		.uleb128 0x24
 2732 05fd 01        		.byte	0x1
 2733 05fe 0000 0000 		.long	.LASF45
 2734 0602 01        		.byte	0x1
 2735 0603 3E01      		.word	0x13e
 2736 0605 01        		.byte	0x1
GAS LISTING C:\Users\21030\AppData\Local\Temp/ccjZa2Dn.s 			page 49


 2737 0606 0000 0000 		.long	.LFB22
 2738 060a 0000 0000 		.long	.LFE22
 2739 060e 02        		.byte	0x2
 2740 060f 90        		.byte	0x90
 2741 0610 20        		.uleb128 0x20
 2742 0611 2906 0000 		.long	0x629
 2743 0615 26        		.uleb128 0x26
 2744 0616 0000 0000 		.long	.LASF46
 2745 061a 01        		.byte	0x1
 2746 061b 3D01      		.word	0x13d
 2747 061d 7900 0000 		.long	0x79
 2748 0621 06        		.byte	0x6
 2749 0622 68        		.byte	0x68
 2750 0623 93        		.byte	0x93
 2751 0624 01        		.uleb128 0x1
 2752 0625 69        		.byte	0x69
 2753 0626 93        		.byte	0x93
 2754 0627 01        		.uleb128 0x1
 2755 0628 00        		.byte	0x0
 2756 0629 24        		.uleb128 0x24
 2757 062a 01        		.byte	0x1
 2758 062b 0000 0000 		.long	.LASF47
 2759 062f 01        		.byte	0x1
 2760 0630 5101      		.word	0x151
 2761 0632 01        		.byte	0x1
 2762 0633 0000 0000 		.long	.LFB23
 2763 0637 0000 0000 		.long	.LFE23
 2764 063b 02        		.byte	0x2
 2765 063c 90        		.byte	0x90
 2766 063d 20        		.uleb128 0x20
 2767 063e 6306 0000 		.long	0x663
 2768 0642 27        		.uleb128 0x27
 2769 0643 AC01 0000 		.long	0x1ac
 2770 0647 0000 0000 		.long	.LBB71
 2771 064b 0000 0000 		.long	.LBE71
 2772 064f 01        		.byte	0x1
 2773 0650 5601      		.word	0x156
 2774 0652 27        		.uleb128 0x27
 2775 0653 B701 0000 		.long	0x1b7
 2776 0657 0000 0000 		.long	.LBB73
 2777 065b 0000 0000 		.long	.LBE73
 2778 065f 01        		.byte	0x1
 2779 0660 5701      		.word	0x157
 2780 0662 00        		.byte	0x0
 2781 0663 28        		.uleb128 0x28
 2782 0664 01        		.byte	0x1
 2783 0665 0000 0000 		.long	.LASF49
 2784 0669 01        		.byte	0x1
 2785 066a 5B01      		.word	0x15b
 2786 066c 01        		.byte	0x1
 2787 066d 0000 0000 		.long	.LFB24
 2788 0671 0000 0000 		.long	.LFE24
 2789 0675 02        		.byte	0x2
 2790 0676 90        		.byte	0x90
 2791 0677 20        		.uleb128 0x20
 2792 0678 28        		.uleb128 0x28
 2793 0679 01        		.byte	0x1
GAS LISTING C:\Users\21030\AppData\Local\Temp/ccjZa2Dn.s 			page 50


 2794 067a 0000 0000 		.long	.LASF50
 2795 067e 01        		.byte	0x1
 2796 067f 6301      		.word	0x163
 2797 0681 01        		.byte	0x1
 2798 0682 0000 0000 		.long	.LFB25
 2799 0686 0000 0000 		.long	.LFE25
 2800 068a 02        		.byte	0x2
 2801 068b 90        		.byte	0x90
 2802 068c 20        		.uleb128 0x20
 2803 068d 22        		.uleb128 0x22
 2804 068e AC01 0000 		.long	0x1ac
 2805 0692 0000 0000 		.long	.LFB26
 2806 0696 0000 0000 		.long	.LFE26
 2807 069a 02        		.byte	0x2
 2808 069b 90        		.byte	0x90
 2809 069c 20        		.uleb128 0x20
 2810 069d 22        		.uleb128 0x22
 2811 069e B701 0000 		.long	0x1b7
 2812 06a2 0000 0000 		.long	.LFB27
 2813 06a6 0000 0000 		.long	.LFE27
 2814 06aa 02        		.byte	0x2
 2815 06ab 90        		.byte	0x90
 2816 06ac 20        		.uleb128 0x20
 2817 06ad 24        		.uleb128 0x24
 2818 06ae 01        		.byte	0x1
 2819 06af 0000 0000 		.long	.LASF51
 2820 06b3 01        		.byte	0x1
 2821 06b4 7B01      		.word	0x17b
 2822 06b6 01        		.byte	0x1
 2823 06b7 0000 0000 		.long	.LFB28
 2824 06bb 0000 0000 		.long	.LFE28
 2825 06bf 02        		.byte	0x2
 2826 06c0 90        		.byte	0x90
 2827 06c1 20        		.uleb128 0x20
 2828 06c2 DA06 0000 		.long	0x6da
 2829 06c6 26        		.uleb128 0x26
 2830 06c7 0000 0000 		.long	.LASF52
 2831 06cb 01        		.byte	0x1
 2832 06cc 7A01      		.word	0x17a
 2833 06ce 7900 0000 		.long	0x79
 2834 06d2 06        		.byte	0x6
 2835 06d3 68        		.byte	0x68
 2836 06d4 93        		.byte	0x93
 2837 06d5 01        		.uleb128 0x1
 2838 06d6 69        		.byte	0x69
 2839 06d7 93        		.byte	0x93
 2840 06d8 01        		.uleb128 0x1
 2841 06d9 00        		.byte	0x0
 2842 06da 24        		.uleb128 0x24
 2843 06db 01        		.byte	0x1
 2844 06dc 0000 0000 		.long	.LASF53
 2845 06e0 01        		.byte	0x1
 2846 06e1 8701      		.word	0x187
 2847 06e3 01        		.byte	0x1
 2848 06e4 0000 0000 		.long	.LFB29
 2849 06e8 0000 0000 		.long	.LFE29
 2850 06ec 02        		.byte	0x2
GAS LISTING C:\Users\21030\AppData\Local\Temp/ccjZa2Dn.s 			page 51


 2851 06ed 90        		.byte	0x90
 2852 06ee 20        		.uleb128 0x20
 2853 06ef 0707 0000 		.long	0x707
 2854 06f3 26        		.uleb128 0x26
 2855 06f4 0000 0000 		.long	.LASF52
 2856 06f8 01        		.byte	0x1
 2857 06f9 8601      		.word	0x186
 2858 06fb 7900 0000 		.long	0x79
 2859 06ff 06        		.byte	0x6
 2860 0700 68        		.byte	0x68
 2861 0701 93        		.byte	0x93
 2862 0702 01        		.uleb128 0x1
 2863 0703 69        		.byte	0x69
 2864 0704 93        		.byte	0x93
 2865 0705 01        		.uleb128 0x1
 2866 0706 00        		.byte	0x0
 2867 0707 28        		.uleb128 0x28
 2868 0708 01        		.byte	0x1
 2869 0709 0000 0000 		.long	.LASF54
 2870 070d 01        		.byte	0x1
 2871 070e 9401      		.word	0x194
 2872 0710 01        		.byte	0x1
 2873 0711 0000 0000 		.long	.LFB30
 2874 0715 0000 0000 		.long	.LFE30
 2875 0719 02        		.byte	0x2
 2876 071a 90        		.byte	0x90
 2877 071b 20        		.uleb128 0x20
 2878 071c 28        		.uleb128 0x28
 2879 071d 01        		.byte	0x1
 2880 071e 0000 0000 		.long	.LASF55
 2881 0722 01        		.byte	0x1
 2882 0723 A101      		.word	0x1a1
 2883 0725 01        		.byte	0x1
 2884 0726 0000 0000 		.long	.LFB31
 2885 072a 0000 0000 		.long	.LFE31
 2886 072e 02        		.byte	0x2
 2887 072f 90        		.byte	0x90
 2888 0730 20        		.uleb128 0x20
 2889 0731 28        		.uleb128 0x28
 2890 0732 01        		.byte	0x1
 2891 0733 0000 0000 		.long	.LASF56
 2892 0737 01        		.byte	0x1
 2893 0738 AA01      		.word	0x1aa
 2894 073a 01        		.byte	0x1
 2895 073b 0000 0000 		.long	.LFB32
 2896 073f 0000 0000 		.long	.LFE32
 2897 0743 02        		.byte	0x2
 2898 0744 90        		.byte	0x90
 2899 0745 20        		.uleb128 0x20
 2900 0746 28        		.uleb128 0x28
 2901 0747 01        		.byte	0x1
 2902 0748 0000 0000 		.long	.LASF57
 2903 074c 01        		.byte	0x1
 2904 074d B701      		.word	0x1b7
 2905 074f 01        		.byte	0x1
 2906 0750 0000 0000 		.long	.LFB33
 2907 0754 0000 0000 		.long	.LFE33
GAS LISTING C:\Users\21030\AppData\Local\Temp/ccjZa2Dn.s 			page 52


 2908 0758 02        		.byte	0x2
 2909 0759 90        		.byte	0x90
 2910 075a 20        		.uleb128 0x20
 2911 075b 28        		.uleb128 0x28
 2912 075c 01        		.byte	0x1
 2913 075d 0000 0000 		.long	.LASF58
 2914 0761 01        		.byte	0x1
 2915 0762 C001      		.word	0x1c0
 2916 0764 01        		.byte	0x1
 2917 0765 0000 0000 		.long	.LFB34
 2918 0769 0000 0000 		.long	.LFE34
 2919 076d 02        		.byte	0x2
 2920 076e 90        		.byte	0x90
 2921 076f 20        		.uleb128 0x20
 2922 0770 28        		.uleb128 0x28
 2923 0771 01        		.byte	0x1
 2924 0772 0000 0000 		.long	.LASF59
 2925 0776 01        		.byte	0x1
 2926 0777 C801      		.word	0x1c8
 2927 0779 01        		.byte	0x1
 2928 077a 0000 0000 		.long	.LFB35
 2929 077e 0000 0000 		.long	.LFE35
 2930 0782 02        		.byte	0x2
 2931 0783 90        		.byte	0x90
 2932 0784 20        		.uleb128 0x20
 2933 0785 28        		.uleb128 0x28
 2934 0786 01        		.byte	0x1
 2935 0787 0000 0000 		.long	.LASF60
 2936 078b 01        		.byte	0x1
 2937 078c D001      		.word	0x1d0
 2938 078e 01        		.byte	0x1
 2939 078f 0000 0000 		.long	.LFB36
 2940 0793 0000 0000 		.long	.LFE36
 2941 0797 02        		.byte	0x2
 2942 0798 90        		.byte	0x90
 2943 0799 20        		.uleb128 0x20
 2944 079a 28        		.uleb128 0x28
 2945 079b 01        		.byte	0x1
 2946 079c 0000 0000 		.long	.LASF61
 2947 07a0 01        		.byte	0x1
 2948 07a1 D801      		.word	0x1d8
 2949 07a3 01        		.byte	0x1
 2950 07a4 0000 0000 		.long	.LFB37
 2951 07a8 0000 0000 		.long	.LFE37
 2952 07ac 02        		.byte	0x2
 2953 07ad 90        		.byte	0x90
 2954 07ae 20        		.uleb128 0x20
 2955 07af 29        		.uleb128 0x29
 2956 07b0 A400 0000 		.long	0xa4
 2957 07b4 BF07 0000 		.long	0x7bf
 2958 07b8 2A        		.uleb128 0x2a
 2959 07b9 BF07 0000 		.long	0x7bf
 2960 07bd 07        		.byte	0x7
 2961 07be 00        		.byte	0x0
 2962 07bf 05        		.uleb128 0x5
 2963 07c0 02        		.byte	0x2
 2964 07c1 07        		.byte	0x7
GAS LISTING C:\Users\21030\AppData\Local\Temp/ccjZa2Dn.s 			page 53


 2965 07c2 1F        		.uleb128 0x1f
 2966 07c3 0000 0000 		.long	.LASF62
 2967 07c7 01        		.byte	0x1
 2968 07c8 2B        		.byte	0x2b
 2969 07c9 D307 0000 		.long	0x7d3
 2970 07cd 05        		.byte	0x5
 2971 07ce 03        		.byte	0x3
 2972 07cf 0000 0000 		.long	TimerIntFunc
 2973 07d3 2B        		.uleb128 0x2b
 2974 07d4 AF07 0000 		.long	0x7af
 2975 07d8 29        		.uleb128 0x29
 2976 07d9 8400 0000 		.long	0x84
 2977 07dd E807 0000 		.long	0x7e8
 2978 07e1 2A        		.uleb128 0x2a
 2979 07e2 BF07 0000 		.long	0x7bf
 2980 07e6 05        		.byte	0x5
 2981 07e7 00        		.byte	0x0
 2982 07e8 2C        		.uleb128 0x2c
 2983 07e9 0000 0000 		.long	.LASF63
 2984 07ed 01        		.byte	0x1
 2985 07ee 1F        		.byte	0x1f
 2986 07ef FA07 0000 		.long	0x7fa
 2987 07f3 01        		.byte	0x1
 2988 07f4 05        		.byte	0x5
 2989 07f5 03        		.byte	0x3
 2990 07f6 0000 0000 		.long	TimerPrescaleFactor
 2991 07fa 2D        		.uleb128 0x2d
 2992 07fb D807 0000 		.long	0x7d8
 2993 07ff 29        		.uleb128 0x29
 2994 0800 8400 0000 		.long	0x84
 2995 0804 0F08 0000 		.long	0x80f
 2996 0808 2A        		.uleb128 0x2a
 2997 0809 BF07 0000 		.long	0x7bf
 2998 080d 07        		.byte	0x7
 2999 080e 00        		.byte	0x0
 3000 080f 2C        		.uleb128 0x2c
 3001 0810 0000 0000 		.long	.LASF64
 3002 0814 01        		.byte	0x1
 3003 0815 22        		.byte	0x22
 3004 0816 2108 0000 		.long	0x821
 3005 081a 01        		.byte	0x1
 3006 081b 05        		.byte	0x5
 3007 081c 03        		.byte	0x3
 3008 081d 0000 0000 		.long	TimerRTCPrescaleFactor
 3009 0821 2D        		.uleb128 0x2d
 3010 0822 FF07 0000 		.long	0x7ff
 3011 0826 2C        		.uleb128 0x2c
 3012 0827 0000 0000 		.long	.LASF65
 3013 082b 01        		.byte	0x1
 3014 082c 26        		.byte	0x26
 3015 082d 3808 0000 		.long	0x838
 3016 0831 01        		.byte	0x1
 3017 0832 05        		.byte	0x5
 3018 0833 03        		.byte	0x3
 3019 0834 0000 0000 		.long	TimerPauseReg
 3020 0838 2B        		.uleb128 0x2b
 3021 0839 5300 0000 		.long	0x53
GAS LISTING C:\Users\21030\AppData\Local\Temp/ccjZa2Dn.s 			page 54


 3022 083d 2C        		.uleb128 0x2c
 3023 083e 0000 0000 		.long	.LASF66
 3024 0842 01        		.byte	0x1
 3025 0843 27        		.byte	0x27
 3026 0844 3808 0000 		.long	0x838
 3027 0848 01        		.byte	0x1
 3028 0849 05        		.byte	0x5
 3029 084a 03        		.byte	0x3
 3030 084b 0000 0000 		.long	Timer0Reg0
 3031 084f 2C        		.uleb128 0x2c
 3032 0850 0000 0000 		.long	.LASF67
 3033 0854 01        		.byte	0x1
 3034 0855 28        		.byte	0x28
 3035 0856 3808 0000 		.long	0x838
 3036 085a 01        		.byte	0x1
 3037 085b 05        		.byte	0x5
 3038 085c 03        		.byte	0x3
 3039 085d 0000 0000 		.long	Timer2Reg0
 3040 0861 00        		.byte	0x0
 3041               		.section	.debug_abbrev
 3042 0000 01        		.uleb128 0x1
 3043 0001 11        		.uleb128 0x11
 3044 0002 01        		.byte	0x1
 3045 0003 25        		.uleb128 0x25
 3046 0004 0E        		.uleb128 0xe
 3047 0005 13        		.uleb128 0x13
 3048 0006 0B        		.uleb128 0xb
 3049 0007 03        		.uleb128 0x3
 3050 0008 0E        		.uleb128 0xe
 3051 0009 1B        		.uleb128 0x1b
 3052 000a 0E        		.uleb128 0xe
 3053 000b 11        		.uleb128 0x11
 3054 000c 01        		.uleb128 0x1
 3055 000d 12        		.uleb128 0x12
 3056 000e 01        		.uleb128 0x1
 3057 000f 10        		.uleb128 0x10
 3058 0010 06        		.uleb128 0x6
 3059 0011 00        		.byte	0x0
 3060 0012 00        		.byte	0x0
 3061 0013 02        		.uleb128 0x2
 3062 0014 24        		.uleb128 0x24
 3063 0015 00        		.byte	0x0
 3064 0016 0B        		.uleb128 0xb
 3065 0017 0B        		.uleb128 0xb
 3066 0018 3E        		.uleb128 0x3e
 3067 0019 0B        		.uleb128 0xb
 3068 001a 03        		.uleb128 0x3
 3069 001b 0E        		.uleb128 0xe
 3070 001c 00        		.byte	0x0
 3071 001d 00        		.byte	0x0
 3072 001e 03        		.uleb128 0x3
 3073 001f 24        		.uleb128 0x24
 3074 0020 00        		.byte	0x0
 3075 0021 0B        		.uleb128 0xb
 3076 0022 0B        		.uleb128 0xb
 3077 0023 3E        		.uleb128 0x3e
 3078 0024 0B        		.uleb128 0xb
GAS LISTING C:\Users\21030\AppData\Local\Temp/ccjZa2Dn.s 			page 55


 3079 0025 03        		.uleb128 0x3
 3080 0026 08        		.uleb128 0x8
 3081 0027 00        		.byte	0x0
 3082 0028 00        		.byte	0x0
 3083 0029 04        		.uleb128 0x4
 3084 002a 16        		.uleb128 0x16
 3085 002b 00        		.byte	0x0
 3086 002c 03        		.uleb128 0x3
 3087 002d 0E        		.uleb128 0xe
 3088 002e 3A        		.uleb128 0x3a
 3089 002f 0B        		.uleb128 0xb
 3090 0030 3B        		.uleb128 0x3b
 3091 0031 0B        		.uleb128 0xb
 3092 0032 49        		.uleb128 0x49
 3093 0033 13        		.uleb128 0x13
 3094 0034 00        		.byte	0x0
 3095 0035 00        		.byte	0x0
 3096 0036 05        		.uleb128 0x5
 3097 0037 24        		.uleb128 0x24
 3098 0038 00        		.byte	0x0
 3099 0039 0B        		.uleb128 0xb
 3100 003a 0B        		.uleb128 0xb
 3101 003b 3E        		.uleb128 0x3e
 3102 003c 0B        		.uleb128 0xb
 3103 003d 00        		.byte	0x0
 3104 003e 00        		.byte	0x0
 3105 003f 06        		.uleb128 0x6
 3106 0040 16        		.uleb128 0x16
 3107 0041 00        		.byte	0x0
 3108 0042 03        		.uleb128 0x3
 3109 0043 08        		.uleb128 0x8
 3110 0044 3A        		.uleb128 0x3a
 3111 0045 0B        		.uleb128 0xb
 3112 0046 3B        		.uleb128 0x3b
 3113 0047 0B        		.uleb128 0xb
 3114 0048 49        		.uleb128 0x49
 3115 0049 13        		.uleb128 0x13
 3116 004a 00        		.byte	0x0
 3117 004b 00        		.byte	0x0
 3118 004c 07        		.uleb128 0x7
 3119 004d 0F        		.uleb128 0xf
 3120 004e 00        		.byte	0x0
 3121 004f 0B        		.uleb128 0xb
 3122 0050 0B        		.uleb128 0xb
 3123 0051 49        		.uleb128 0x49
 3124 0052 13        		.uleb128 0x13
 3125 0053 00        		.byte	0x0
 3126 0054 00        		.byte	0x0
 3127 0055 08        		.uleb128 0x8
 3128 0056 15        		.uleb128 0x15
 3129 0057 00        		.byte	0x0
 3130 0058 27        		.uleb128 0x27
 3131 0059 0C        		.uleb128 0xc
 3132 005a 00        		.byte	0x0
 3133 005b 00        		.byte	0x0
 3134 005c 09        		.uleb128 0x9
 3135 005d 2E        		.uleb128 0x2e
GAS LISTING C:\Users\21030\AppData\Local\Temp/ccjZa2Dn.s 			page 56


 3136 005e 01        		.byte	0x1
 3137 005f 3F        		.uleb128 0x3f
 3138 0060 0C        		.uleb128 0xc
 3139 0061 03        		.uleb128 0x3
 3140 0062 0E        		.uleb128 0xe
 3141 0063 3A        		.uleb128 0x3a
 3142 0064 0B        		.uleb128 0xb
 3143 0065 3B        		.uleb128 0x3b
 3144 0066 0B        		.uleb128 0xb
 3145 0067 27        		.uleb128 0x27
 3146 0068 0C        		.uleb128 0xc
 3147 0069 20        		.uleb128 0x20
 3148 006a 0B        		.uleb128 0xb
 3149 006b 01        		.uleb128 0x1
 3150 006c 13        		.uleb128 0x13
 3151 006d 00        		.byte	0x0
 3152 006e 00        		.byte	0x0
 3153 006f 0A        		.uleb128 0xa
 3154 0070 05        		.uleb128 0x5
 3155 0071 00        		.byte	0x0
 3156 0072 03        		.uleb128 0x3
 3157 0073 0E        		.uleb128 0xe
 3158 0074 3A        		.uleb128 0x3a
 3159 0075 0B        		.uleb128 0xb
 3160 0076 3B        		.uleb128 0x3b
 3161 0077 0B        		.uleb128 0xb
 3162 0078 49        		.uleb128 0x49
 3163 0079 13        		.uleb128 0x13
 3164 007a 00        		.byte	0x0
 3165 007b 00        		.byte	0x0
 3166 007c 0B        		.uleb128 0xb
 3167 007d 2E        		.uleb128 0x2e
 3168 007e 01        		.byte	0x1
 3169 007f 3F        		.uleb128 0x3f
 3170 0080 0C        		.uleb128 0xc
 3171 0081 03        		.uleb128 0x3
 3172 0082 0E        		.uleb128 0xe
 3173 0083 3A        		.uleb128 0x3a
 3174 0084 0B        		.uleb128 0xb
 3175 0085 3B        		.uleb128 0x3b
 3176 0086 0B        		.uleb128 0xb
 3177 0087 27        		.uleb128 0x27
 3178 0088 0C        		.uleb128 0xc
 3179 0089 49        		.uleb128 0x49
 3180 008a 13        		.uleb128 0x13
 3181 008b 20        		.uleb128 0x20
 3182 008c 0B        		.uleb128 0xb
 3183 008d 01        		.uleb128 0x1
 3184 008e 13        		.uleb128 0x13
 3185 008f 00        		.byte	0x0
 3186 0090 00        		.byte	0x0
 3187 0091 0C        		.uleb128 0xc
 3188 0092 0B        		.uleb128 0xb
 3189 0093 01        		.byte	0x1
 3190 0094 00        		.byte	0x0
 3191 0095 00        		.byte	0x0
 3192 0096 0D        		.uleb128 0xd
GAS LISTING C:\Users\21030\AppData\Local\Temp/ccjZa2Dn.s 			page 57


 3193 0097 34        		.uleb128 0x34
 3194 0098 00        		.byte	0x0
 3195 0099 03        		.uleb128 0x3
 3196 009a 0E        		.uleb128 0xe
 3197 009b 3A        		.uleb128 0x3a
 3198 009c 0B        		.uleb128 0xb
 3199 009d 3B        		.uleb128 0x3b
 3200 009e 0B        		.uleb128 0xb
 3201 009f 49        		.uleb128 0x49
 3202 00a0 13        		.uleb128 0x13
 3203 00a1 00        		.byte	0x0
 3204 00a2 00        		.byte	0x0
 3205 00a3 0E        		.uleb128 0xe
 3206 00a4 2E        		.uleb128 0x2e
 3207 00a5 00        		.byte	0x0
 3208 00a6 3F        		.uleb128 0x3f
 3209 00a7 0C        		.uleb128 0xc
 3210 00a8 03        		.uleb128 0x3
 3211 00a9 0E        		.uleb128 0xe
 3212 00aa 3A        		.uleb128 0x3a
 3213 00ab 0B        		.uleb128 0xb
 3214 00ac 3B        		.uleb128 0x3b
 3215 00ad 05        		.uleb128 0x5
 3216 00ae 27        		.uleb128 0x27
 3217 00af 0C        		.uleb128 0xc
 3218 00b0 20        		.uleb128 0x20
 3219 00b1 0B        		.uleb128 0xb
 3220 00b2 00        		.byte	0x0
 3221 00b3 00        		.byte	0x0
 3222 00b4 0F        		.uleb128 0xf
 3223 00b5 0B        		.uleb128 0xb
 3224 00b6 01        		.byte	0x1
 3225 00b7 01        		.uleb128 0x1
 3226 00b8 13        		.uleb128 0x13
 3227 00b9 00        		.byte	0x0
 3228 00ba 00        		.byte	0x0
 3229 00bb 10        		.uleb128 0x10
 3230 00bc 05        		.uleb128 0x5
 3231 00bd 00        		.byte	0x0
 3232 00be 31        		.uleb128 0x31
 3233 00bf 13        		.uleb128 0x13
 3234 00c0 00        		.byte	0x0
 3235 00c1 00        		.byte	0x0
 3236 00c2 11        		.uleb128 0x11
 3237 00c3 0B        		.uleb128 0xb
 3238 00c4 00        		.byte	0x0
 3239 00c5 00        		.byte	0x0
 3240 00c6 00        		.byte	0x0
 3241 00c7 12        		.uleb128 0x12
 3242 00c8 2E        		.uleb128 0x2e
 3243 00c9 01        		.byte	0x1
 3244 00ca 3F        		.uleb128 0x3f
 3245 00cb 0C        		.uleb128 0xc
 3246 00cc 03        		.uleb128 0x3
 3247 00cd 0E        		.uleb128 0xe
 3248 00ce 3A        		.uleb128 0x3a
 3249 00cf 0B        		.uleb128 0xb
GAS LISTING C:\Users\21030\AppData\Local\Temp/ccjZa2Dn.s 			page 58


 3250 00d0 3B        		.uleb128 0x3b
 3251 00d1 0B        		.uleb128 0xb
 3252 00d2 27        		.uleb128 0x27
 3253 00d3 0C        		.uleb128 0xc
 3254 00d4 11        		.uleb128 0x11
 3255 00d5 01        		.uleb128 0x1
 3256 00d6 12        		.uleb128 0x12
 3257 00d7 01        		.uleb128 0x1
 3258 00d8 40        		.uleb128 0x40
 3259 00d9 0A        		.uleb128 0xa
 3260 00da 01        		.uleb128 0x1
 3261 00db 13        		.uleb128 0x13
 3262 00dc 00        		.byte	0x0
 3263 00dd 00        		.byte	0x0
 3264 00de 13        		.uleb128 0x13
 3265 00df 05        		.uleb128 0x5
 3266 00e0 00        		.byte	0x0
 3267 00e1 03        		.uleb128 0x3
 3268 00e2 0E        		.uleb128 0xe
 3269 00e3 3A        		.uleb128 0x3a
 3270 00e4 0B        		.uleb128 0xb
 3271 00e5 3B        		.uleb128 0x3b
 3272 00e6 0B        		.uleb128 0xb
 3273 00e7 49        		.uleb128 0x49
 3274 00e8 13        		.uleb128 0x13
 3275 00e9 02        		.uleb128 0x2
 3276 00ea 0A        		.uleb128 0xa
 3277 00eb 00        		.byte	0x0
 3278 00ec 00        		.byte	0x0
 3279 00ed 14        		.uleb128 0x14
 3280 00ee 34        		.uleb128 0x34
 3281 00ef 00        		.byte	0x0
 3282 00f0 03        		.uleb128 0x3
 3283 00f1 08        		.uleb128 0x8
 3284 00f2 3A        		.uleb128 0x3a
 3285 00f3 0B        		.uleb128 0xb
 3286 00f4 3B        		.uleb128 0x3b
 3287 00f5 0B        		.uleb128 0xb
 3288 00f6 49        		.uleb128 0x49
 3289 00f7 13        		.uleb128 0x13
 3290 00f8 00        		.byte	0x0
 3291 00f9 00        		.byte	0x0
 3292 00fa 15        		.uleb128 0x15
 3293 00fb 1D        		.uleb128 0x1d
 3294 00fc 01        		.byte	0x1
 3295 00fd 31        		.uleb128 0x31
 3296 00fe 13        		.uleb128 0x13
 3297 00ff 11        		.uleb128 0x11
 3298 0100 01        		.uleb128 0x1
 3299 0101 12        		.uleb128 0x12
 3300 0102 01        		.uleb128 0x1
 3301 0103 58        		.uleb128 0x58
 3302 0104 0B        		.uleb128 0xb
 3303 0105 59        		.uleb128 0x59
 3304 0106 0B        		.uleb128 0xb
 3305 0107 01        		.uleb128 0x1
 3306 0108 13        		.uleb128 0x13
GAS LISTING C:\Users\21030\AppData\Local\Temp/ccjZa2Dn.s 			page 59


 3307 0109 00        		.byte	0x0
 3308 010a 00        		.byte	0x0
 3309 010b 16        		.uleb128 0x16
 3310 010c 1D        		.uleb128 0x1d
 3311 010d 00        		.byte	0x0
 3312 010e 31        		.uleb128 0x31
 3313 010f 13        		.uleb128 0x13
 3314 0110 11        		.uleb128 0x11
 3315 0111 01        		.uleb128 0x1
 3316 0112 12        		.uleb128 0x12
 3317 0113 01        		.uleb128 0x1
 3318 0114 58        		.uleb128 0x58
 3319 0115 0B        		.uleb128 0xb
 3320 0116 59        		.uleb128 0x59
 3321 0117 0B        		.uleb128 0xb
 3322 0118 00        		.byte	0x0
 3323 0119 00        		.byte	0x0
 3324 011a 17        		.uleb128 0x17
 3325 011b 1D        		.uleb128 0x1d
 3326 011c 01        		.byte	0x1
 3327 011d 31        		.uleb128 0x31
 3328 011e 13        		.uleb128 0x13
 3329 011f 11        		.uleb128 0x11
 3330 0120 01        		.uleb128 0x1
 3331 0121 12        		.uleb128 0x12
 3332 0122 01        		.uleb128 0x1
 3333 0123 58        		.uleb128 0x58
 3334 0124 0B        		.uleb128 0xb
 3335 0125 59        		.uleb128 0x59
 3336 0126 0B        		.uleb128 0xb
 3337 0127 00        		.byte	0x0
 3338 0128 00        		.byte	0x0
 3339 0129 18        		.uleb128 0x18
 3340 012a 2E        		.uleb128 0x2e
 3341 012b 01        		.byte	0x1
 3342 012c 31        		.uleb128 0x31
 3343 012d 13        		.uleb128 0x13
 3344 012e 11        		.uleb128 0x11
 3345 012f 01        		.uleb128 0x1
 3346 0130 12        		.uleb128 0x12
 3347 0131 01        		.uleb128 0x1
 3348 0132 40        		.uleb128 0x40
 3349 0133 0A        		.uleb128 0xa
 3350 0134 01        		.uleb128 0x1
 3351 0135 13        		.uleb128 0x13
 3352 0136 00        		.byte	0x0
 3353 0137 00        		.byte	0x0
 3354 0138 19        		.uleb128 0x19
 3355 0139 2E        		.uleb128 0x2e
 3356 013a 00        		.byte	0x0
 3357 013b 3F        		.uleb128 0x3f
 3358 013c 0C        		.uleb128 0xc
 3359 013d 03        		.uleb128 0x3
 3360 013e 0E        		.uleb128 0xe
 3361 013f 3A        		.uleb128 0x3a
 3362 0140 0B        		.uleb128 0xb
 3363 0141 3B        		.uleb128 0x3b
GAS LISTING C:\Users\21030\AppData\Local\Temp/ccjZa2Dn.s 			page 60


 3364 0142 0B        		.uleb128 0xb
 3365 0143 27        		.uleb128 0x27
 3366 0144 0C        		.uleb128 0xc
 3367 0145 11        		.uleb128 0x11
 3368 0146 01        		.uleb128 0x1
 3369 0147 12        		.uleb128 0x12
 3370 0148 01        		.uleb128 0x1
 3371 0149 40        		.uleb128 0x40
 3372 014a 0A        		.uleb128 0xa
 3373 014b 00        		.byte	0x0
 3374 014c 00        		.byte	0x0
 3375 014d 1A        		.uleb128 0x1a
 3376 014e 05        		.uleb128 0x5
 3377 014f 00        		.byte	0x0
 3378 0150 31        		.uleb128 0x31
 3379 0151 13        		.uleb128 0x13
 3380 0152 02        		.uleb128 0x2
 3381 0153 0A        		.uleb128 0xa
 3382 0154 00        		.byte	0x0
 3383 0155 00        		.byte	0x0
 3384 0156 1B        		.uleb128 0x1b
 3385 0157 0B        		.uleb128 0xb
 3386 0158 01        		.byte	0x1
 3387 0159 11        		.uleb128 0x11
 3388 015a 01        		.uleb128 0x1
 3389 015b 12        		.uleb128 0x12
 3390 015c 01        		.uleb128 0x1
 3391 015d 00        		.byte	0x0
 3392 015e 00        		.byte	0x0
 3393 015f 1C        		.uleb128 0x1c
 3394 0160 34        		.uleb128 0x34
 3395 0161 00        		.byte	0x0
 3396 0162 31        		.uleb128 0x31
 3397 0163 13        		.uleb128 0x13
 3398 0164 02        		.uleb128 0x2
 3399 0165 0A        		.uleb128 0xa
 3400 0166 00        		.byte	0x0
 3401 0167 00        		.byte	0x0
 3402 0168 1D        		.uleb128 0x1d
 3403 0169 34        		.uleb128 0x34
 3404 016a 00        		.byte	0x0
 3405 016b 31        		.uleb128 0x31
 3406 016c 13        		.uleb128 0x13
 3407 016d 02        		.uleb128 0x2
 3408 016e 06        		.uleb128 0x6
 3409 016f 00        		.byte	0x0
 3410 0170 00        		.byte	0x0
 3411 0171 1E        		.uleb128 0x1e
 3412 0172 2E        		.uleb128 0x2e
 3413 0173 01        		.byte	0x1
 3414 0174 3F        		.uleb128 0x3f
 3415 0175 0C        		.uleb128 0xc
 3416 0176 03        		.uleb128 0x3
 3417 0177 0E        		.uleb128 0xe
 3418 0178 3A        		.uleb128 0x3a
 3419 0179 0B        		.uleb128 0xb
 3420 017a 3B        		.uleb128 0x3b
GAS LISTING C:\Users\21030\AppData\Local\Temp/ccjZa2Dn.s 			page 61


 3421 017b 0B        		.uleb128 0xb
 3422 017c 27        		.uleb128 0x27
 3423 017d 0C        		.uleb128 0xc
 3424 017e 49        		.uleb128 0x49
 3425 017f 13        		.uleb128 0x13
 3426 0180 11        		.uleb128 0x11
 3427 0181 01        		.uleb128 0x1
 3428 0182 12        		.uleb128 0x12
 3429 0183 01        		.uleb128 0x1
 3430 0184 40        		.uleb128 0x40
 3431 0185 0A        		.uleb128 0xa
 3432 0186 01        		.uleb128 0x1
 3433 0187 13        		.uleb128 0x13
 3434 0188 00        		.byte	0x0
 3435 0189 00        		.byte	0x0
 3436 018a 1F        		.uleb128 0x1f
 3437 018b 34        		.uleb128 0x34
 3438 018c 00        		.byte	0x0
 3439 018d 03        		.uleb128 0x3
 3440 018e 0E        		.uleb128 0xe
 3441 018f 3A        		.uleb128 0x3a
 3442 0190 0B        		.uleb128 0xb
 3443 0191 3B        		.uleb128 0x3b
 3444 0192 0B        		.uleb128 0xb
 3445 0193 49        		.uleb128 0x49
 3446 0194 13        		.uleb128 0x13
 3447 0195 02        		.uleb128 0x2
 3448 0196 0A        		.uleb128 0xa
 3449 0197 00        		.byte	0x0
 3450 0198 00        		.byte	0x0
 3451 0199 20        		.uleb128 0x20
 3452 019a 34        		.uleb128 0x34
 3453 019b 00        		.byte	0x0
 3454 019c 03        		.uleb128 0x3
 3455 019d 0E        		.uleb128 0xe
 3456 019e 3A        		.uleb128 0x3a
 3457 019f 0B        		.uleb128 0xb
 3458 01a0 3B        		.uleb128 0x3b
 3459 01a1 0B        		.uleb128 0xb
 3460 01a2 49        		.uleb128 0x49
 3461 01a3 13        		.uleb128 0x13
 3462 01a4 02        		.uleb128 0x2
 3463 01a5 06        		.uleb128 0x6
 3464 01a6 00        		.byte	0x0
 3465 01a7 00        		.byte	0x0
 3466 01a8 21        		.uleb128 0x21
 3467 01a9 05        		.uleb128 0x5
 3468 01aa 00        		.byte	0x0
 3469 01ab 03        		.uleb128 0x3
 3470 01ac 0E        		.uleb128 0xe
 3471 01ad 3A        		.uleb128 0x3a
 3472 01ae 0B        		.uleb128 0xb
 3473 01af 3B        		.uleb128 0x3b
 3474 01b0 0B        		.uleb128 0xb
 3475 01b1 49        		.uleb128 0x49
 3476 01b2 13        		.uleb128 0x13
 3477 01b3 02        		.uleb128 0x2
GAS LISTING C:\Users\21030\AppData\Local\Temp/ccjZa2Dn.s 			page 62


 3478 01b4 06        		.uleb128 0x6
 3479 01b5 00        		.byte	0x0
 3480 01b6 00        		.byte	0x0
 3481 01b7 22        		.uleb128 0x22
 3482 01b8 2E        		.uleb128 0x2e
 3483 01b9 00        		.byte	0x0
 3484 01ba 31        		.uleb128 0x31
 3485 01bb 13        		.uleb128 0x13
 3486 01bc 11        		.uleb128 0x11
 3487 01bd 01        		.uleb128 0x1
 3488 01be 12        		.uleb128 0x12
 3489 01bf 01        		.uleb128 0x1
 3490 01c0 40        		.uleb128 0x40
 3491 01c1 0A        		.uleb128 0xa
 3492 01c2 00        		.byte	0x0
 3493 01c3 00        		.byte	0x0
 3494 01c4 23        		.uleb128 0x23
 3495 01c5 2E        		.uleb128 0x2e
 3496 01c6 00        		.byte	0x0
 3497 01c7 3F        		.uleb128 0x3f
 3498 01c8 0C        		.uleb128 0xc
 3499 01c9 03        		.uleb128 0x3
 3500 01ca 0E        		.uleb128 0xe
 3501 01cb 3A        		.uleb128 0x3a
 3502 01cc 0B        		.uleb128 0xb
 3503 01cd 3B        		.uleb128 0x3b
 3504 01ce 05        		.uleb128 0x5
 3505 01cf 27        		.uleb128 0x27
 3506 01d0 0C        		.uleb128 0xc
 3507 01d1 49        		.uleb128 0x49
 3508 01d2 13        		.uleb128 0x13
 3509 01d3 11        		.uleb128 0x11
 3510 01d4 01        		.uleb128 0x1
 3511 01d5 12        		.uleb128 0x12
 3512 01d6 01        		.uleb128 0x1
 3513 01d7 40        		.uleb128 0x40
 3514 01d8 0A        		.uleb128 0xa
 3515 01d9 00        		.byte	0x0
 3516 01da 00        		.byte	0x0
 3517 01db 24        		.uleb128 0x24
 3518 01dc 2E        		.uleb128 0x2e
 3519 01dd 01        		.byte	0x1
 3520 01de 3F        		.uleb128 0x3f
 3521 01df 0C        		.uleb128 0xc
 3522 01e0 03        		.uleb128 0x3
 3523 01e1 0E        		.uleb128 0xe
 3524 01e2 3A        		.uleb128 0x3a
 3525 01e3 0B        		.uleb128 0xb
 3526 01e4 3B        		.uleb128 0x3b
 3527 01e5 05        		.uleb128 0x5
 3528 01e6 27        		.uleb128 0x27
 3529 01e7 0C        		.uleb128 0xc
 3530 01e8 11        		.uleb128 0x11
 3531 01e9 01        		.uleb128 0x1
 3532 01ea 12        		.uleb128 0x12
 3533 01eb 01        		.uleb128 0x1
 3534 01ec 40        		.uleb128 0x40
GAS LISTING C:\Users\21030\AppData\Local\Temp/ccjZa2Dn.s 			page 63


 3535 01ed 0A        		.uleb128 0xa
 3536 01ee 01        		.uleb128 0x1
 3537 01ef 13        		.uleb128 0x13
 3538 01f0 00        		.byte	0x0
 3539 01f1 00        		.byte	0x0
 3540 01f2 25        		.uleb128 0x25
 3541 01f3 05        		.uleb128 0x5
 3542 01f4 00        		.byte	0x0
 3543 01f5 03        		.uleb128 0x3
 3544 01f6 0E        		.uleb128 0xe
 3545 01f7 3A        		.uleb128 0x3a
 3546 01f8 0B        		.uleb128 0xb
 3547 01f9 3B        		.uleb128 0x3b
 3548 01fa 05        		.uleb128 0x5
 3549 01fb 49        		.uleb128 0x49
 3550 01fc 13        		.uleb128 0x13
 3551 01fd 02        		.uleb128 0x2
 3552 01fe 06        		.uleb128 0x6
 3553 01ff 00        		.byte	0x0
 3554 0200 00        		.byte	0x0
 3555 0201 26        		.uleb128 0x26
 3556 0202 05        		.uleb128 0x5
 3557 0203 00        		.byte	0x0
 3558 0204 03        		.uleb128 0x3
 3559 0205 0E        		.uleb128 0xe
 3560 0206 3A        		.uleb128 0x3a
 3561 0207 0B        		.uleb128 0xb
 3562 0208 3B        		.uleb128 0x3b
 3563 0209 05        		.uleb128 0x5
 3564 020a 49        		.uleb128 0x49
 3565 020b 13        		.uleb128 0x13
 3566 020c 02        		.uleb128 0x2
 3567 020d 0A        		.uleb128 0xa
 3568 020e 00        		.byte	0x0
 3569 020f 00        		.byte	0x0
 3570 0210 27        		.uleb128 0x27
 3571 0211 1D        		.uleb128 0x1d
 3572 0212 00        		.byte	0x0
 3573 0213 31        		.uleb128 0x31
 3574 0214 13        		.uleb128 0x13
 3575 0215 11        		.uleb128 0x11
 3576 0216 01        		.uleb128 0x1
 3577 0217 12        		.uleb128 0x12
 3578 0218 01        		.uleb128 0x1
 3579 0219 58        		.uleb128 0x58
 3580 021a 0B        		.uleb128 0xb
 3581 021b 59        		.uleb128 0x59
 3582 021c 05        		.uleb128 0x5
 3583 021d 00        		.byte	0x0
 3584 021e 00        		.byte	0x0
 3585 021f 28        		.uleb128 0x28
 3586 0220 2E        		.uleb128 0x2e
 3587 0221 00        		.byte	0x0
 3588 0222 3F        		.uleb128 0x3f
 3589 0223 0C        		.uleb128 0xc
 3590 0224 03        		.uleb128 0x3
 3591 0225 0E        		.uleb128 0xe
GAS LISTING C:\Users\21030\AppData\Local\Temp/ccjZa2Dn.s 			page 64


 3592 0226 3A        		.uleb128 0x3a
 3593 0227 0B        		.uleb128 0xb
 3594 0228 3B        		.uleb128 0x3b
 3595 0229 05        		.uleb128 0x5
 3596 022a 27        		.uleb128 0x27
 3597 022b 0C        		.uleb128 0xc
 3598 022c 11        		.uleb128 0x11
 3599 022d 01        		.uleb128 0x1
 3600 022e 12        		.uleb128 0x12
 3601 022f 01        		.uleb128 0x1
 3602 0230 40        		.uleb128 0x40
 3603 0231 0A        		.uleb128 0xa
 3604 0232 00        		.byte	0x0
 3605 0233 00        		.byte	0x0
 3606 0234 29        		.uleb128 0x29
 3607 0235 01        		.uleb128 0x1
 3608 0236 01        		.byte	0x1
 3609 0237 49        		.uleb128 0x49
 3610 0238 13        		.uleb128 0x13
 3611 0239 01        		.uleb128 0x1
 3612 023a 13        		.uleb128 0x13
 3613 023b 00        		.byte	0x0
 3614 023c 00        		.byte	0x0
 3615 023d 2A        		.uleb128 0x2a
 3616 023e 21        		.uleb128 0x21
 3617 023f 00        		.byte	0x0
 3618 0240 49        		.uleb128 0x49
 3619 0241 13        		.uleb128 0x13
 3620 0242 2F        		.uleb128 0x2f
 3621 0243 0B        		.uleb128 0xb
 3622 0244 00        		.byte	0x0
 3623 0245 00        		.byte	0x0
 3624 0246 2B        		.uleb128 0x2b
 3625 0247 35        		.uleb128 0x35
 3626 0248 00        		.byte	0x0
 3627 0249 49        		.uleb128 0x49
 3628 024a 13        		.uleb128 0x13
 3629 024b 00        		.byte	0x0
 3630 024c 00        		.byte	0x0
 3631 024d 2C        		.uleb128 0x2c
 3632 024e 34        		.uleb128 0x34
 3633 024f 00        		.byte	0x0
 3634 0250 03        		.uleb128 0x3
 3635 0251 0E        		.uleb128 0xe
 3636 0252 3A        		.uleb128 0x3a
 3637 0253 0B        		.uleb128 0xb
 3638 0254 3B        		.uleb128 0x3b
 3639 0255 0B        		.uleb128 0xb
 3640 0256 49        		.uleb128 0x49
 3641 0257 13        		.uleb128 0x13
 3642 0258 3F        		.uleb128 0x3f
 3643 0259 0C        		.uleb128 0xc
 3644 025a 02        		.uleb128 0x2
 3645 025b 0A        		.uleb128 0xa
 3646 025c 00        		.byte	0x0
 3647 025d 00        		.byte	0x0
 3648 025e 2D        		.uleb128 0x2d
GAS LISTING C:\Users\21030\AppData\Local\Temp/ccjZa2Dn.s 			page 65


 3649 025f 26        		.uleb128 0x26
 3650 0260 00        		.byte	0x0
 3651 0261 49        		.uleb128 0x49
 3652 0262 13        		.uleb128 0x13
 3653 0263 00        		.byte	0x0
 3654 0264 00        		.byte	0x0
 3655 0265 00        		.byte	0x0
 3656               		.section	.debug_pubnames,"",@progbits
 3657 0000 1203 0000 		.long	0x312
 3658 0004 0200      		.word	0x2
 3659 0006 0000 0000 		.long	.Ldebug_info0
 3660 000a 6208 0000 		.long	0x862
 3661 000e C201 0000 		.long	0x1c2
 3662 0012 6465 6C61 		.string	"delay_us"
 3662      795F 7573 
 3662      00
 3663 001b 0102 0000 		.long	0x201
 3664 001f 7469 6D65 		.string	"timerInit"
 3664      7249 6E69 
 3664      7400 
 3665 0029 DB02 0000 		.long	0x2db
 3666 002d 7469 6D65 		.string	"timer0Init"
 3666      7230 496E 
 3666      6974 00
 3667 0038 1803 0000 		.long	0x318
 3668 003c 7469 6D65 		.string	"timer1Init"
 3668      7231 496E 
 3668      6974 00
 3669 0047 4203 0000 		.long	0x342
 3670 004b 7469 6D65 		.string	"timer2Init"
 3670      7232 496E 
 3670      6974 00
 3671 0056 7F03 0000 		.long	0x37f
 3672 005a 7469 6D65 		.string	"timer2IntEnable"
 3672      7232 496E 
 3672      7445 6E61 
 3672      626C 6500 
 3673 006a 9303 0000 		.long	0x393
 3674 006e 7469 6D65 		.string	"timer0SetPrescaler"
 3674      7230 5365 
 3674      7450 7265 
 3674      7363 616C 
 3674      6572 00
 3675 0081 AF03 0000 		.long	0x3af
 3676 0085 7469 6D65 		.string	"timer1SetPrescaler"
 3676      7231 5365 
 3676      7450 7265 
 3676      7363 616C 
 3676      6572 00
 3677 0098 CB03 0000 		.long	0x3cb
 3678 009c 7469 6D65 		.string	"timer2SetPrescaler"
 3678      7232 5365 
 3678      7450 7265 
 3678      7363 616C 
 3678      6572 00
 3679 00af E703 0000 		.long	0x3e7
 3680 00b3 7469 6D65 		.string	"timer0GetPrescaler"
GAS LISTING C:\Users\21030\AppData\Local\Temp/ccjZa2Dn.s 			page 66


 3680      7230 4765 
 3680      7450 7265 
 3680      7363 616C 
 3680      6572 00
 3681 00c6 1B04 0000 		.long	0x41b
 3682 00ca 7469 6D65 		.string	"timer1GetPrescaler"
 3682      7231 4765 
 3682      7450 7265 
 3682      7363 616C 
 3682      6572 00
 3683 00dd 6304 0000 		.long	0x463
 3684 00e1 7469 6D65 		.string	"timer2GetPrescaler"
 3684      7232 4765 
 3684      7450 7265 
 3684      7363 616C 
 3684      6572 00
 3685 00f4 AB04 0000 		.long	0x4ab
 3686 00f8 7469 6D65 		.string	"timerAttach"
 3686      7241 7474 
 3686      6163 6800 
 3687 0104 E304 0000 		.long	0x4e3
 3688 0108 7469 6D65 		.string	"timerDetach"
 3688      7244 6574 
 3688      6163 6800 
 3689 0114 FF04 0000 		.long	0x4ff
 3690 0118 7469 6D65 		.string	"timerPause"
 3690      7250 6175 
 3690      7365 00
 3691 0123 8005 0000 		.long	0x580
 3692 0127 7469 6D65 		.string	"timer0ClearOverflowCount"
 3692      7230 436C 
 3692      6561 724F 
 3692      7665 7266 
 3692      6C6F 7743 
 3693 0140 9005 0000 		.long	0x590
 3694 0144 7469 6D65 		.string	"timer0GetOverflowCount"
 3694      7230 4765 
 3694      744F 7665 
 3694      7266 6C6F 
 3694      7743 6F75 
 3695 015b A905 0000 		.long	0x5a9
 3696 015f 7469 6D65 		.string	"timer2ClearOverflowCount"
 3696      7232 436C 
 3696      6561 724F 
 3696      7665 7266 
 3696      6C6F 7743 
 3697 0178 B905 0000 		.long	0x5b9
 3698 017c 7469 6D65 		.string	"timer2GetOverflowCount"
 3698      7232 4765 
 3698      744F 7665 
 3698      7266 6C6F 
 3698      7743 6F75 
 3699 0193 D205 0000 		.long	0x5d2
 3700 0197 7469 6D65 		.string	"timer1PWMInit"
 3700      7231 5057 
 3700      4D49 6E69 
 3700      7400 
GAS LISTING C:\Users\21030\AppData\Local\Temp/ccjZa2Dn.s 			page 67


 3701 01a5 FC05 0000 		.long	0x5fc
 3702 01a9 7469 6D65 		.string	"timer1PWMInitICR"
 3702      7231 5057 
 3702      4D49 6E69 
 3702      7449 4352 
 3702      00
 3703 01ba 2906 0000 		.long	0x629
 3704 01be 7469 6D65 		.string	"timer1PWMOff"
 3704      7231 5057 
 3704      4D4F 6666 
 3704      00
 3705 01cb 6306 0000 		.long	0x663
 3706 01cf 7469 6D65 		.string	"timer1PWMAOn"
 3706      7231 5057 
 3706      4D41 4F6E 
 3706      00
 3707 01dc 7806 0000 		.long	0x678
 3708 01e0 7469 6D65 		.string	"timer1PWMBOn"
 3708      7231 5057 
 3708      4D42 4F6E 
 3708      00
 3709 01ed 8D06 0000 		.long	0x68d
 3710 01f1 7469 6D65 		.string	"timer1PWMAOff"
 3710      7231 5057 
 3710      4D41 4F66 
 3710      6600 
 3711 01ff 9D06 0000 		.long	0x69d
 3712 0203 7469 6D65 		.string	"timer1PWMBOff"
 3712      7231 5057 
 3712      4D42 4F66 
 3712      6600 
 3713 0211 AD06 0000 		.long	0x6ad
 3714 0215 7469 6D65 		.string	"timer1PWMASet"
 3714      7231 5057 
 3714      4D41 5365 
 3714      7400 
 3715 0223 DA06 0000 		.long	0x6da
 3716 0227 7469 6D65 		.string	"timer1PWMBSet"
 3716      7231 5057 
 3716      4D42 5365 
 3716      7400 
 3717 0235 0707 0000 		.long	0x707
 3718 0239 5F5F 7665 		.string	"__vector_11"
 3718      6374 6F72 
 3718      5F31 3100 
 3719 0245 1C07 0000 		.long	0x71c
 3720 0249 5F5F 7665 		.string	"__vector_9"
 3720      6374 6F72 
 3720      5F39 00
 3721 0254 3107 0000 		.long	0x731
 3722 0258 5F5F 7665 		.string	"__vector_5"
 3722      6374 6F72 
 3722      5F35 00
 3723 0263 4607 0000 		.long	0x746
 3724 0267 5F5F 7665 		.string	"__vector_10"
 3724      6374 6F72 
 3724      5F31 3000 
GAS LISTING C:\Users\21030\AppData\Local\Temp/ccjZa2Dn.s 			page 68


 3725 0273 5B07 0000 		.long	0x75b
 3726 0277 5F5F 7665 		.string	"__vector_7"
 3726      6374 6F72 
 3726      5F37 00
 3727 0282 7007 0000 		.long	0x770
 3728 0286 5F5F 7665 		.string	"__vector_8"
 3728      6374 6F72 
 3728      5F38 00
 3729 0291 8507 0000 		.long	0x785
 3730 0295 5F5F 7665 		.string	"__vector_6"
 3730      6374 6F72 
 3730      5F36 00
 3731 02a0 9A07 0000 		.long	0x79a
 3732 02a4 5F5F 7665 		.string	"__vector_4"
 3732      6374 6F72 
 3732      5F34 00
 3733 02af E807 0000 		.long	0x7e8
 3734 02b3 5469 6D65 		.string	"TimerPrescaleFactor"
 3734      7250 7265 
 3734      7363 616C 
 3734      6546 6163 
 3734      746F 7200 
 3735 02c7 0F08 0000 		.long	0x80f
 3736 02cb 5469 6D65 		.string	"TimerRTCPrescaleFactor"
 3736      7252 5443 
 3736      5072 6573 
 3736      6361 6C65 
 3736      4661 6374 
 3737 02e2 2608 0000 		.long	0x826
 3738 02e6 5469 6D65 		.string	"TimerPauseReg"
 3738      7250 6175 
 3738      7365 5265 
 3738      6700 
 3739 02f4 3D08 0000 		.long	0x83d
 3740 02f8 5469 6D65 		.string	"Timer0Reg0"
 3740      7230 5265 
 3740      6730 00
 3741 0303 4F08 0000 		.long	0x84f
 3742 0307 5469 6D65 		.string	"Timer2Reg0"
 3742      7232 5265 
 3742      6730 00
 3743 0312 0000 0000 		.long	0x0
 3744               		.section	.debug_aranges,"",@progbits
 3745 0000 1C00 0000 		.long	0x1c
 3746 0004 0200      		.word	0x2
 3747 0006 0000 0000 		.long	.Ldebug_info0
 3748 000a 04        		.byte	0x4
 3749 000b 00        		.byte	0x0
 3750 000c 0000      		.word	0x0
 3751 000e 0000      		.word	0x0
 3752 0010 0000 0000 		.long	.Ltext0
 3753 0014 AC06 0000 		.long	.Letext0-.Ltext0
 3754 0018 0000 0000 		.long	0x0
 3755 001c 0000 0000 		.long	0x0
 3756               		.section	.debug_line
 3757 0000 F705 0000 		.long	.LELT0-.LSLT0
 3758               	.LSLT0:
GAS LISTING C:\Users\21030\AppData\Local\Temp/ccjZa2Dn.s 			page 69


 3759 0004 0200      		.word	0x2
 3760 0006 6F00 0000 		.long	.LELTP0-.LASLTP0
 3761               	.LASLTP0:
 3762 000a 01        		.byte	0x1
 3763 000b 01        		.byte	0x1
 3764 000c F6        		.byte	0xf6
 3765 000d F5        		.byte	0xf5
 3766 000e 0A        		.byte	0xa
 3767 000f 00        		.byte	0x0
 3768 0010 01        		.byte	0x1
 3769 0011 01        		.byte	0x1
 3770 0012 01        		.byte	0x1
 3771 0013 01        		.byte	0x1
 3772 0014 00        		.byte	0x0
 3773 0015 00        		.byte	0x0
 3774 0016 00        		.byte	0x0
 3775 0017 01        		.byte	0x1
 3776 0018 2E2E 2F61 		.ascii	"../avrlib"
 3776      7672 6C69 
 3776      62
 3777 0021 00        		.byte	0
 3778 0022 633A 2F77 		.ascii	"c:/winavr-20100110/lib/gcc/../../avr/include"
 3778      696E 6176 
 3778      722D 3230 
 3778      3130 3031 
 3778      3130 2F6C 
 3779 004e 00        		.byte	0
 3780 004f 00        		.byte	0x0
 3781 0050 7469 6D65 		.string	"timer.c"
 3781      722E 6300 
 3782 0058 01        		.uleb128 0x1
 3783 0059 00        		.uleb128 0x0
 3784 005a 00        		.uleb128 0x0
 3785 005b 6176 726C 		.string	"avrlibtypes.h"
 3785      6962 7479 
 3785      7065 732E 
 3785      6800 
 3786 0069 01        		.uleb128 0x1
 3787 006a 00        		.uleb128 0x0
 3788 006b 00        		.uleb128 0x0
 3789 006c 7374 6469 		.string	"stdint.h"
 3789      6E74 2E68 
 3789      00
 3790 0075 02        		.uleb128 0x2
 3791 0076 00        		.uleb128 0x0
 3792 0077 00        		.uleb128 0x0
 3793 0078 00        		.byte	0x0
 3794               	.LELTP0:
 3795 0079 00        		.byte	0x0
 3796 007a 05        		.uleb128 0x5
 3797 007b 02        		.byte	0x2
 3798 007c 0000 0000 		.long	.LM1
 3799 0080 44        		.byte	0x44
 3800 0081 00        		.byte	0x0
 3801 0082 05        		.uleb128 0x5
 3802 0083 02        		.byte	0x2
 3803 0084 0000 0000 		.long	.LM2
GAS LISTING C:\Users\21030\AppData\Local\Temp/ccjZa2Dn.s 			page 70


 3804 0088 1C        		.byte	0x1c
 3805 0089 00        		.byte	0x0
 3806 008a 05        		.uleb128 0x5
 3807 008b 02        		.byte	0x2
 3808 008c 0000 0000 		.long	.LM3
 3809 0090 28        		.byte	0x28
 3810 0091 00        		.byte	0x0
 3811 0092 05        		.uleb128 0x5
 3812 0093 02        		.byte	0x2
 3813 0094 0000 0000 		.long	.LM4
 3814 0098 01        		.byte	0x1
 3815 0099 00        		.byte	0x0
 3816 009a 05        		.uleb128 0x5
 3817 009b 02        		.byte	0x2
 3818 009c 0000 0000 		.long	.LM5
 3819 00a0 86        		.byte	0x86
 3820 00a1 00        		.byte	0x0
 3821 00a2 05        		.uleb128 0x5
 3822 00a3 02        		.byte	0x2
 3823 00a4 0000 0000 		.long	.LM6
 3824 00a8 03        		.byte	0x3
 3825 00a9 917F      		.sleb128 -111
 3826 00ab 01        		.byte	0x1
 3827 00ac 00        		.byte	0x0
 3828 00ad 05        		.uleb128 0x5
 3829 00ae 02        		.byte	0x2
 3830 00af 0000 0000 		.long	.LM7
 3831 00b3 4A        		.byte	0x4a
 3832 00b4 00        		.byte	0x0
 3833 00b5 05        		.uleb128 0x5
 3834 00b6 02        		.byte	0x2
 3835 00b7 0000 0000 		.long	.LM8
 3836 00bb 03        		.byte	0x3
 3837 00bc 5B        		.sleb128 -37
 3838 00bd 01        		.byte	0x1
 3839 00be 00        		.byte	0x0
 3840 00bf 05        		.uleb128 0x5
 3841 00c0 02        		.byte	0x2
 3842 00c1 0000 0000 		.long	.LM9
 3843 00c5 B6        		.byte	0xb6
 3844 00c6 00        		.byte	0x0
 3845 00c7 05        		.uleb128 0x5
 3846 00c8 02        		.byte	0x2
 3847 00c9 0000 0000 		.long	.LM10
 3848 00cd 03        		.byte	0x3
 3849 00ce 897F      		.sleb128 -119
 3850 00d0 01        		.byte	0x1
 3851 00d1 00        		.byte	0x0
 3852 00d2 05        		.uleb128 0x5
 3853 00d3 02        		.byte	0x2
 3854 00d4 0000 0000 		.long	.LM11
 3855 00d8 03        		.byte	0x3
 3856 00d9 5F        		.sleb128 -33
 3857 00da 01        		.byte	0x1
 3858 00db 00        		.byte	0x0
 3859 00dc 05        		.uleb128 0x5
 3860 00dd 02        		.byte	0x2
GAS LISTING C:\Users\21030\AppData\Local\Temp/ccjZa2Dn.s 			page 71


 3861 00de 0000 0000 		.long	.LM12
 3862 00e2 15        		.byte	0x15
 3863 00e3 00        		.byte	0x0
 3864 00e4 05        		.uleb128 0x5
 3865 00e5 02        		.byte	0x2
 3866 00e6 0000 0000 		.long	.LM13
 3867 00ea 3B        		.byte	0x3b
 3868 00eb 00        		.byte	0x0
 3869 00ec 05        		.uleb128 0x5
 3870 00ed 02        		.byte	0x2
 3871 00ee 0000 0000 		.long	.LM14
 3872 00f2 03        		.byte	0x3
 3873 00f3 62        		.sleb128 -30
 3874 00f4 01        		.byte	0x1
 3875 00f5 00        		.byte	0x0
 3876 00f6 05        		.uleb128 0x5
 3877 00f7 02        		.byte	0x2
 3878 00f8 0000 0000 		.long	.LM15
 3879 00fc B0        		.byte	0xb0
 3880 00fd 00        		.byte	0x0
 3881 00fe 05        		.uleb128 0x5
 3882 00ff 02        		.byte	0x2
 3883 0100 0000 0000 		.long	.LM16
 3884 0104 03        		.byte	0x3
 3885 0105 C97E      		.sleb128 -183
 3886 0107 01        		.byte	0x1
 3887 0108 00        		.byte	0x0
 3888 0109 05        		.uleb128 0x5
 3889 010a 02        		.byte	0x2
 3890 010b 0000 0000 		.long	.LM17
 3891 010f 15        		.byte	0x15
 3892 0110 00        		.byte	0x0
 3893 0111 05        		.uleb128 0x5
 3894 0112 02        		.byte	0x2
 3895 0113 0000 0000 		.long	.LM18
 3896 0117 17        		.byte	0x17
 3897 0118 00        		.byte	0x0
 3898 0119 05        		.uleb128 0x5
 3899 011a 02        		.byte	0x2
 3900 011b 0000 0000 		.long	.LM19
 3901 011f 3C        		.byte	0x3c
 3902 0120 00        		.byte	0x0
 3903 0121 05        		.uleb128 0x5
 3904 0122 02        		.byte	0x2
 3905 0123 0000 0000 		.long	.LM20
 3906 0127 03        		.byte	0x3
 3907 0128 5B        		.sleb128 -37
 3908 0129 01        		.byte	0x1
 3909 012a 00        		.byte	0x0
 3910 012b 05        		.uleb128 0x5
 3911 012c 02        		.byte	0x2
 3912 012d 0000 0000 		.long	.LM21
 3913 0131 B6        		.byte	0xb6
 3914 0132 00        		.byte	0x0
 3915 0133 05        		.uleb128 0x5
 3916 0134 02        		.byte	0x2
 3917 0135 0000 0000 		.long	.LM22
GAS LISTING C:\Users\21030\AppData\Local\Temp/ccjZa2Dn.s 			page 72


 3918 0139 03        		.byte	0x3
 3919 013a E27E      		.sleb128 -158
 3920 013c 01        		.byte	0x1
 3921 013d 00        		.byte	0x0
 3922 013e 05        		.uleb128 0x5
 3923 013f 02        		.byte	0x2
 3924 0140 0000 0000 		.long	.LM23
 3925 0144 17        		.byte	0x17
 3926 0145 00        		.byte	0x0
 3927 0146 05        		.uleb128 0x5
 3928 0147 02        		.byte	0x2
 3929 0148 0000 0000 		.long	.LM24
 3930 014c 38        		.byte	0x38
 3931 014d 00        		.byte	0x0
 3932 014e 05        		.uleb128 0x5
 3933 014f 02        		.byte	0x2
 3934 0150 0000 0000 		.long	.LM25
 3935 0154 03        		.byte	0x3
 3936 0155 5F        		.sleb128 -33
 3937 0156 01        		.byte	0x1
 3938 0157 00        		.byte	0x0
 3939 0158 05        		.uleb128 0x5
 3940 0159 02        		.byte	0x2
 3941 015a 0000 0000 		.long	.LM26
 3942 015e 15        		.byte	0x15
 3943 015f 00        		.byte	0x0
 3944 0160 05        		.uleb128 0x5
 3945 0161 02        		.byte	0x2
 3946 0162 0000 0000 		.long	.LM27
 3947 0166 16        		.byte	0x16
 3948 0167 00        		.byte	0x0
 3949 0168 05        		.uleb128 0x5
 3950 0169 02        		.byte	0x2
 3951 016a 0000 0000 		.long	.LM28
 3952 016e 18        		.byte	0x18
 3953 016f 00        		.byte	0x0
 3954 0170 05        		.uleb128 0x5
 3955 0171 02        		.byte	0x2
 3956 0172 0000 0000 		.long	.LM29
 3957 0176 35        		.byte	0x35
 3958 0177 00        		.byte	0x0
 3959 0178 05        		.uleb128 0x5
 3960 0179 02        		.byte	0x2
 3961 017a 0000 0000 		.long	.LM30
 3962 017e 03        		.byte	0x3
 3963 017f 62        		.sleb128 -30
 3964 0180 01        		.byte	0x1
 3965 0181 00        		.byte	0x0
 3966 0182 05        		.uleb128 0x5
 3967 0183 02        		.byte	0x2
 3968 0184 0000 0000 		.long	.LM31
 3969 0188 B0        		.byte	0xb0
 3970 0189 00        		.byte	0x0
 3971 018a 05        		.uleb128 0x5
 3972 018b 02        		.byte	0x2
 3973 018c 0000 0000 		.long	.LM32
 3974 0190 03        		.byte	0x3
GAS LISTING C:\Users\21030\AppData\Local\Temp/ccjZa2Dn.s 			page 73


 3975 0191 E87E      		.sleb128 -152
 3976 0193 01        		.byte	0x1
 3977 0194 00        		.byte	0x0
 3978 0195 05        		.uleb128 0x5
 3979 0196 02        		.byte	0x2
 3980 0197 0000 0000 		.long	.LM33
 3981 019b 18        		.byte	0x18
 3982 019c 00        		.byte	0x0
 3983 019d 05        		.uleb128 0x5
 3984 019e 02        		.byte	0x2
 3985 019f 0000 0000 		.long	.LM34
 3986 01a3 15        		.byte	0x15
 3987 01a4 00        		.byte	0x0
 3988 01a5 05        		.uleb128 0x5
 3989 01a6 02        		.byte	0x2
 3990 01a7 0000 0000 		.long	.LM35
 3991 01ab 15        		.byte	0x15
 3992 01ac 00        		.byte	0x0
 3993 01ad 05        		.uleb128 0x5
 3994 01ae 02        		.byte	0x2
 3995 01af 0000 0000 		.long	.LM36
 3996 01b3 19        		.byte	0x19
 3997 01b4 00        		.byte	0x0
 3998 01b5 05        		.uleb128 0x5
 3999 01b6 02        		.byte	0x2
 4000 01b7 0000 0000 		.long	.LM37
 4001 01bb 16        		.byte	0x16
 4002 01bc 00        		.byte	0x0
 4003 01bd 05        		.uleb128 0x5
 4004 01be 02        		.byte	0x2
 4005 01bf 0000 0000 		.long	.LM38
 4006 01c3 15        		.byte	0x15
 4007 01c4 00        		.byte	0x0
 4008 01c5 05        		.uleb128 0x5
 4009 01c6 02        		.byte	0x2
 4010 01c7 0000 0000 		.long	.LM39
 4011 01cb 17        		.byte	0x17
 4012 01cc 00        		.byte	0x0
 4013 01cd 05        		.uleb128 0x5
 4014 01ce 02        		.byte	0x2
 4015 01cf 0000 0000 		.long	.LM40
 4016 01d3 16        		.byte	0x16
 4017 01d4 00        		.byte	0x0
 4018 01d5 05        		.uleb128 0x5
 4019 01d6 02        		.byte	0x2
 4020 01d7 0000 0000 		.long	.LM41
 4021 01db 15        		.byte	0x15
 4022 01dc 00        		.byte	0x0
 4023 01dd 05        		.uleb128 0x5
 4024 01de 02        		.byte	0x2
 4025 01df 0000 0000 		.long	.LM42
 4026 01e3 18        		.byte	0x18
 4027 01e4 00        		.byte	0x0
 4028 01e5 05        		.uleb128 0x5
 4029 01e6 02        		.byte	0x2
 4030 01e7 0000 0000 		.long	.LM43
 4031 01eb 16        		.byte	0x16
GAS LISTING C:\Users\21030\AppData\Local\Temp/ccjZa2Dn.s 			page 74


 4032 01ec 00        		.byte	0x0
 4033 01ed 05        		.uleb128 0x5
 4034 01ee 02        		.byte	0x2
 4035 01ef 0000 0000 		.long	.LM44
 4036 01f3 15        		.byte	0x15
 4037 01f4 00        		.byte	0x0
 4038 01f5 05        		.uleb128 0x5
 4039 01f6 02        		.byte	0x2
 4040 01f7 0000 0000 		.long	.LM45
 4041 01fb 18        		.byte	0x18
 4042 01fc 00        		.byte	0x0
 4043 01fd 05        		.uleb128 0x5
 4044 01fe 02        		.byte	0x2
 4045 01ff 0000 0000 		.long	.LM46
 4046 0203 16        		.byte	0x16
 4047 0204 00        		.byte	0x0
 4048 0205 05        		.uleb128 0x5
 4049 0206 02        		.byte	0x2
 4050 0207 0000 0000 		.long	.LM47
 4051 020b 15        		.byte	0x15
 4052 020c 00        		.byte	0x0
 4053 020d 05        		.uleb128 0x5
 4054 020e 02        		.byte	0x2
 4055 020f 0000 0000 		.long	.LM48
 4056 0213 17        		.byte	0x17
 4057 0214 00        		.byte	0x0
 4058 0215 05        		.uleb128 0x5
 4059 0216 02        		.byte	0x2
 4060 0217 0000 0000 		.long	.LM49
 4061 021b 16        		.byte	0x16
 4062 021c 00        		.byte	0x0
 4063 021d 05        		.uleb128 0x5
 4064 021e 02        		.byte	0x2
 4065 021f 0000 0000 		.long	.LM50
 4066 0223 15        		.byte	0x15
 4067 0224 00        		.byte	0x0
 4068 0225 05        		.uleb128 0x5
 4069 0226 02        		.byte	0x2
 4070 0227 0000 0000 		.long	.LM51
 4071 022b 18        		.byte	0x18
 4072 022c 00        		.byte	0x0
 4073 022d 05        		.uleb128 0x5
 4074 022e 02        		.byte	0x2
 4075 022f 0000 0000 		.long	.LM52
 4076 0233 19        		.byte	0x19
 4077 0234 00        		.byte	0x0
 4078 0235 05        		.uleb128 0x5
 4079 0236 02        		.byte	0x2
 4080 0237 0000 0000 		.long	.LM53
 4081 023b 15        		.byte	0x15
 4082 023c 00        		.byte	0x0
 4083 023d 05        		.uleb128 0x5
 4084 023e 02        		.byte	0x2
 4085 023f 0000 0000 		.long	.LM54
 4086 0243 18        		.byte	0x18
 4087 0244 00        		.byte	0x0
 4088 0245 05        		.uleb128 0x5
GAS LISTING C:\Users\21030\AppData\Local\Temp/ccjZa2Dn.s 			page 75


 4089 0246 02        		.byte	0x2
 4090 0247 0000 0000 		.long	.LM55
 4091 024b 16        		.byte	0x16
 4092 024c 00        		.byte	0x0
 4093 024d 05        		.uleb128 0x5
 4094 024e 02        		.byte	0x2
 4095 024f 0000 0000 		.long	.LM56
 4096 0253 18        		.byte	0x18
 4097 0254 00        		.byte	0x0
 4098 0255 05        		.uleb128 0x5
 4099 0256 02        		.byte	0x2
 4100 0257 0000 0000 		.long	.LM57
 4101 025b 19        		.byte	0x19
 4102 025c 00        		.byte	0x0
 4103 025d 05        		.uleb128 0x5
 4104 025e 02        		.byte	0x2
 4105 025f 0000 0000 		.long	.LM58
 4106 0263 16        		.byte	0x16
 4107 0264 00        		.byte	0x0
 4108 0265 05        		.uleb128 0x5
 4109 0266 02        		.byte	0x2
 4110 0267 0000 0000 		.long	.LM59
 4111 026b 17        		.byte	0x17
 4112 026c 00        		.byte	0x0
 4113 026d 05        		.uleb128 0x5
 4114 026e 02        		.byte	0x2
 4115 026f 0000 0000 		.long	.LM60
 4116 0273 29        		.byte	0x29
 4117 0274 00        		.byte	0x0
 4118 0275 05        		.uleb128 0x5
 4119 0276 02        		.byte	0x2
 4120 0277 0000 0000 		.long	.LM61
 4121 027b 1B        		.byte	0x1b
 4122 027c 00        		.byte	0x0
 4123 027d 05        		.uleb128 0x5
 4124 027e 02        		.byte	0x2
 4125 027f 0000 0000 		.long	.LM62
 4126 0283 16        		.byte	0x16
 4127 0284 00        		.byte	0x0
 4128 0285 05        		.uleb128 0x5
 4129 0286 02        		.byte	0x2
 4130 0287 0000 0000 		.long	.LM63
 4131 028b 03        		.byte	0x3
 4132 028c BD7F      		.sleb128 -67
 4133 028e 01        		.byte	0x1
 4134 028f 00        		.byte	0x0
 4135 0290 05        		.uleb128 0x5
 4136 0291 02        		.byte	0x2
 4137 0292 0000 0000 		.long	.LM64
 4138 0296 5A        		.byte	0x5a
 4139 0297 00        		.byte	0x0
 4140 0298 05        		.uleb128 0x5
 4141 0299 02        		.byte	0x2
 4142 029a 0000 0000 		.long	.LM65
 4143 029e 18        		.byte	0x18
 4144 029f 00        		.byte	0x0
 4145 02a0 05        		.uleb128 0x5
GAS LISTING C:\Users\21030\AppData\Local\Temp/ccjZa2Dn.s 			page 76


 4146 02a1 02        		.byte	0x2
 4147 02a2 0000 0000 		.long	.LM66
 4148 02a6 15        		.byte	0x15
 4149 02a7 00        		.byte	0x0
 4150 02a8 05        		.uleb128 0x5
 4151 02a9 02        		.byte	0x2
 4152 02aa 0000 0000 		.long	.LM67
 4153 02ae 16        		.byte	0x16
 4154 02af 00        		.byte	0x0
 4155 02b0 05        		.uleb128 0x5
 4156 02b1 02        		.byte	0x2
 4157 02b2 0000 0000 		.long	.LM68
 4158 02b6 19        		.byte	0x19
 4159 02b7 00        		.byte	0x0
 4160 02b8 05        		.uleb128 0x5
 4161 02b9 02        		.byte	0x2
 4162 02ba 0000 0000 		.long	.LM69
 4163 02be 17        		.byte	0x17
 4164 02bf 00        		.byte	0x0
 4165 02c0 05        		.uleb128 0x5
 4166 02c1 02        		.byte	0x2
 4167 02c2 0000 0000 		.long	.LM70
 4168 02c6 15        		.byte	0x15
 4169 02c7 00        		.byte	0x0
 4170 02c8 05        		.uleb128 0x5
 4171 02c9 02        		.byte	0x2
 4172 02ca 0000 0000 		.long	.LM71
 4173 02ce 0E        		.byte	0xe
 4174 02cf 00        		.byte	0x0
 4175 02d0 05        		.uleb128 0x5
 4176 02d1 02        		.byte	0x2
 4177 02d2 0000 0000 		.long	.LM72
 4178 02d6 28        		.byte	0x28
 4179 02d7 00        		.byte	0x0
 4180 02d8 05        		.uleb128 0x5
 4181 02d9 02        		.byte	0x2
 4182 02da 0000 0000 		.long	.LM73
 4183 02de 17        		.byte	0x17
 4184 02df 00        		.byte	0x0
 4185 02e0 05        		.uleb128 0x5
 4186 02e1 02        		.byte	0x2
 4187 02e2 0000 0000 		.long	.LM74
 4188 02e6 16        		.byte	0x16
 4189 02e7 00        		.byte	0x0
 4190 02e8 05        		.uleb128 0x5
 4191 02e9 02        		.byte	0x2
 4192 02ea 0000 0000 		.long	.LM75
 4193 02ee 15        		.byte	0x15
 4194 02ef 00        		.byte	0x0
 4195 02f0 05        		.uleb128 0x5
 4196 02f1 02        		.byte	0x2
 4197 02f2 0000 0000 		.long	.LM76
 4198 02f6 17        		.byte	0x17
 4199 02f7 00        		.byte	0x0
 4200 02f8 05        		.uleb128 0x5
 4201 02f9 02        		.byte	0x2
 4202 02fa 0000 0000 		.long	.LM77
GAS LISTING C:\Users\21030\AppData\Local\Temp/ccjZa2Dn.s 			page 77


 4203 02fe 17        		.byte	0x17
 4204 02ff 00        		.byte	0x0
 4205 0300 05        		.uleb128 0x5
 4206 0301 02        		.byte	0x2
 4207 0302 0000 0000 		.long	.LM78
 4208 0306 15        		.byte	0x15
 4209 0307 00        		.byte	0x0
 4210 0308 05        		.uleb128 0x5
 4211 0309 02        		.byte	0x2
 4212 030a 0000 0000 		.long	.LM79
 4213 030e 18        		.byte	0x18
 4214 030f 00        		.byte	0x0
 4215 0310 05        		.uleb128 0x5
 4216 0311 02        		.byte	0x2
 4217 0312 0000 0000 		.long	.LM80
 4218 0316 16        		.byte	0x16
 4219 0317 00        		.byte	0x0
 4220 0318 05        		.uleb128 0x5
 4221 0319 02        		.byte	0x2
 4222 031a 0000 0000 		.long	.LM81
 4223 031e 15        		.byte	0x15
 4224 031f 00        		.byte	0x0
 4225 0320 05        		.uleb128 0x5
 4226 0321 02        		.byte	0x2
 4227 0322 0000 0000 		.long	.LM82
 4228 0326 17        		.byte	0x17
 4229 0327 00        		.byte	0x0
 4230 0328 05        		.uleb128 0x5
 4231 0329 02        		.byte	0x2
 4232 032a 0000 0000 		.long	.LM83
 4233 032e 17        		.byte	0x17
 4234 032f 00        		.byte	0x0
 4235 0330 05        		.uleb128 0x5
 4236 0331 02        		.byte	0x2
 4237 0332 0000 0000 		.long	.LM84
 4238 0336 15        		.byte	0x15
 4239 0337 00        		.byte	0x0
 4240 0338 05        		.uleb128 0x5
 4241 0339 02        		.byte	0x2
 4242 033a 0000 0000 		.long	.LM85
 4243 033e 18        		.byte	0x18
 4244 033f 00        		.byte	0x0
 4245 0340 05        		.uleb128 0x5
 4246 0341 02        		.byte	0x2
 4247 0342 0000 0000 		.long	.LM86
 4248 0346 19        		.byte	0x19
 4249 0347 00        		.byte	0x0
 4250 0348 05        		.uleb128 0x5
 4251 0349 02        		.byte	0x2
 4252 034a 0000 0000 		.long	.LM87
 4253 034e 16        		.byte	0x16
 4254 034f 00        		.byte	0x0
 4255 0350 05        		.uleb128 0x5
 4256 0351 02        		.byte	0x2
 4257 0352 0000 0000 		.long	.LM88
 4258 0356 15        		.byte	0x15
 4259 0357 00        		.byte	0x0
GAS LISTING C:\Users\21030\AppData\Local\Temp/ccjZa2Dn.s 			page 78


 4260 0358 05        		.uleb128 0x5
 4261 0359 02        		.byte	0x2
 4262 035a 0000 0000 		.long	.LM89
 4263 035e 16        		.byte	0x16
 4264 035f 00        		.byte	0x0
 4265 0360 05        		.uleb128 0x5
 4266 0361 02        		.byte	0x2
 4267 0362 0000 0000 		.long	.LM90
 4268 0366 16        		.byte	0x16
 4269 0367 00        		.byte	0x0
 4270 0368 05        		.uleb128 0x5
 4271 0369 02        		.byte	0x2
 4272 036a 0000 0000 		.long	.LM91
 4273 036e 19        		.byte	0x19
 4274 036f 00        		.byte	0x0
 4275 0370 05        		.uleb128 0x5
 4276 0371 02        		.byte	0x2
 4277 0372 0000 0000 		.long	.LM92
 4278 0376 15        		.byte	0x15
 4279 0377 00        		.byte	0x0
 4280 0378 05        		.uleb128 0x5
 4281 0379 02        		.byte	0x2
 4282 037a 0000 0000 		.long	.LM93
 4283 037e 18        		.byte	0x18
 4284 037f 00        		.byte	0x0
 4285 0380 05        		.uleb128 0x5
 4286 0381 02        		.byte	0x2
 4287 0382 0000 0000 		.long	.LM94
 4288 0386 15        		.byte	0x15
 4289 0387 00        		.byte	0x0
 4290 0388 05        		.uleb128 0x5
 4291 0389 02        		.byte	0x2
 4292 038a 0000 0000 		.long	.LM95
 4293 038e 16        		.byte	0x16
 4294 038f 00        		.byte	0x0
 4295 0390 05        		.uleb128 0x5
 4296 0391 02        		.byte	0x2
 4297 0392 0000 0000 		.long	.LM96
 4298 0396 15        		.byte	0x15
 4299 0397 00        		.byte	0x0
 4300 0398 05        		.uleb128 0x5
 4301 0399 02        		.byte	0x2
 4302 039a 0000 0000 		.long	.LM97
 4303 039e 15        		.byte	0x15
 4304 039f 00        		.byte	0x0
 4305 03a0 05        		.uleb128 0x5
 4306 03a1 02        		.byte	0x2
 4307 03a2 0000 0000 		.long	.LM98
 4308 03a6 1A        		.byte	0x1a
 4309 03a7 00        		.byte	0x0
 4310 03a8 05        		.uleb128 0x5
 4311 03a9 02        		.byte	0x2
 4312 03aa 0000 0000 		.long	.LM99
 4313 03ae 16        		.byte	0x16
 4314 03af 00        		.byte	0x0
 4315 03b0 05        		.uleb128 0x5
 4316 03b1 02        		.byte	0x2
GAS LISTING C:\Users\21030\AppData\Local\Temp/ccjZa2Dn.s 			page 79


 4317 03b2 0000 0000 		.long	.LM100
 4318 03b6 15        		.byte	0x15
 4319 03b7 00        		.byte	0x0
 4320 03b8 05        		.uleb128 0x5
 4321 03b9 02        		.byte	0x2
 4322 03ba 0000 0000 		.long	.LM101
 4323 03be 15        		.byte	0x15
 4324 03bf 00        		.byte	0x0
 4325 03c0 05        		.uleb128 0x5
 4326 03c1 02        		.byte	0x2
 4327 03c2 0000 0000 		.long	.LM102
 4328 03c6 15        		.byte	0x15
 4329 03c7 00        		.byte	0x0
 4330 03c8 05        		.uleb128 0x5
 4331 03c9 02        		.byte	0x2
 4332 03ca 0000 0000 		.long	.LM103
 4333 03ce 17        		.byte	0x17
 4334 03cf 00        		.byte	0x0
 4335 03d0 05        		.uleb128 0x5
 4336 03d1 02        		.byte	0x2
 4337 03d2 0000 0000 		.long	.LM104
 4338 03d6 17        		.byte	0x17
 4339 03d7 00        		.byte	0x0
 4340 03d8 05        		.uleb128 0x5
 4341 03d9 02        		.byte	0x2
 4342 03da 0000 0000 		.long	.LM105
 4343 03de 16        		.byte	0x16
 4344 03df 00        		.byte	0x0
 4345 03e0 05        		.uleb128 0x5
 4346 03e1 02        		.byte	0x2
 4347 03e2 0000 0000 		.long	.LM106
 4348 03e6 16        		.byte	0x16
 4349 03e7 00        		.byte	0x0
 4350 03e8 05        		.uleb128 0x5
 4351 03e9 02        		.byte	0x2
 4352 03ea 0000 0000 		.long	.LM107
 4353 03ee 18        		.byte	0x18
 4354 03ef 00        		.byte	0x0
 4355 03f0 05        		.uleb128 0x5
 4356 03f1 02        		.byte	0x2
 4357 03f2 0000 0000 		.long	.LM108
 4358 03f6 16        		.byte	0x16
 4359 03f7 00        		.byte	0x0
 4360 03f8 05        		.uleb128 0x5
 4361 03f9 02        		.byte	0x2
 4362 03fa 0000 0000 		.long	.LM109
 4363 03fe 15        		.byte	0x15
 4364 03ff 00        		.byte	0x0
 4365 0400 05        		.uleb128 0x5
 4366 0401 02        		.byte	0x2
 4367 0402 0000 0000 		.long	.LM110
 4368 0406 2E        		.byte	0x2e
 4369 0407 00        		.byte	0x0
 4370 0408 05        		.uleb128 0x5
 4371 0409 02        		.byte	0x2
 4372 040a 0000 0000 		.long	.LM111
 4373 040e 15        		.byte	0x15
GAS LISTING C:\Users\21030\AppData\Local\Temp/ccjZa2Dn.s 			page 80


 4374 040f 00        		.byte	0x0
 4375 0410 05        		.uleb128 0x5
 4376 0411 02        		.byte	0x2
 4377 0412 0000 0000 		.long	.LM112
 4378 0416 1B        		.byte	0x1b
 4379 0417 00        		.byte	0x0
 4380 0418 05        		.uleb128 0x5
 4381 0419 02        		.byte	0x2
 4382 041a 0000 0000 		.long	.LM113
 4383 041e 15        		.byte	0x15
 4384 041f 00        		.byte	0x0
 4385 0420 05        		.uleb128 0x5
 4386 0421 02        		.byte	0x2
 4387 0422 0000 0000 		.long	.LM114
 4388 0426 03        		.byte	0x3
 4389 0427 61        		.sleb128 -31
 4390 0428 01        		.byte	0x1
 4391 0429 00        		.byte	0x0
 4392 042a 05        		.uleb128 0x5
 4393 042b 02        		.byte	0x2
 4394 042c 0000 0000 		.long	.LM115
 4395 0430 17        		.byte	0x17
 4396 0431 00        		.byte	0x0
 4397 0432 05        		.uleb128 0x5
 4398 0433 02        		.byte	0x2
 4399 0434 0000 0000 		.long	.LM116
 4400 0438 17        		.byte	0x17
 4401 0439 00        		.byte	0x0
 4402 043a 05        		.uleb128 0x5
 4403 043b 02        		.byte	0x2
 4404 043c 0000 0000 		.long	.LM117
 4405 0440 15        		.byte	0x15
 4406 0441 00        		.byte	0x0
 4407 0442 05        		.uleb128 0x5
 4408 0443 02        		.byte	0x2
 4409 0444 0000 0000 		.long	.LM118
 4410 0448 15        		.byte	0x15
 4411 0449 00        		.byte	0x0
 4412 044a 05        		.uleb128 0x5
 4413 044b 02        		.byte	0x2
 4414 044c 0000 0000 		.long	.LM119
 4415 0450 17        		.byte	0x17
 4416 0451 00        		.byte	0x0
 4417 0452 05        		.uleb128 0x5
 4418 0453 02        		.byte	0x2
 4419 0454 0000 0000 		.long	.LM120
 4420 0458 17        		.byte	0x17
 4421 0459 00        		.byte	0x0
 4422 045a 05        		.uleb128 0x5
 4423 045b 02        		.byte	0x2
 4424 045c 0000 0000 		.long	.LM121
 4425 0460 15        		.byte	0x15
 4426 0461 00        		.byte	0x0
 4427 0462 05        		.uleb128 0x5
 4428 0463 02        		.byte	0x2
 4429 0464 0000 0000 		.long	.LM122
 4430 0468 15        		.byte	0x15
GAS LISTING C:\Users\21030\AppData\Local\Temp/ccjZa2Dn.s 			page 81


 4431 0469 00        		.byte	0x0
 4432 046a 05        		.uleb128 0x5
 4433 046b 02        		.byte	0x2
 4434 046c 0000 0000 		.long	.LM123
 4435 0470 17        		.byte	0x17
 4436 0471 00        		.byte	0x0
 4437 0472 05        		.uleb128 0x5
 4438 0473 02        		.byte	0x2
 4439 0474 0000 0000 		.long	.LM124
 4440 0478 17        		.byte	0x17
 4441 0479 00        		.byte	0x0
 4442 047a 05        		.uleb128 0x5
 4443 047b 02        		.byte	0x2
 4444 047c 0000 0000 		.long	.LM125
 4445 0480 15        		.byte	0x15
 4446 0481 00        		.byte	0x0
 4447 0482 05        		.uleb128 0x5
 4448 0483 02        		.byte	0x2
 4449 0484 0000 0000 		.long	.LM126
 4450 0488 15        		.byte	0x15
 4451 0489 00        		.byte	0x0
 4452 048a 05        		.uleb128 0x5
 4453 048b 02        		.byte	0x2
 4454 048c 0000 0000 		.long	.LM127
 4455 0490 17        		.byte	0x17
 4456 0491 00        		.byte	0x0
 4457 0492 05        		.uleb128 0x5
 4458 0493 02        		.byte	0x2
 4459 0494 0000 0000 		.long	.LM128
 4460 0498 17        		.byte	0x17
 4461 0499 00        		.byte	0x0
 4462 049a 05        		.uleb128 0x5
 4463 049b 02        		.byte	0x2
 4464 049c 0000 0000 		.long	.LM129
 4465 04a0 15        		.byte	0x15
 4466 04a1 00        		.byte	0x0
 4467 04a2 05        		.uleb128 0x5
 4468 04a3 02        		.byte	0x2
 4469 04a4 0000 0000 		.long	.LM130
 4470 04a8 15        		.byte	0x15
 4471 04a9 00        		.byte	0x0
 4472 04aa 05        		.uleb128 0x5
 4473 04ab 02        		.byte	0x2
 4474 04ac 0000 0000 		.long	.LM131
 4475 04b0 17        		.byte	0x17
 4476 04b1 00        		.byte	0x0
 4477 04b2 05        		.uleb128 0x5
 4478 04b3 02        		.byte	0x2
 4479 04b4 0000 0000 		.long	.LM132
 4480 04b8 1C        		.byte	0x1c
 4481 04b9 00        		.byte	0x0
 4482 04ba 05        		.uleb128 0x5
 4483 04bb 02        		.byte	0x2
 4484 04bc 0000 0000 		.long	.LM133
 4485 04c0 15        		.byte	0x15
 4486 04c1 00        		.byte	0x0
 4487 04c2 05        		.uleb128 0x5
GAS LISTING C:\Users\21030\AppData\Local\Temp/ccjZa2Dn.s 			page 82


 4488 04c3 02        		.byte	0x2
 4489 04c4 0000 0000 		.long	.LM134
 4490 04c8 17        		.byte	0x17
 4491 04c9 00        		.byte	0x0
 4492 04ca 05        		.uleb128 0x5
 4493 04cb 02        		.byte	0x2
 4494 04cc 0000 0000 		.long	.LM135
 4495 04d0 1C        		.byte	0x1c
 4496 04d1 00        		.byte	0x0
 4497 04d2 05        		.uleb128 0x5
 4498 04d3 02        		.byte	0x2
 4499 04d4 0000 0000 		.long	.LM136
 4500 04d8 15        		.byte	0x15
 4501 04d9 00        		.byte	0x0
 4502 04da 05        		.uleb128 0x5
 4503 04db 02        		.byte	0x2
 4504 04dc 0000 0000 		.long	.LM137
 4505 04e0 18        		.byte	0x18
 4506 04e1 00        		.byte	0x0
 4507 04e2 05        		.uleb128 0x5
 4508 04e3 02        		.byte	0x2
 4509 04e4 0000 0000 		.long	.LM138
 4510 04e8 15        		.byte	0x15
 4511 04e9 00        		.byte	0x0
 4512 04ea 05        		.uleb128 0x5
 4513 04eb 02        		.byte	0x2
 4514 04ec 0000 0000 		.long	.LM139
 4515 04f0 17        		.byte	0x17
 4516 04f1 00        		.byte	0x0
 4517 04f2 05        		.uleb128 0x5
 4518 04f3 02        		.byte	0x2
 4519 04f4 0000 0000 		.long	.LM140
 4520 04f8 17        		.byte	0x17
 4521 04f9 00        		.byte	0x0
 4522 04fa 05        		.uleb128 0x5
 4523 04fb 02        		.byte	0x2
 4524 04fc 0000 0000 		.long	.LM141
 4525 0500 15        		.byte	0x15
 4526 0501 00        		.byte	0x0
 4527 0502 05        		.uleb128 0x5
 4528 0503 02        		.byte	0x2
 4529 0504 0000 0000 		.long	.LM142
 4530 0508 15        		.byte	0x15
 4531 0509 00        		.byte	0x0
 4532 050a 05        		.uleb128 0x5
 4533 050b 02        		.byte	0x2
 4534 050c 0000 0000 		.long	.LM143
 4535 0510 18        		.byte	0x18
 4536 0511 00        		.byte	0x0
 4537 0512 05        		.uleb128 0x5
 4538 0513 02        		.byte	0x2
 4539 0514 0000 0000 		.long	.LM144
 4540 0518 16        		.byte	0x16
 4541 0519 00        		.byte	0x0
 4542 051a 05        		.uleb128 0x5
 4543 051b 02        		.byte	0x2
 4544 051c 0000 0000 		.long	.LM145
GAS LISTING C:\Users\21030\AppData\Local\Temp/ccjZa2Dn.s 			page 83


 4545 0520 15        		.byte	0x15
 4546 0521 00        		.byte	0x0
 4547 0522 05        		.uleb128 0x5
 4548 0523 02        		.byte	0x2
 4549 0524 0000 0000 		.long	.LM146
 4550 0528 15        		.byte	0x15
 4551 0529 00        		.byte	0x0
 4552 052a 05        		.uleb128 0x5
 4553 052b 02        		.byte	0x2
 4554 052c 0000 0000 		.long	.LM147
 4555 0530 19        		.byte	0x19
 4556 0531 00        		.byte	0x0
 4557 0532 05        		.uleb128 0x5
 4558 0533 02        		.byte	0x2
 4559 0534 0000 0000 		.long	.LM148
 4560 0538 15        		.byte	0x15
 4561 0539 00        		.byte	0x0
 4562 053a 05        		.uleb128 0x5
 4563 053b 02        		.byte	0x2
 4564 053c 0000 0000 		.long	.LM149
 4565 0540 17        		.byte	0x17
 4566 0541 00        		.byte	0x0
 4567 0542 05        		.uleb128 0x5
 4568 0543 02        		.byte	0x2
 4569 0544 0000 0000 		.long	.LM150
 4570 0548 15        		.byte	0x15
 4571 0549 00        		.byte	0x0
 4572 054a 05        		.uleb128 0x5
 4573 054b 02        		.byte	0x2
 4574 054c 0000 0000 		.long	.LM151
 4575 0550 15        		.byte	0x15
 4576 0551 00        		.byte	0x0
 4577 0552 05        		.uleb128 0x5
 4578 0553 02        		.byte	0x2
 4579 0554 0000 0000 		.long	.LM152
 4580 0558 1B        		.byte	0x1b
 4581 0559 00        		.byte	0x0
 4582 055a 05        		.uleb128 0x5
 4583 055b 02        		.byte	0x2
 4584 055c 0000 0000 		.long	.LM153
 4585 0560 16        		.byte	0x16
 4586 0561 00        		.byte	0x0
 4587 0562 05        		.uleb128 0x5
 4588 0563 02        		.byte	0x2
 4589 0564 0000 0000 		.long	.LM154
 4590 0568 15        		.byte	0x15
 4591 0569 00        		.byte	0x0
 4592 056a 05        		.uleb128 0x5
 4593 056b 02        		.byte	0x2
 4594 056c 0000 0000 		.long	.LM155
 4595 0570 15        		.byte	0x15
 4596 0571 00        		.byte	0x0
 4597 0572 05        		.uleb128 0x5
 4598 0573 02        		.byte	0x2
 4599 0574 0000 0000 		.long	.LM156
 4600 0578 19        		.byte	0x19
 4601 0579 00        		.byte	0x0
GAS LISTING C:\Users\21030\AppData\Local\Temp/ccjZa2Dn.s 			page 84


 4602 057a 05        		.uleb128 0x5
 4603 057b 02        		.byte	0x2
 4604 057c 0000 0000 		.long	.LM157
 4605 0580 16        		.byte	0x16
 4606 0581 00        		.byte	0x0
 4607 0582 05        		.uleb128 0x5
 4608 0583 02        		.byte	0x2
 4609 0584 0000 0000 		.long	.LM158
 4610 0588 15        		.byte	0x15
 4611 0589 00        		.byte	0x0
 4612 058a 05        		.uleb128 0x5
 4613 058b 02        		.byte	0x2
 4614 058c 0000 0000 		.long	.LM159
 4615 0590 15        		.byte	0x15
 4616 0591 00        		.byte	0x0
 4617 0592 05        		.uleb128 0x5
 4618 0593 02        		.byte	0x2
 4619 0594 0000 0000 		.long	.LM160
 4620 0598 18        		.byte	0x18
 4621 0599 00        		.byte	0x0
 4622 059a 05        		.uleb128 0x5
 4623 059b 02        		.byte	0x2
 4624 059c 0000 0000 		.long	.LM161
 4625 05a0 16        		.byte	0x16
 4626 05a1 00        		.byte	0x0
 4627 05a2 05        		.uleb128 0x5
 4628 05a3 02        		.byte	0x2
 4629 05a4 0000 0000 		.long	.LM162
 4630 05a8 15        		.byte	0x15
 4631 05a9 00        		.byte	0x0
 4632 05aa 05        		.uleb128 0x5
 4633 05ab 02        		.byte	0x2
 4634 05ac 0000 0000 		.long	.LM163
 4635 05b0 15        		.byte	0x15
 4636 05b1 00        		.byte	0x0
 4637 05b2 05        		.uleb128 0x5
 4638 05b3 02        		.byte	0x2
 4639 05b4 0000 0000 		.long	.LM164
 4640 05b8 18        		.byte	0x18
 4641 05b9 00        		.byte	0x0
 4642 05ba 05        		.uleb128 0x5
 4643 05bb 02        		.byte	0x2
 4644 05bc 0000 0000 		.long	.LM165
 4645 05c0 16        		.byte	0x16
 4646 05c1 00        		.byte	0x0
 4647 05c2 05        		.uleb128 0x5
 4648 05c3 02        		.byte	0x2
 4649 05c4 0000 0000 		.long	.LM166
 4650 05c8 15        		.byte	0x15
 4651 05c9 00        		.byte	0x0
 4652 05ca 05        		.uleb128 0x5
 4653 05cb 02        		.byte	0x2
 4654 05cc 0000 0000 		.long	.LM167
 4655 05d0 15        		.byte	0x15
 4656 05d1 00        		.byte	0x0
 4657 05d2 05        		.uleb128 0x5
 4658 05d3 02        		.byte	0x2
GAS LISTING C:\Users\21030\AppData\Local\Temp/ccjZa2Dn.s 			page 85


 4659 05d4 0000 0000 		.long	.LM168
 4660 05d8 18        		.byte	0x18
 4661 05d9 00        		.byte	0x0
 4662 05da 05        		.uleb128 0x5
 4663 05db 02        		.byte	0x2
 4664 05dc 0000 0000 		.long	.LM169
 4665 05e0 16        		.byte	0x16
 4666 05e1 00        		.byte	0x0
 4667 05e2 05        		.uleb128 0x5
 4668 05e3 02        		.byte	0x2
 4669 05e4 0000 0000 		.long	.LM170
 4670 05e8 15        		.byte	0x15
 4671 05e9 00        		.byte	0x0
 4672 05ea 05        		.uleb128 0x5
 4673 05eb 02        		.byte	0x2
 4674 05ec 0000 0000 		.long	.LM171
 4675 05f0 15        		.byte	0x15
 4676 05f1 00        		.byte	0x0
 4677 05f2 05        		.uleb128 0x5
 4678 05f3 02        		.byte	0x2
 4679 05f4 0000 0000 		.long	.Letext0
 4680 05f8 00        		.byte	0x0
 4681 05f9 01        		.uleb128 0x1
 4682 05fa 01        		.byte	0x1
 4683               	.LELT0:
 4684 05fb 1600 0000 		.section	.debug_str,"MS",@progbits,1
 4684      0200 1000 
 4684      0000 0101 
 4684      FB0E 0A00 
 4684      0101 0101 
 4685               	.LASF71:
 4686 0000 7469 6D65 		.string	"timer0GetPrescaler"
 4686      7230 4765 
 4686      7450 7265 
 4686      7363 616C 
 4686      6572 00
 4687               	.LASF69:
 4688 0013 2E2E 2F61 		.string	"../avrlib/timer.c"
 4688      7672 6C69 
 4688      622F 7469 
 4688      6D65 722E 
 4688      6300 
 4689               	.LASF40:
 4690 0025 7061 7573 		.string	"pause"
 4690      6500 
 4691               	.LASF68:
 4692 002b 474E 5520 		.string	"GNU C 4.3.3"
 4692      4320 342E 
 4692      332E 3300 
 4693               	.LASF48:
 4694 0037 7469 6D65 		.string	"timer2IntEnable"
 4694      7232 496E 
 4694      7445 6E61 
 4694      626C 6500 
 4695               	.LASF50:
 4696 0047 7469 6D65 		.string	"timer1PWMBOn"
 4696      7231 5057 
GAS LISTING C:\Users\21030\AppData\Local\Temp/ccjZa2Dn.s 			page 86


 4696      4D42 4F6E 
 4696      00
 4697               	.LASF9:
 4698 0054 7368 6F72 		.string	"short int"
 4698      7420 696E 
 4698      7400 
 4699               	.LASF34:
 4700 005e 7469 6D65 		.string	"time_us"
 4700      5F75 7300 
 4701               	.LASF39:
 4702 0066 7469 6352 		.string	"ticRateHz"
 4702      6174 6548 
 4702      7A00 
 4703               	.LASF67:
 4704 0070 5469 6D65 		.string	"Timer2Reg0"
 4704      7232 5265 
 4704      6730 00
 4705               	.LASF28:
 4706 007b 6465 6C61 		.string	"delay_us"
 4706      795F 7573 
 4706      00
 4707               	.LASF25:
 4708 0084 7469 6D65 		.string	"timer1PWMAOff"
 4708      7231 5057 
 4708      4D41 4F66 
 4708      6600 
 4709               	.LASF49:
 4710 0092 7469 6D65 		.string	"timer1PWMAOn"
 4710      7231 5057 
 4710      4D41 4F6E 
 4710      00
 4711               	.LASF52:
 4712 009f 7077 6D44 		.string	"pwmDuty"
 4712      7574 7900 
 4713               	.LASF20:
 4714 00a7 7469 6D65 		.string	"timerDetach"
 4714      7244 6574 
 4714      6163 6800 
 4715               	.LASF70:
 4716 00b3 433A 5C55 		.string	"C:\\Users\\21030\\Documents\\GitHub\\mx1830\\source"
 4716      7365 7273 
 4716      5C32 3130 
 4716      3330 5C44 
 4716      6F63 756D 
 4717               	.LASF46:
 4718 00e1 746F 7063 		.string	"topcount"
 4718      6F75 6E74 
 4718      00
 4719               	.LASF45:
 4720 00ea 7469 6D65 		.string	"timer1PWMInitICR"
 4720      7231 5057 
 4720      4D49 6E69 
 4720      7449 4352 
 4720      00
 4721               	.LASF31:
 4722 00fb 7469 6D65 		.string	"timer1GetPrescaler"
 4722      7231 4765 
GAS LISTING C:\Users\21030\AppData\Local\Temp/ccjZa2Dn.s 			page 87


 4722      7450 7265 
 4722      7363 616C 
 4722      6572 00
 4723               	.LASF12:
 4724 010e 5F5F 6164 		.string	"__addr16"
 4724      6472 3136 
 4724      00
 4725               	.LASF24:
 4726 0117 7469 6D65 		.string	"timer2Init"
 4726      7232 496E 
 4726      6974 00
 4727               	.LASF61:
 4728 0122 5F5F 7665 		.string	"__vector_4"
 4728      6374 6F72 
 4728      5F34 00
 4729               	.LASF56:
 4730 012d 5F5F 7665 		.string	"__vector_5"
 4730      6374 6F72 
 4730      5F35 00
 4731               	.LASF60:
 4732 0138 5F5F 7665 		.string	"__vector_6"
 4732      6374 6F72 
 4732      5F36 00
 4733               	.LASF58:
 4734 0143 5F5F 7665 		.string	"__vector_7"
 4734      6374 6F72 
 4734      5F37 00
 4735               	.LASF59:
 4736 014e 5F5F 7665 		.string	"__vector_8"
 4736      6374 6F72 
 4736      5F38 00
 4737               	.LASF55:
 4738 0159 5F5F 7665 		.string	"__vector_9"
 4738      6374 6F72 
 4738      5F39 00
 4739               	.LASF5:
 4740 0164 6C6F 6E67 		.string	"long long int"
 4740      206C 6F6E 
 4740      6720 696E 
 4740      7400 
 4741               	.LASF18:
 4742 0172 7469 6D65 		.string	"timer0ClearOverflowCount"
 4742      7230 436C 
 4742      6561 724F 
 4742      7665 7266 
 4742      6C6F 7743 
 4743               	.LASF3:
 4744 018b 6C6F 6E67 		.string	"long int"
 4744      2069 6E74 
 4744      00
 4745               	.LASF30:
 4746 0194 696E 744E 		.string	"intNum"
 4746      756D 00
 4747               	.LASF27:
 4748 019b 6465 6C61 		.string	"delay_loops"
 4748      795F 6C6F 
 4748      6F70 7300 
GAS LISTING C:\Users\21030\AppData\Local\Temp/ccjZa2Dn.s 			page 88


 4749               	.LASF35:
 4750 01a7 7573 6572 		.string	"userFunc"
 4750      4675 6E63 
 4750      00
 4751               	.LASF1:
 4752 01b0 756E 7369 		.string	"unsigned char"
 4752      676E 6564 
 4752      2063 6861 
 4752      7200 
 4753               	.LASF33:
 4754 01be 7469 6D65 		.string	"timerAttach"
 4754      7241 7474 
 4754      6163 6800 
 4755               	.LASF62:
 4756 01ca 5469 6D65 		.string	"TimerIntFunc"
 4756      7249 6E74 
 4756      4675 6E63 
 4756      00
 4757               	.LASF0:
 4758 01d7 7369 676E 		.string	"signed char"
 4758      6564 2063 
 4758      6861 7200 
 4759               	.LASF6:
 4760 01e3 6C6F 6E67 		.string	"long long unsigned int"
 4760      206C 6F6E 
 4760      6720 756E 
 4760      7369 676E 
 4760      6564 2069 
 4761               	.LASF11:
 4762 01fa 766F 6964 		.string	"voidFuncPtr"
 4762      4675 6E63 
 4762      5074 7200 
 4763               	.LASF2:
 4764 0206 756E 7369 		.string	"unsigned int"
 4764      676E 6564 
 4764      2069 6E74 
 4764      00
 4765               	.LASF26:
 4766 0213 7469 6D65 		.string	"timer1PWMBOff"
 4766      7231 5057 
 4766      4D42 4F66 
 4766      6600 
 4767               	.LASF7:
 4768 0221 7569 6E74 		.string	"uint16_t"
 4768      3136 5F74 
 4768      00
 4769               	.LASF37:
 4770 022a 7061 7573 		.string	"pause_ms"
 4770      655F 6D73 
 4770      00
 4771               	.LASF13:
 4772 0233 5F5F 7265 		.string	"__result"
 4772      7375 6C74 
 4772      00
 4773               	.LASF19:
 4774 023c 7469 6D65 		.string	"timer2ClearOverflowCount"
 4774      7232 436C 
GAS LISTING C:\Users\21030\AppData\Local\Temp/ccjZa2Dn.s 			page 89


 4774      6561 724F 
 4774      7665 7266 
 4774      6C6F 7743 
 4775               	.LASF22:
 4776 0255 7469 6D65 		.string	"timer0Init"
 4776      7230 496E 
 4776      6974 00
 4777               	.LASF8:
 4778 0260 7368 6F72 		.string	"short unsigned int"
 4778      7420 756E 
 4778      7369 676E 
 4778      6564 2069 
 4778      6E74 00
 4779               	.LASF51:
 4780 0273 7469 6D65 		.string	"timer1PWMASet"
 4780      7231 5057 
 4780      4D41 5365 
 4780      7400 
 4781               	.LASF10:
 4782 0281 6368 6172 		.string	"char"
 4782      00
 4783               	.LASF43:
 4784 0286 7469 6D65 		.string	"timer1PWMInit"
 4784      7231 5057 
 4784      4D49 6E69 
 4784      7400 
 4785               	.LASF21:
 4786 0294 696E 7465 		.string	"interruptNum"
 4786      7272 7570 
 4786      744E 756D 
 4786      00
 4787               	.LASF14:
 4788 02a1 7469 6D65 		.string	"timer1SetPrescaler"
 4788      7231 5365 
 4788      7450 7265 
 4788      7363 616C 
 4788      6572 00
 4789               	.LASF47:
 4790 02b4 7469 6D65 		.string	"timer1PWMOff"
 4790      7231 5057 
 4790      4D4F 6666 
 4790      00
 4791               	.LASF64:
 4792 02c1 5469 6D65 		.string	"TimerRTCPrescaleFactor"
 4792      7252 5443 
 4792      5072 6573 
 4792      6361 6C65 
 4792      4661 6374 
 4793               	.LASF38:
 4794 02d8 7469 6D65 		.string	"timerThres"
 4794      7254 6872 
 4794      6573 00
 4795               	.LASF54:
 4796 02e3 5F5F 7665 		.string	"__vector_11"
 4796      6374 6F72 
 4796      5F31 3100 
 4797               	.LASF4:
GAS LISTING C:\Users\21030\AppData\Local\Temp/ccjZa2Dn.s 			page 90


 4798 02ef 6C6F 6E67 		.string	"long unsigned int"
 4798      2075 6E73 
 4798      6967 6E65 
 4798      6420 696E 
 4798      7400 
 4799               	.LASF32:
 4800 0301 7469 6D65 		.string	"timer2GetPrescaler"
 4800      7232 4765 
 4800      7450 7265 
 4800      7363 616C 
 4800      6572 00
 4801               	.LASF66:
 4802 0314 5469 6D65 		.string	"Timer0Reg0"
 4802      7230 5265 
 4802      6730 00
 4803               	.LASF16:
 4804 031f 7072 6573 		.string	"prescale"
 4804      6361 6C65 
 4804      00
 4805               	.LASF36:
 4806 0328 7469 6D65 		.string	"timerPause"
 4806      7250 6175 
 4806      7365 00
 4807               	.LASF41:
 4808 0333 7469 6D65 		.string	"timer0GetOverflowCount"
 4808      7230 4765 
 4808      744F 7665 
 4808      7266 6C6F 
 4808      7743 6F75 
 4809               	.LASF57:
 4810 034a 5F5F 7665 		.string	"__vector_10"
 4810      6374 6F72 
 4810      5F31 3000 
 4811               	.LASF53:
 4812 0356 7469 6D65 		.string	"timer1PWMBSet"
 4812      7231 5057 
 4812      4D42 5365 
 4812      7400 
 4813               	.LASF44:
 4814 0364 6269 7452 		.string	"bitRes"
 4814      6573 00
 4815               	.LASF63:
 4816 036b 5469 6D65 		.string	"TimerPrescaleFactor"
 4816      7250 7265 
 4816      7363 616C 
 4816      6546 6163 
 4816      746F 7200 
 4817               	.LASF15:
 4818 037f 7469 6D65 		.string	"timer0SetPrescaler"
 4818      7230 5365 
 4818      7450 7265 
 4818      7363 616C 
 4818      6572 00
 4819               	.LASF23:
 4820 0392 7469 6D65 		.string	"timer1Init"
 4820      7231 496E 
 4820      6974 00
GAS LISTING C:\Users\21030\AppData\Local\Temp/ccjZa2Dn.s 			page 91


 4821               	.LASF17:
 4822 039d 7469 6D65 		.string	"timer2SetPrescaler"
 4822      7232 5365 
 4822      7450 7265 
 4822      7363 616C 
 4822      6572 00
 4823               	.LASF42:
 4824 03b0 7469 6D65 		.string	"timer2GetOverflowCount"
 4824      7232 4765 
 4824      744F 7665 
 4824      7266 6C6F 
 4824      7743 6F75 
 4825               	.LASF65:
 4826 03c7 5469 6D65 		.string	"TimerPauseReg"
 4826      7250 6175 
 4826      7365 5265 
 4826      6700 
 4827               	.LASF29:
 4828 03d5 7469 6D65 		.string	"timerInit"
 4828      7249 6E69 
 4828      7400 
 4829               	.global __do_clear_bss
GAS LISTING C:\Users\21030\AppData\Local\Temp/ccjZa2Dn.s 			page 92


DEFINED SYMBOLS
                            *ABS*:00000000 timer.c
C:\Users\21030\AppData\Local\Temp/ccjZa2Dn.s:2      *ABS*:0000003f __SREG__
C:\Users\21030\AppData\Local\Temp/ccjZa2Dn.s:3      *ABS*:0000003e __SP_H__
C:\Users\21030\AppData\Local\Temp/ccjZa2Dn.s:4      *ABS*:0000003d __SP_L__
C:\Users\21030\AppData\Local\Temp/ccjZa2Dn.s:5      *ABS*:00000034 __CCP__
C:\Users\21030\AppData\Local\Temp/ccjZa2Dn.s:6      *ABS*:00000000 __tmp_reg__
C:\Users\21030\AppData\Local\Temp/ccjZa2Dn.s:7      *ABS*:00000001 __zero_reg__
C:\Users\21030\AppData\Local\Temp/ccjZa2Dn.s:18     .text:00000000 delay_us
C:\Users\21030\AppData\Local\Temp/ccjZa2Dn.s:31     .text:00000002 timerInit
                             .bss:00000000 TimerIntFunc
                            *COM*:00000004 Timer0Reg0
                            *COM*:00000004 Timer2Reg0
C:\Users\21030\AppData\Local\Temp/ccjZa2Dn.s:135    .text:00000060 timer0Init
C:\Users\21030\AppData\Local\Temp/ccjZa2Dn.s:167    .text:0000007c timer1Init
C:\Users\21030\AppData\Local\Temp/ccjZa2Dn.s:192    .text:0000008a timer2Init
C:\Users\21030\AppData\Local\Temp/ccjZa2Dn.s:224    .text:000000a6 timer2IntEnable
C:\Users\21030\AppData\Local\Temp/ccjZa2Dn.s:240    .text:000000ae timer0SetPrescaler
C:\Users\21030\AppData\Local\Temp/ccjZa2Dn.s:258    .text:000000b8 timer1SetPrescaler
C:\Users\21030\AppData\Local\Temp/ccjZa2Dn.s:276    .text:000000c2 timer2SetPrescaler
C:\Users\21030\AppData\Local\Temp/ccjZa2Dn.s:294    .text:000000cc timer0GetPrescaler
C:\Users\21030\AppData\Local\Temp/ccjZa2Dn.s:1438   .progmem.data:00000000 TimerPrescaleFactor
C:\Users\21030\AppData\Local\Temp/ccjZa2Dn.s:331    .text:000000e6 timer1GetPrescaler
C:\Users\21030\AppData\Local\Temp/ccjZa2Dn.s:368    .text:00000100 timer2GetPrescaler
C:\Users\21030\AppData\Local\Temp/ccjZa2Dn.s:1448   .progmem.data:0000000c TimerRTCPrescaleFactor
C:\Users\21030\AppData\Local\Temp/ccjZa2Dn.s:405    .text:0000011a timerAttach
C:\Users\21030\AppData\Local\Temp/ccjZa2Dn.s:429    .text:00000130 timerDetach
C:\Users\21030\AppData\Local\Temp/ccjZa2Dn.s:453    .text:00000146 timerPause
                            *COM*:00000004 TimerPauseReg
C:\Users\21030\AppData\Local\Temp/ccjZa2Dn.s:638    .text:0000025a timer0ClearOverflowCount
C:\Users\21030\AppData\Local\Temp/ccjZa2Dn.s:655    .text:0000026c timer0GetOverflowCount
C:\Users\21030\AppData\Local\Temp/ccjZa2Dn.s:674    .text:00000282 timer2ClearOverflowCount
C:\Users\21030\AppData\Local\Temp/ccjZa2Dn.s:691    .text:00000294 timer2GetOverflowCount
C:\Users\21030\AppData\Local\Temp/ccjZa2Dn.s:710    .text:000002aa timer1PWMInit
C:\Users\21030\AppData\Local\Temp/ccjZa2Dn.s:766    .text:000002da timer1PWMInitICR
C:\Users\21030\AppData\Local\Temp/ccjZa2Dn.s:804    .text:00000300 timer1PWMOff
C:\Users\21030\AppData\Local\Temp/ccjZa2Dn.s:848    .text:00000326 timer1PWMAOn
C:\Users\21030\AppData\Local\Temp/ccjZa2Dn.s:868    .text:00000334 timer1PWMBOn
C:\Users\21030\AppData\Local\Temp/ccjZa2Dn.s:888    .text:00000342 timer1PWMAOff
C:\Users\21030\AppData\Local\Temp/ccjZa2Dn.s:908    .text:00000350 timer1PWMBOff
C:\Users\21030\AppData\Local\Temp/ccjZa2Dn.s:928    .text:0000035e timer1PWMASet
C:\Users\21030\AppData\Local\Temp/ccjZa2Dn.s:944    .text:00000364 timer1PWMBSet
C:\Users\21030\AppData\Local\Temp/ccjZa2Dn.s:960    .text:0000036a __vector_11
C:\Users\21030\AppData\Local\Temp/ccjZa2Dn.s:1039   .text:00000410 __vector_9
C:\Users\21030\AppData\Local\Temp/ccjZa2Dn.s:1094   .text:0000046a __vector_5
C:\Users\21030\AppData\Local\Temp/ccjZa2Dn.s:1161   .text:000004ea __vector_10
C:\Users\21030\AppData\Local\Temp/ccjZa2Dn.s:1216   .text:00000544 __vector_7
C:\Users\21030\AppData\Local\Temp/ccjZa2Dn.s:1271   .text:0000059e __vector_8
C:\Users\21030\AppData\Local\Temp/ccjZa2Dn.s:1326   .text:000005f8 __vector_6
C:\Users\21030\AppData\Local\Temp/ccjZa2Dn.s:1381   .text:00000652 __vector_4

UNDEFINED SYMBOLS
__udivmodsi4
__mulsi3
__do_clear_bss
