GAS LISTING C:\Users\21030\AppData\Local\Temp/ccYAyume.s 			page 1


   1               		.file	"main.c"
   2               	__SREG__ = 0x3f
   3               	__SP_H__ = 0x3e
   4               	__SP_L__ = 0x3d
   5               	__CCP__  = 0x34
   6               	__tmp_reg__ = 0
   7               	__zero_reg__ = 1
   8               		.section	.debug_abbrev,"",@progbits
   9               	.Ldebug_abbrev0:
  10               		.section	.debug_info,"",@progbits
  11               	.Ldebug_info0:
  12               		.section	.debug_line,"",@progbits
  13               	.Ldebug_line0:
  14               		.text
  15               	.Ltext0:
  16               	.global	enable_printf
  17               		.type	enable_printf, @function
  18               	enable_printf:
  19               	.LFB7:
  20               	.LM1:
  21               	/* prologue: function */
  22               	/* frame size = 0 */
  23               	/* epilogue start */
  24               	.LM2:
  25 0000 0895      		ret
  26               	.LFE7:
  27               		.size	enable_printf, .-enable_printf
  28               	.global	DPpullEn
  29               		.type	DPpullEn, @function
  30               	DPpullEn:
  31               	.LFB8:
  32               	.LM3:
  33               	.LVL0:
  34               	/* prologue: function */
  35               	/* frame size = 0 */
  36               	.LM4:
  37 0002 8823      		tst r24
  38 0004 01F0      		breq .L4
  39               	.LM5:
  40 0006 969A      		sbi 50-32,6
  41               	.LM6:
  42 0008 8E98      		cbi 49-32,6
  43               	.LM7:
  44 000a 8F9A      		sbi 49-32,7
  45               	.LM8:
  46 000c 9798      		cbi 50-32,7
  47 000e 0895      		ret
  48               	.L4:
  49               	.LM9:
  50 0010 8E9A      		sbi 49-32,6
  51               	.LM10:
  52 0012 9698      		cbi 50-32,6
  53               	.LM11:
  54 0014 979A      		sbi 50-32,7
  55               	.LM12:
  56 0016 8F98      		cbi 49-32,7
  57 0018 0895      		ret
GAS LISTING C:\Users\21030\AppData\Local\Temp/ccYAyume.s 			page 2


  58               	.LFE8:
  59               		.size	DPpullEn, .-DPpullEn
  60               	.global	portInit
  61               		.type	portInit, @function
  62               	portInit:
  63               	.LFB9:
  64               	.LM13:
  65               	/* prologue: function */
  66               	/* frame size = 0 */
  67               	.LM14:
  68 001a 8FEF      		ldi r24,lo8(-1)
  69 001c 8BBB      		out 59-32,r24
  70               	.LM15:
  71 001e 88BB      		out 56-32,r24
  72               	.LM16:
  73 0020 85BB      		out 53-32,r24
  74               	.LM17:
  75 0022 90E8      		ldi r25,lo8(-128)
  76 0024 92BB      		out 50-32,r25
  77               	.LM18:
  78 0026 1ABA      		out 58-32,__zero_reg__
  79               	.LM19:
  80 0028 87BB      		out 55-32,r24
  81               	.LM20:
  82 002a 14BA      		out 52-32,__zero_reg__
  83               	.LM21:
  84 002c 8FE7      		ldi r24,lo8(127)
  85 002e 81BB      		out 49-32,r24
  86               	.LM22:
  87 0030 80E0      		ldi r24,lo8(0)
  88 0032 90E0      		ldi r25,hi8(0)
  89               	/* epilogue start */
  90 0034 0895      		ret
  91               	.LFE9:
  92               		.size	portInit, .-portInit
  93               	.global	checkInterface
  94               		.type	checkInterface, @function
  95               	checkInterface:
  96               	.LFB10:
  97               	.LM23:
  98               	/* prologue: function */
  99               	/* frame size = 0 */
 100               	.LM24:
 101 0036 84E0      		ldi r24,lo8(4)
 102 0038 87BB      		out 55-32,r24
 103               	.LM25:
 104 003a 8BEF      		ldi r24,lo8(-5)
 105 003c 88BB      		out 56-32,r24
 106               	.LBB26:
 107               	.LBB27:
 108               	.LBB28:
 109               	.LBB29:
 110               	.LM26:
 111 003e 88E2      		ldi r24,lo8(40)
 112               	.LVL1:
 113               	/* #APP */
 114               	 ;  83 "c:/winavr-20100110/lib/gcc/../../avr/include/util/delay_basic.h" 1
GAS LISTING C:\Users\21030\AppData\Local\Temp/ccYAyume.s 			page 3


 115 0040 8A95      		1: dec r24
 116 0042 01F4      		brne 1b
 117               	 ;  0 "" 2
 118               	/* #NOAPP */
 119               	.LBE29:
 120               	.LBE28:
 121               	.LBE27:
 122               	.LBE26:
 123               	.LM27:
 124 0044 89B3      		in r24,57-32
 125               	.LVL2:
 126               	.LM28:
 127 0046 93B3      		in r25,51-32
 128               	.LM29:
 129 0048 20B3      		in r18,48-32
 130               	.LM30:
 131 004a 87FD      		sbrc r24,7
 132 004c 00C0      		rjmp .L10
 133               	.LM31:
 134 004e 8CE0      		ldi r24,lo8(12)
 135 0050 90E0      		ldi r25,hi8(12)
 136 0052 61E0      		ldi r22,lo8(1)
 137 0054 0E94 0000 		call __eewr_byte_m32
 138 0058 81E0      		ldi r24,lo8(1)
 139               	.LVL3:
 140 005a 0895      		ret
 141               	.LVL4:
 142               	.L10:
 143               	.LM32:
 144 005c 892F      		mov r24,r25
 145 005e 8095      		com r24
 146 0060 85FF      		sbrs r24,5
 147 0062 00C0      		rjmp .L12
 148               	.LM33:
 149 0064 8CE0      		ldi r24,lo8(12)
 150 0066 90E0      		ldi r25,hi8(12)
 151 0068 60E0      		ldi r22,lo8(0)
 152 006a 0E94 0000 		call __eewr_byte_m32
 153 006e 80E0      		ldi r24,lo8(0)
 154               	.LVL5:
 155 0070 0895      		ret
 156               	.LVL6:
 157               	.L12:
 158               	.LM34:
 159 0072 8CE0      		ldi r24,lo8(12)
 160 0074 90E0      		ldi r25,hi8(12)
 161 0076 0E94 0000 		call __eerd_byte_m32
 162               	.LM35:
 163 007a 0895      		ret
 164               	.LFE10:
 165               		.size	checkInterface, .-checkInterface
 166               	.global	main
 167               		.type	main, @function
 168               	main:
 169               	.LFB11:
 170               	.LM36:
 171               	/* prologue: function */
GAS LISTING C:\Users\21030\AppData\Local\Temp/ccYAyume.s 			page 4


 172               	/* frame size = 0 */
 173               	.LM37:
 174 007c 0E94 0000 		call portInit
 175               	.LM38:
 176 0080 0E94 0000 		call checkInterface
 177 0084 8093 0000 		sts usbmode,r24
 178               	.LM39:
 179 0088 0E94 0000 		call DPpullEn
 180               	.LM40:
 181 008c 0E94 0000 		call timerInit
 182               	.LM41:
 183 0090 88E0      		ldi r24,lo8(8)
 184 0092 0E94 0000 		call timer1PWMInit
 185               	.LM42:
 186 0096 0E94 0000 		call keymap_init
 187               	.LM43:
 188 009a 0E94 0000 		call led_mode_init
 189               	.LM44:
 190 009e 8091 0000 		lds r24,usbmode
 191 00a2 8823      		tst r24
 192 00a4 01F0      		breq .L15
 193               	.LM45:
 194 00a6 81E0      		ldi r24,lo8(1)
 195 00a8 0E94 0000 		call led_check
 196               	.LM46:
 197 00ac 0E94 0000 		call usbmain
 198 00b0 00C0      		rjmp .L16
 199               	.L15:
 200               	.LM47:
 201 00b2 0E94 0000 		call timer2IntEnable
 202               	.LM48:
 203 00b6 80E0      		ldi r24,lo8(0)
 204 00b8 0E94 0000 		call led_check
 205               	.LM49:
 206 00bc 0E94 0000 		call ps2main
 207               	.L16:
 208               	.LM50:
 209 00c0 80E0      		ldi r24,lo8(0)
 210 00c2 90E0      		ldi r25,hi8(0)
 211               	/* epilogue start */
 212 00c4 0895      		ret
 213               	.LFE11:
 214               		.size	main, .-main
 215               	.global	usbmode
 216               		.data
 217               		.type	usbmode, @object
 218               		.size	usbmode, 1
 219               	usbmode:
 220 0000 01        		.byte	1
 221               		.section	.debug_frame,"",@progbits
 222               	.Lframe0:
 223 0000 0C00 0000 		.long	.LECIE0-.LSCIE0
 224               	.LSCIE0:
 225 0004 FFFF FFFF 		.long	0xffffffff
 226 0008 01        		.byte	0x1
 227 0009 00        		.string	""
 228 000a 01        		.uleb128 0x1
GAS LISTING C:\Users\21030\AppData\Local\Temp/ccYAyume.s 			page 5


 229 000b 7F        		.sleb128 -1
 230 000c 24        		.byte	0x24
 231 000d 0C        		.byte	0xc
 232 000e 20        		.uleb128 0x20
 233 000f 00        		.uleb128 0x0
 234               		.p2align	2
 235               	.LECIE0:
 236               	.LSFDE0:
 237 0010 0C00 0000 		.long	.LEFDE0-.LASFDE0
 238               	.LASFDE0:
 239 0014 0000 0000 		.long	.Lframe0
 240 0018 0000 0000 		.long	.LFB7
 241 001c 0200 0000 		.long	.LFE7-.LFB7
 242               		.p2align	2
 243               	.LEFDE0:
 244               	.LSFDE2:
 245 0020 0C00 0000 		.long	.LEFDE2-.LASFDE2
 246               	.LASFDE2:
 247 0024 0000 0000 		.long	.Lframe0
 248 0028 0000 0000 		.long	.LFB8
 249 002c 1800 0000 		.long	.LFE8-.LFB8
 250               		.p2align	2
 251               	.LEFDE2:
 252               	.LSFDE4:
 253 0030 0C00 0000 		.long	.LEFDE4-.LASFDE4
 254               	.LASFDE4:
 255 0034 0000 0000 		.long	.Lframe0
 256 0038 0000 0000 		.long	.LFB9
 257 003c 1C00 0000 		.long	.LFE9-.LFB9
 258               		.p2align	2
 259               	.LEFDE4:
 260               	.LSFDE6:
 261 0040 0C00 0000 		.long	.LEFDE6-.LASFDE6
 262               	.LASFDE6:
 263 0044 0000 0000 		.long	.Lframe0
 264 0048 0000 0000 		.long	.LFB10
 265 004c 4600 0000 		.long	.LFE10-.LFB10
 266               		.p2align	2
 267               	.LEFDE6:
 268               	.LSFDE8:
 269 0050 0C00 0000 		.long	.LEFDE8-.LASFDE8
 270               	.LASFDE8:
 271 0054 0000 0000 		.long	.Lframe0
 272 0058 0000 0000 		.long	.LFB11
 273 005c 4A00 0000 		.long	.LFE11-.LFB11
 274               		.p2align	2
 275               	.LEFDE8:
 276               		.text
 277               	.Letext0:
 278               		.section	.debug_loc,"",@progbits
 279               	.Ldebug_loc0:
 280               	.LLST4:
 281 0000 5A00 0000 		.long	.LVL3-.Ltext0
 282 0004 5C00 0000 		.long	.LVL4-.Ltext0
 283 0008 0100      		.word	0x1
 284 000a 68        		.byte	0x68
 285 000b 7000 0000 		.long	.LVL5-.Ltext0
GAS LISTING C:\Users\21030\AppData\Local\Temp/ccYAyume.s 			page 6


 286 000f 7200 0000 		.long	.LVL6-.Ltext0
 287 0013 0100      		.word	0x1
 288 0015 68        		.byte	0x68
 289 0016 0000 0000 		.long	0x0
 290 001a 0000 0000 		.long	0x0
 291               	.LLST5:
 292 001e 4000 0000 		.long	.LVL1-.Ltext0
 293 0022 4600 0000 		.long	.LVL2-.Ltext0
 294 0026 0100      		.word	0x1
 295 0028 68        		.byte	0x68
 296 0029 0000 0000 		.long	0x0
 297 002d 0000 0000 		.long	0x0
 298               		.section	.debug_info
 299 0000 4E02 0000 		.long	0x24e
 300 0004 0200      		.word	0x2
 301 0006 0000 0000 		.long	.Ldebug_abbrev0
 302 000a 04        		.byte	0x4
 303 000b 01        		.uleb128 0x1
 304 000c 0000 0000 		.long	.LASF28
 305 0010 01        		.byte	0x1
 306 0011 0000 0000 		.long	.LASF29
 307 0015 0000 0000 		.long	.LASF30
 308 0019 0000 0000 		.long	.Ltext0
 309 001d 0000 0000 		.long	.Letext0
 310 0021 0000 0000 		.long	.Ldebug_line0
 311 0025 02        		.uleb128 0x2
 312 0026 01        		.byte	0x1
 313 0027 08        		.byte	0x8
 314 0028 0000 0000 		.long	.LASF0
 315 002c 02        		.uleb128 0x2
 316 002d 01        		.byte	0x1
 317 002e 06        		.byte	0x6
 318 002f 0000 0000 		.long	.LASF1
 319 0033 02        		.uleb128 0x2
 320 0034 02        		.byte	0x2
 321 0035 07        		.byte	0x7
 322 0036 0000 0000 		.long	.LASF2
 323 003a 02        		.uleb128 0x2
 324 003b 02        		.byte	0x2
 325 003c 05        		.byte	0x5
 326 003d 0000 0000 		.long	.LASF3
 327 0041 02        		.uleb128 0x2
 328 0042 04        		.byte	0x4
 329 0043 07        		.byte	0x7
 330 0044 0000 0000 		.long	.LASF4
 331 0048 02        		.uleb128 0x2
 332 0049 04        		.byte	0x4
 333 004a 05        		.byte	0x5
 334 004b 0000 0000 		.long	.LASF5
 335 004f 02        		.uleb128 0x2
 336 0050 08        		.byte	0x8
 337 0051 07        		.byte	0x7
 338 0052 0000 0000 		.long	.LASF6
 339 0056 02        		.uleb128 0x2
 340 0057 08        		.byte	0x8
 341 0058 05        		.byte	0x5
 342 0059 0000 0000 		.long	.LASF7
GAS LISTING C:\Users\21030\AppData\Local\Temp/ccYAyume.s 			page 7


 343 005d 02        		.uleb128 0x2
 344 005e 02        		.byte	0x2
 345 005f 07        		.byte	0x7
 346 0060 0000 0000 		.long	.LASF8
 347 0064 02        		.uleb128 0x2
 348 0065 01        		.byte	0x1
 349 0066 06        		.byte	0x6
 350 0067 0000 0000 		.long	.LASF9
 351 006b 03        		.uleb128 0x3
 352 006c 02        		.byte	0x2
 353 006d 05        		.byte	0x5
 354 006e 696E 7400 		.string	"int"
 355 0072 04        		.uleb128 0x4
 356 0073 0000 0000 		.long	.LASF10
 357 0077 03        		.byte	0x3
 358 0078 79        		.byte	0x79
 359 0079 2C00 0000 		.long	0x2c
 360 007d 04        		.uleb128 0x4
 361 007e 0000 0000 		.long	.LASF11
 362 0082 03        		.byte	0x3
 363 0083 7A        		.byte	0x7a
 364 0084 2500 0000 		.long	0x25
 365 0088 04        		.uleb128 0x4
 366 0089 0000 0000 		.long	.LASF12
 367 008d 03        		.byte	0x3
 368 008e 7C        		.byte	0x7c
 369 008f 5D00 0000 		.long	0x5d
 370 0093 05        		.uleb128 0x5
 371 0094 01        		.byte	0x1
 372 0095 06        		.byte	0x6
 373 0096 05        		.uleb128 0x5
 374 0097 01        		.byte	0x1
 375 0098 08        		.byte	0x8
 376 0099 05        		.uleb128 0x5
 377 009a 02        		.byte	0x2
 378 009b 07        		.byte	0x7
 379 009c 06        		.uleb128 0x6
 380 009d 0000 0000 		.long	.LASF13
 381 00a1 02        		.byte	0x2
 382 00a2 68        		.byte	0x68
 383 00a3 01        		.byte	0x1
 384 00a4 03        		.byte	0x3
 385 00a5 B500 0000 		.long	0xb5
 386 00a9 07        		.uleb128 0x7
 387 00aa 0000 0000 		.long	.LASF15
 388 00ae 02        		.byte	0x2
 389 00af 67        		.byte	0x67
 390 00b0 8800 0000 		.long	0x88
 391 00b4 00        		.byte	0x0
 392 00b5 06        		.uleb128 0x6
 393 00b6 0000 0000 		.long	.LASF14
 394 00ba 04        		.byte	0x4
 395 00bb 6F        		.byte	0x6f
 396 00bc 01        		.byte	0x1
 397 00bd 03        		.byte	0x3
 398 00be E600 0000 		.long	0xe6
 399 00c2 07        		.uleb128 0x7
GAS LISTING C:\Users\21030\AppData\Local\Temp/ccYAyume.s 			page 8


 400 00c3 0000 0000 		.long	.LASF16
 401 00c7 04        		.byte	0x4
 402 00c8 6E        		.byte	0x6e
 403 00c9 E600 0000 		.long	0xe6
 404 00cd 08        		.uleb128 0x8
 405 00ce 0000 0000 		.long	.LASF17
 406 00d2 04        		.byte	0x4
 407 00d3 70        		.byte	0x70
 408 00d4 8800 0000 		.long	0x88
 409 00d8 08        		.uleb128 0x8
 410 00d9 0000 0000 		.long	.LASF18
 411 00dd 04        		.byte	0x4
 412 00de 71        		.byte	0x71
 413 00df E600 0000 		.long	0xe6
 414 00e3 09        		.uleb128 0x9
 415 00e4 09        		.uleb128 0x9
 416 00e5 00        		.byte	0x0
 417 00e6 02        		.uleb128 0x2
 418 00e7 04        		.byte	0x4
 419 00e8 04        		.byte	0x4
 420 00e9 0000 0000 		.long	.LASF19
 421 00ed 06        		.uleb128 0x6
 422 00ee 0000 0000 		.long	.LASF20
 423 00f2 02        		.byte	0x2
 424 00f3 52        		.byte	0x52
 425 00f4 01        		.byte	0x1
 426 00f5 03        		.byte	0x3
 427 00f6 0601 0000 		.long	0x106
 428 00fa 07        		.uleb128 0x7
 429 00fb 0000 0000 		.long	.LASF15
 430 00ff 02        		.byte	0x2
 431 0100 51        		.byte	0x51
 432 0101 7D00 0000 		.long	0x7d
 433 0105 00        		.byte	0x0
 434 0106 06        		.uleb128 0x6
 435 0107 0000 0000 		.long	.LASF21
 436 010b 04        		.byte	0x4
 437 010c 95        		.byte	0x95
 438 010d 01        		.byte	0x1
 439 010e 03        		.byte	0x3
 440 010f 4F01 0000 		.long	0x14f
 441 0113 07        		.uleb128 0x7
 442 0114 0000 0000 		.long	.LASF22
 443 0118 04        		.byte	0x4
 444 0119 94        		.byte	0x94
 445 011a E600 0000 		.long	0xe6
 446 011e 08        		.uleb128 0x8
 447 011f 0000 0000 		.long	.LASF17
 448 0123 04        		.byte	0x4
 449 0124 96        		.byte	0x96
 450 0125 7D00 0000 		.long	0x7d
 451 0129 08        		.uleb128 0x8
 452 012a 0000 0000 		.long	.LASF18
 453 012e 04        		.byte	0x4
 454 012f 97        		.byte	0x97
 455 0130 E600 0000 		.long	0xe6
 456 0134 0A        		.uleb128 0xa
GAS LISTING C:\Users\21030\AppData\Local\Temp/ccYAyume.s 			page 9


 457 0135 4D01 0000 		.long	0x14d
 458 0139 0B        		.uleb128 0xb
 459 013a C200 0000 		.long	0xc2
 460 013e 0C        		.uleb128 0xc
 461 013f 0D        		.uleb128 0xd
 462 0140 CD00 0000 		.long	0xcd
 463 0144 0D        		.uleb128 0xd
 464 0145 D800 0000 		.long	0xd8
 465 0149 09        		.uleb128 0x9
 466 014a 09        		.uleb128 0x9
 467 014b 00        		.byte	0x0
 468 014c 00        		.byte	0x0
 469 014d 09        		.uleb128 0x9
 470 014e 00        		.byte	0x0
 471 014f 0E        		.uleb128 0xe
 472 0150 01        		.byte	0x1
 473 0151 0000 0000 		.long	.LASF31
 474 0155 01        		.byte	0x1
 475 0156 37        		.byte	0x37
 476 0157 01        		.byte	0x1
 477 0158 01        		.byte	0x1
 478 0159 0F        		.uleb128 0xf
 479 015a 4F01 0000 		.long	0x14f
 480 015e 0000 0000 		.long	.LFB7
 481 0162 0000 0000 		.long	.LFE7
 482 0166 02        		.byte	0x2
 483 0167 90        		.byte	0x90
 484 0168 20        		.uleb128 0x20
 485 0169 10        		.uleb128 0x10
 486 016a 01        		.byte	0x1
 487 016b 0000 0000 		.long	.LASF32
 488 016f 01        		.byte	0x1
 489 0170 44        		.byte	0x44
 490 0171 01        		.byte	0x1
 491 0172 0000 0000 		.long	.LFB8
 492 0176 0000 0000 		.long	.LFE8
 493 017a 02        		.byte	0x2
 494 017b 90        		.byte	0x90
 495 017c 20        		.uleb128 0x20
 496 017d 8F01 0000 		.long	0x18f
 497 0181 11        		.uleb128 0x11
 498 0182 0000 0000 		.long	.LASF33
 499 0186 01        		.byte	0x1
 500 0187 43        		.byte	0x43
 501 0188 7D00 0000 		.long	0x7d
 502 018c 01        		.byte	0x1
 503 018d 68        		.byte	0x68
 504 018e 00        		.byte	0x0
 505 018f 12        		.uleb128 0x12
 506 0190 01        		.byte	0x1
 507 0191 0000 0000 		.long	.LASF26
 508 0195 01        		.byte	0x1
 509 0196 58        		.byte	0x58
 510 0197 01        		.byte	0x1
 511 0198 6B00 0000 		.long	0x6b
 512 019c 0000 0000 		.long	.LFB9
 513 01a0 0000 0000 		.long	.LFE9
GAS LISTING C:\Users\21030\AppData\Local\Temp/ccYAyume.s 			page 10


 514 01a4 02        		.byte	0x2
 515 01a5 90        		.byte	0x90
 516 01a6 20        		.uleb128 0x20
 517 01a7 13        		.uleb128 0x13
 518 01a8 01        		.byte	0x1
 519 01a9 0000 0000 		.long	.LASF34
 520 01ad 01        		.byte	0x1
 521 01ae 7F        		.byte	0x7f
 522 01af 01        		.byte	0x1
 523 01b0 7200 0000 		.long	0x72
 524 01b4 0000 0000 		.long	.LFB10
 525 01b8 0000 0000 		.long	.LFE10
 526 01bc 02        		.byte	0x2
 527 01bd 90        		.byte	0x90
 528 01be 20        		.uleb128 0x20
 529 01bf 2702 0000 		.long	0x227
 530 01c3 08        		.uleb128 0x8
 531 01c4 0000 0000 		.long	.LASF23
 532 01c8 01        		.byte	0x1
 533 01c9 80        		.byte	0x80
 534 01ca 7D00 0000 		.long	0x7d
 535 01ce 08        		.uleb128 0x8
 536 01cf 0000 0000 		.long	.LASF24
 537 01d3 01        		.byte	0x1
 538 01d4 80        		.byte	0x80
 539 01d5 7D00 0000 		.long	0x7d
 540 01d9 08        		.uleb128 0x8
 541 01da 0000 0000 		.long	.LASF25
 542 01de 01        		.byte	0x1
 543 01df 80        		.byte	0x80
 544 01e0 7D00 0000 		.long	0x7d
 545 01e4 14        		.uleb128 0x14
 546 01e5 0000 0000 		.long	.LASF35
 547 01e9 01        		.byte	0x1
 548 01ea 81        		.byte	0x81
 549 01eb 7D00 0000 		.long	0x7d
 550 01ef 0000 0000 		.long	.LLST4
 551 01f3 15        		.uleb128 0x15
 552 01f4 0601 0000 		.long	0x106
 553 01f8 0000 0000 		.long	.LBB26
 554 01fc 0000 0000 		.long	.LBE26
 555 0200 01        		.byte	0x1
 556 0201 8A        		.byte	0x8a
 557 0202 16        		.uleb128 0x16
 558 0203 0000 0000 		.long	.LBB27
 559 0207 0000 0000 		.long	.LBE27
 560 020b 15        		.uleb128 0x15
 561 020c ED00 0000 		.long	0xed
 562 0210 0000 0000 		.long	.LBB28
 563 0214 0000 0000 		.long	.LBE28
 564 0218 04        		.byte	0x4
 565 0219 A1        		.byte	0xa1
 566 021a 17        		.uleb128 0x17
 567 021b FA00 0000 		.long	0xfa
 568 021f 0000 0000 		.long	.LLST5
 569 0223 00        		.byte	0x0
 570 0224 00        		.byte	0x0
GAS LISTING C:\Users\21030\AppData\Local\Temp/ccYAyume.s 			page 11


 571 0225 00        		.byte	0x0
 572 0226 00        		.byte	0x0
 573 0227 12        		.uleb128 0x12
 574 0228 01        		.byte	0x1
 575 0229 0000 0000 		.long	.LASF27
 576 022d 01        		.byte	0x1
 577 022e AB        		.byte	0xab
 578 022f 01        		.byte	0x1
 579 0230 6B00 0000 		.long	0x6b
 580 0234 0000 0000 		.long	.LFB11
 581 0238 0000 0000 		.long	.LFE11
 582 023c 02        		.byte	0x2
 583 023d 90        		.byte	0x90
 584 023e 20        		.uleb128 0x20
 585 023f 18        		.uleb128 0x18
 586 0240 0000 0000 		.long	.LASF36
 587 0244 01        		.byte	0x1
 588 0245 20        		.byte	0x20
 589 0246 7200 0000 		.long	0x72
 590 024a 01        		.byte	0x1
 591 024b 05        		.byte	0x5
 592 024c 03        		.byte	0x3
 593 024d 0000 0000 		.long	usbmode
 594 0251 00        		.byte	0x0
 595               		.section	.debug_abbrev
 596 0000 01        		.uleb128 0x1
 597 0001 11        		.uleb128 0x11
 598 0002 01        		.byte	0x1
 599 0003 25        		.uleb128 0x25
 600 0004 0E        		.uleb128 0xe
 601 0005 13        		.uleb128 0x13
 602 0006 0B        		.uleb128 0xb
 603 0007 03        		.uleb128 0x3
 604 0008 0E        		.uleb128 0xe
 605 0009 1B        		.uleb128 0x1b
 606 000a 0E        		.uleb128 0xe
 607 000b 11        		.uleb128 0x11
 608 000c 01        		.uleb128 0x1
 609 000d 12        		.uleb128 0x12
 610 000e 01        		.uleb128 0x1
 611 000f 10        		.uleb128 0x10
 612 0010 06        		.uleb128 0x6
 613 0011 00        		.byte	0x0
 614 0012 00        		.byte	0x0
 615 0013 02        		.uleb128 0x2
 616 0014 24        		.uleb128 0x24
 617 0015 00        		.byte	0x0
 618 0016 0B        		.uleb128 0xb
 619 0017 0B        		.uleb128 0xb
 620 0018 3E        		.uleb128 0x3e
 621 0019 0B        		.uleb128 0xb
 622 001a 03        		.uleb128 0x3
 623 001b 0E        		.uleb128 0xe
 624 001c 00        		.byte	0x0
 625 001d 00        		.byte	0x0
 626 001e 03        		.uleb128 0x3
 627 001f 24        		.uleb128 0x24
GAS LISTING C:\Users\21030\AppData\Local\Temp/ccYAyume.s 			page 12


 628 0020 00        		.byte	0x0
 629 0021 0B        		.uleb128 0xb
 630 0022 0B        		.uleb128 0xb
 631 0023 3E        		.uleb128 0x3e
 632 0024 0B        		.uleb128 0xb
 633 0025 03        		.uleb128 0x3
 634 0026 08        		.uleb128 0x8
 635 0027 00        		.byte	0x0
 636 0028 00        		.byte	0x0
 637 0029 04        		.uleb128 0x4
 638 002a 16        		.uleb128 0x16
 639 002b 00        		.byte	0x0
 640 002c 03        		.uleb128 0x3
 641 002d 0E        		.uleb128 0xe
 642 002e 3A        		.uleb128 0x3a
 643 002f 0B        		.uleb128 0xb
 644 0030 3B        		.uleb128 0x3b
 645 0031 0B        		.uleb128 0xb
 646 0032 49        		.uleb128 0x49
 647 0033 13        		.uleb128 0x13
 648 0034 00        		.byte	0x0
 649 0035 00        		.byte	0x0
 650 0036 05        		.uleb128 0x5
 651 0037 24        		.uleb128 0x24
 652 0038 00        		.byte	0x0
 653 0039 0B        		.uleb128 0xb
 654 003a 0B        		.uleb128 0xb
 655 003b 3E        		.uleb128 0x3e
 656 003c 0B        		.uleb128 0xb
 657 003d 00        		.byte	0x0
 658 003e 00        		.byte	0x0
 659 003f 06        		.uleb128 0x6
 660 0040 2E        		.uleb128 0x2e
 661 0041 01        		.byte	0x1
 662 0042 03        		.uleb128 0x3
 663 0043 0E        		.uleb128 0xe
 664 0044 3A        		.uleb128 0x3a
 665 0045 0B        		.uleb128 0xb
 666 0046 3B        		.uleb128 0x3b
 667 0047 0B        		.uleb128 0xb
 668 0048 27        		.uleb128 0x27
 669 0049 0C        		.uleb128 0xc
 670 004a 20        		.uleb128 0x20
 671 004b 0B        		.uleb128 0xb
 672 004c 01        		.uleb128 0x1
 673 004d 13        		.uleb128 0x13
 674 004e 00        		.byte	0x0
 675 004f 00        		.byte	0x0
 676 0050 07        		.uleb128 0x7
 677 0051 05        		.uleb128 0x5
 678 0052 00        		.byte	0x0
 679 0053 03        		.uleb128 0x3
 680 0054 0E        		.uleb128 0xe
 681 0055 3A        		.uleb128 0x3a
 682 0056 0B        		.uleb128 0xb
 683 0057 3B        		.uleb128 0x3b
 684 0058 0B        		.uleb128 0xb
GAS LISTING C:\Users\21030\AppData\Local\Temp/ccYAyume.s 			page 13


 685 0059 49        		.uleb128 0x49
 686 005a 13        		.uleb128 0x13
 687 005b 00        		.byte	0x0
 688 005c 00        		.byte	0x0
 689 005d 08        		.uleb128 0x8
 690 005e 34        		.uleb128 0x34
 691 005f 00        		.byte	0x0
 692 0060 03        		.uleb128 0x3
 693 0061 0E        		.uleb128 0xe
 694 0062 3A        		.uleb128 0x3a
 695 0063 0B        		.uleb128 0xb
 696 0064 3B        		.uleb128 0x3b
 697 0065 0B        		.uleb128 0xb
 698 0066 49        		.uleb128 0x49
 699 0067 13        		.uleb128 0x13
 700 0068 00        		.byte	0x0
 701 0069 00        		.byte	0x0
 702 006a 09        		.uleb128 0x9
 703 006b 0B        		.uleb128 0xb
 704 006c 00        		.byte	0x0
 705 006d 00        		.byte	0x0
 706 006e 00        		.byte	0x0
 707 006f 0A        		.uleb128 0xa
 708 0070 0B        		.uleb128 0xb
 709 0071 01        		.byte	0x1
 710 0072 01        		.uleb128 0x1
 711 0073 13        		.uleb128 0x13
 712 0074 00        		.byte	0x0
 713 0075 00        		.byte	0x0
 714 0076 0B        		.uleb128 0xb
 715 0077 05        		.uleb128 0x5
 716 0078 00        		.byte	0x0
 717 0079 31        		.uleb128 0x31
 718 007a 13        		.uleb128 0x13
 719 007b 00        		.byte	0x0
 720 007c 00        		.byte	0x0
 721 007d 0C        		.uleb128 0xc
 722 007e 0B        		.uleb128 0xb
 723 007f 01        		.byte	0x1
 724 0080 00        		.byte	0x0
 725 0081 00        		.byte	0x0
 726 0082 0D        		.uleb128 0xd
 727 0083 34        		.uleb128 0x34
 728 0084 00        		.byte	0x0
 729 0085 31        		.uleb128 0x31
 730 0086 13        		.uleb128 0x13
 731 0087 00        		.byte	0x0
 732 0088 00        		.byte	0x0
 733 0089 0E        		.uleb128 0xe
 734 008a 2E        		.uleb128 0x2e
 735 008b 00        		.byte	0x0
 736 008c 3F        		.uleb128 0x3f
 737 008d 0C        		.uleb128 0xc
 738 008e 03        		.uleb128 0x3
 739 008f 0E        		.uleb128 0xe
 740 0090 3A        		.uleb128 0x3a
 741 0091 0B        		.uleb128 0xb
GAS LISTING C:\Users\21030\AppData\Local\Temp/ccYAyume.s 			page 14


 742 0092 3B        		.uleb128 0x3b
 743 0093 0B        		.uleb128 0xb
 744 0094 27        		.uleb128 0x27
 745 0095 0C        		.uleb128 0xc
 746 0096 20        		.uleb128 0x20
 747 0097 0B        		.uleb128 0xb
 748 0098 00        		.byte	0x0
 749 0099 00        		.byte	0x0
 750 009a 0F        		.uleb128 0xf
 751 009b 2E        		.uleb128 0x2e
 752 009c 00        		.byte	0x0
 753 009d 31        		.uleb128 0x31
 754 009e 13        		.uleb128 0x13
 755 009f 11        		.uleb128 0x11
 756 00a0 01        		.uleb128 0x1
 757 00a1 12        		.uleb128 0x12
 758 00a2 01        		.uleb128 0x1
 759 00a3 40        		.uleb128 0x40
 760 00a4 0A        		.uleb128 0xa
 761 00a5 00        		.byte	0x0
 762 00a6 00        		.byte	0x0
 763 00a7 10        		.uleb128 0x10
 764 00a8 2E        		.uleb128 0x2e
 765 00a9 01        		.byte	0x1
 766 00aa 3F        		.uleb128 0x3f
 767 00ab 0C        		.uleb128 0xc
 768 00ac 03        		.uleb128 0x3
 769 00ad 0E        		.uleb128 0xe
 770 00ae 3A        		.uleb128 0x3a
 771 00af 0B        		.uleb128 0xb
 772 00b0 3B        		.uleb128 0x3b
 773 00b1 0B        		.uleb128 0xb
 774 00b2 27        		.uleb128 0x27
 775 00b3 0C        		.uleb128 0xc
 776 00b4 11        		.uleb128 0x11
 777 00b5 01        		.uleb128 0x1
 778 00b6 12        		.uleb128 0x12
 779 00b7 01        		.uleb128 0x1
 780 00b8 40        		.uleb128 0x40
 781 00b9 0A        		.uleb128 0xa
 782 00ba 01        		.uleb128 0x1
 783 00bb 13        		.uleb128 0x13
 784 00bc 00        		.byte	0x0
 785 00bd 00        		.byte	0x0
 786 00be 11        		.uleb128 0x11
 787 00bf 05        		.uleb128 0x5
 788 00c0 00        		.byte	0x0
 789 00c1 03        		.uleb128 0x3
 790 00c2 0E        		.uleb128 0xe
 791 00c3 3A        		.uleb128 0x3a
 792 00c4 0B        		.uleb128 0xb
 793 00c5 3B        		.uleb128 0x3b
 794 00c6 0B        		.uleb128 0xb
 795 00c7 49        		.uleb128 0x49
 796 00c8 13        		.uleb128 0x13
 797 00c9 02        		.uleb128 0x2
 798 00ca 0A        		.uleb128 0xa
GAS LISTING C:\Users\21030\AppData\Local\Temp/ccYAyume.s 			page 15


 799 00cb 00        		.byte	0x0
 800 00cc 00        		.byte	0x0
 801 00cd 12        		.uleb128 0x12
 802 00ce 2E        		.uleb128 0x2e
 803 00cf 00        		.byte	0x0
 804 00d0 3F        		.uleb128 0x3f
 805 00d1 0C        		.uleb128 0xc
 806 00d2 03        		.uleb128 0x3
 807 00d3 0E        		.uleb128 0xe
 808 00d4 3A        		.uleb128 0x3a
 809 00d5 0B        		.uleb128 0xb
 810 00d6 3B        		.uleb128 0x3b
 811 00d7 0B        		.uleb128 0xb
 812 00d8 27        		.uleb128 0x27
 813 00d9 0C        		.uleb128 0xc
 814 00da 49        		.uleb128 0x49
 815 00db 13        		.uleb128 0x13
 816 00dc 11        		.uleb128 0x11
 817 00dd 01        		.uleb128 0x1
 818 00de 12        		.uleb128 0x12
 819 00df 01        		.uleb128 0x1
 820 00e0 40        		.uleb128 0x40
 821 00e1 0A        		.uleb128 0xa
 822 00e2 00        		.byte	0x0
 823 00e3 00        		.byte	0x0
 824 00e4 13        		.uleb128 0x13
 825 00e5 2E        		.uleb128 0x2e
 826 00e6 01        		.byte	0x1
 827 00e7 3F        		.uleb128 0x3f
 828 00e8 0C        		.uleb128 0xc
 829 00e9 03        		.uleb128 0x3
 830 00ea 0E        		.uleb128 0xe
 831 00eb 3A        		.uleb128 0x3a
 832 00ec 0B        		.uleb128 0xb
 833 00ed 3B        		.uleb128 0x3b
 834 00ee 0B        		.uleb128 0xb
 835 00ef 27        		.uleb128 0x27
 836 00f0 0C        		.uleb128 0xc
 837 00f1 49        		.uleb128 0x49
 838 00f2 13        		.uleb128 0x13
 839 00f3 11        		.uleb128 0x11
 840 00f4 01        		.uleb128 0x1
 841 00f5 12        		.uleb128 0x12
 842 00f6 01        		.uleb128 0x1
 843 00f7 40        		.uleb128 0x40
 844 00f8 0A        		.uleb128 0xa
 845 00f9 01        		.uleb128 0x1
 846 00fa 13        		.uleb128 0x13
 847 00fb 00        		.byte	0x0
 848 00fc 00        		.byte	0x0
 849 00fd 14        		.uleb128 0x14
 850 00fe 34        		.uleb128 0x34
 851 00ff 00        		.byte	0x0
 852 0100 03        		.uleb128 0x3
 853 0101 0E        		.uleb128 0xe
 854 0102 3A        		.uleb128 0x3a
 855 0103 0B        		.uleb128 0xb
GAS LISTING C:\Users\21030\AppData\Local\Temp/ccYAyume.s 			page 16


 856 0104 3B        		.uleb128 0x3b
 857 0105 0B        		.uleb128 0xb
 858 0106 49        		.uleb128 0x49
 859 0107 13        		.uleb128 0x13
 860 0108 02        		.uleb128 0x2
 861 0109 06        		.uleb128 0x6
 862 010a 00        		.byte	0x0
 863 010b 00        		.byte	0x0
 864 010c 15        		.uleb128 0x15
 865 010d 1D        		.uleb128 0x1d
 866 010e 01        		.byte	0x1
 867 010f 31        		.uleb128 0x31
 868 0110 13        		.uleb128 0x13
 869 0111 11        		.uleb128 0x11
 870 0112 01        		.uleb128 0x1
 871 0113 12        		.uleb128 0x12
 872 0114 01        		.uleb128 0x1
 873 0115 58        		.uleb128 0x58
 874 0116 0B        		.uleb128 0xb
 875 0117 59        		.uleb128 0x59
 876 0118 0B        		.uleb128 0xb
 877 0119 00        		.byte	0x0
 878 011a 00        		.byte	0x0
 879 011b 16        		.uleb128 0x16
 880 011c 0B        		.uleb128 0xb
 881 011d 01        		.byte	0x1
 882 011e 11        		.uleb128 0x11
 883 011f 01        		.uleb128 0x1
 884 0120 12        		.uleb128 0x12
 885 0121 01        		.uleb128 0x1
 886 0122 00        		.byte	0x0
 887 0123 00        		.byte	0x0
 888 0124 17        		.uleb128 0x17
 889 0125 05        		.uleb128 0x5
 890 0126 00        		.byte	0x0
 891 0127 31        		.uleb128 0x31
 892 0128 13        		.uleb128 0x13
 893 0129 02        		.uleb128 0x2
 894 012a 06        		.uleb128 0x6
 895 012b 00        		.byte	0x0
 896 012c 00        		.byte	0x0
 897 012d 18        		.uleb128 0x18
 898 012e 34        		.uleb128 0x34
 899 012f 00        		.byte	0x0
 900 0130 03        		.uleb128 0x3
 901 0131 0E        		.uleb128 0xe
 902 0132 3A        		.uleb128 0x3a
 903 0133 0B        		.uleb128 0xb
 904 0134 3B        		.uleb128 0x3b
 905 0135 0B        		.uleb128 0xb
 906 0136 49        		.uleb128 0x49
 907 0137 13        		.uleb128 0x13
 908 0138 3F        		.uleb128 0x3f
 909 0139 0C        		.uleb128 0xc
 910 013a 02        		.uleb128 0x2
 911 013b 0A        		.uleb128 0xa
 912 013c 00        		.byte	0x0
GAS LISTING C:\Users\21030\AppData\Local\Temp/ccYAyume.s 			page 17


 913 013d 00        		.byte	0x0
 914 013e 00        		.byte	0x0
 915               		.section	.debug_pubnames,"",@progbits
 916 0000 6200 0000 		.long	0x62
 917 0004 0200      		.word	0x2
 918 0006 0000 0000 		.long	.Ldebug_info0
 919 000a 5202 0000 		.long	0x252
 920 000e 5901 0000 		.long	0x159
 921 0012 656E 6162 		.string	"enable_printf"
 921      6C65 5F70 
 921      7269 6E74 
 921      6600 
 922 0020 6901 0000 		.long	0x169
 923 0024 4450 7075 		.string	"DPpullEn"
 923      6C6C 456E 
 923      00
 924 002d 8F01 0000 		.long	0x18f
 925 0031 706F 7274 		.string	"portInit"
 925      496E 6974 
 925      00
 926 003a A701 0000 		.long	0x1a7
 927 003e 6368 6563 		.string	"checkInterface"
 927      6B49 6E74 
 927      6572 6661 
 927      6365 00
 928 004d 2702 0000 		.long	0x227
 929 0051 6D61 696E 		.string	"main"
 929      00
 930 0056 3F02 0000 		.long	0x23f
 931 005a 7573 626D 		.string	"usbmode"
 931      6F64 6500 
 932 0062 0000 0000 		.long	0x0
 933               		.section	.debug_aranges,"",@progbits
 934 0000 1C00 0000 		.long	0x1c
 935 0004 0200      		.word	0x2
 936 0006 0000 0000 		.long	.Ldebug_info0
 937 000a 04        		.byte	0x4
 938 000b 00        		.byte	0x0
 939 000c 0000      		.word	0x0
 940 000e 0000      		.word	0x0
 941 0010 0000 0000 		.long	.Ltext0
 942 0014 C600 0000 		.long	.Letext0-.Ltext0
 943 0018 0000 0000 		.long	0x0
 944 001c 0000 0000 		.long	0x0
 945               		.section	.debug_line
 946 0000 5102 0000 		.long	.LELT0-.LSLT0
 947               	.LSLT0:
 948 0004 0200      		.word	0x2
 949 0006 AB00 0000 		.long	.LELTP0-.LASLTP0
 950               	.LASLTP0:
 951 000a 01        		.byte	0x1
 952 000b 01        		.byte	0x1
 953 000c F6        		.byte	0xf6
 954 000d F5        		.byte	0xf5
 955 000e 0A        		.byte	0xa
 956 000f 00        		.byte	0x0
 957 0010 01        		.byte	0x1
GAS LISTING C:\Users\21030\AppData\Local\Temp/ccYAyume.s 			page 18


 958 0011 01        		.byte	0x1
 959 0012 01        		.byte	0x1
 960 0013 01        		.byte	0x1
 961 0014 00        		.byte	0x0
 962 0015 00        		.byte	0x0
 963 0016 00        		.byte	0x0
 964 0017 01        		.byte	0x1
 965 0018 633A 2F77 		.ascii	"c:/winavr-20100110/lib/gcc/../../avr/include"
 965      696E 6176 
 965      722D 3230 
 965      3130 3031 
 965      3130 2F6C 
 966 0044 00        		.byte	0
 967 0045 633A 2F77 		.ascii	"c:/winavr-20100110/lib/gcc/../../avr/include/util"
 967      696E 6176 
 967      722D 3230 
 967      3130 3031 
 967      3130 2F6C 
 968 0076 00        		.byte	0
 969 0077 00        		.byte	0x0
 970 0078 6D61 696E 		.string	"main.c"
 970      2E63 00
 971 007f 00        		.uleb128 0x0
 972 0080 00        		.uleb128 0x0
 973 0081 00        		.uleb128 0x0
 974 0082 7574 696C 		.string	"util/delay_basic.h"
 974      2F64 656C 
 974      6179 5F62 
 974      6173 6963 
 974      2E68 00
 975 0095 01        		.uleb128 0x1
 976 0096 00        		.uleb128 0x0
 977 0097 00        		.uleb128 0x0
 978 0098 7374 6469 		.string	"stdint.h"
 978      6E74 2E68 
 978      00
 979 00a1 01        		.uleb128 0x1
 980 00a2 00        		.uleb128 0x0
 981 00a3 00        		.uleb128 0x0
 982 00a4 7574 696C 		.string	"util/delay.h"
 982      2F64 656C 
 982      6179 2E68 
 982      00
 983 00b1 01        		.uleb128 0x1
 984 00b2 00        		.uleb128 0x0
 985 00b3 00        		.uleb128 0x0
 986 00b4 00        		.byte	0x0
 987               	.LELTP0:
 988 00b5 00        		.byte	0x0
 989 00b6 05        		.uleb128 0x5
 990 00b7 02        		.byte	0x2
 991 00b8 0000 0000 		.long	.LM1
 992 00bc 4A        		.byte	0x4a
 993 00bd 00        		.byte	0x0
 994 00be 05        		.uleb128 0x5
 995 00bf 02        		.byte	0x2
 996 00c0 0000 0000 		.long	.LM2
GAS LISTING C:\Users\21030\AppData\Local\Temp/ccYAyume.s 			page 19


 997 00c4 15        		.byte	0x15
 998 00c5 00        		.byte	0x0
 999 00c6 05        		.uleb128 0x5
 1000 00c7 02        		.byte	0x2
 1001 00c8 0000 0000 		.long	.LM3
 1002 00cc 20        		.byte	0x20
 1003 00cd 00        		.byte	0x0
 1004 00ce 05        		.uleb128 0x5
 1005 00cf 02        		.byte	0x2
 1006 00d0 0000 0000 		.long	.LM4
 1007 00d4 15        		.byte	0x15
 1008 00d5 00        		.byte	0x0
 1009 00d6 05        		.uleb128 0x5
 1010 00d7 02        		.byte	0x2
 1011 00d8 0000 0000 		.long	.LM5
 1012 00dc 16        		.byte	0x16
 1013 00dd 00        		.byte	0x0
 1014 00de 05        		.uleb128 0x5
 1015 00df 02        		.byte	0x2
 1016 00e0 0000 0000 		.long	.LM6
 1017 00e4 15        		.byte	0x15
 1018 00e5 00        		.byte	0x0
 1019 00e6 05        		.uleb128 0x5
 1020 00e7 02        		.byte	0x2
 1021 00e8 0000 0000 		.long	.LM7
 1022 00ec 15        		.byte	0x15
 1023 00ed 00        		.byte	0x0
 1024 00ee 05        		.uleb128 0x5
 1025 00ef 02        		.byte	0x2
 1026 00f0 0000 0000 		.long	.LM8
 1027 00f4 15        		.byte	0x15
 1028 00f5 00        		.byte	0x0
 1029 00f6 05        		.uleb128 0x5
 1030 00f7 02        		.byte	0x2
 1031 00f8 0000 0000 		.long	.LM9
 1032 00fc 18        		.byte	0x18
 1033 00fd 00        		.byte	0x0
 1034 00fe 05        		.uleb128 0x5
 1035 00ff 02        		.byte	0x2
 1036 0100 0000 0000 		.long	.LM10
 1037 0104 15        		.byte	0x15
 1038 0105 00        		.byte	0x0
 1039 0106 05        		.uleb128 0x5
 1040 0107 02        		.byte	0x2
 1041 0108 0000 0000 		.long	.LM11
 1042 010c 15        		.byte	0x15
 1043 010d 00        		.byte	0x0
 1044 010e 05        		.uleb128 0x5
 1045 010f 02        		.byte	0x2
 1046 0110 0000 0000 		.long	.LM12
 1047 0114 15        		.byte	0x15
 1048 0115 00        		.byte	0x0
 1049 0116 05        		.uleb128 0x5
 1050 0117 02        		.byte	0x2
 1051 0118 0000 0000 		.long	.LM13
 1052 011c 1B        		.byte	0x1b
 1053 011d 00        		.byte	0x0
GAS LISTING C:\Users\21030\AppData\Local\Temp/ccYAyume.s 			page 20


 1054 011e 05        		.uleb128 0x5
 1055 011f 02        		.byte	0x2
 1056 0120 0000 0000 		.long	.LM14
 1057 0124 2A        		.byte	0x2a
 1058 0125 00        		.byte	0x0
 1059 0126 05        		.uleb128 0x5
 1060 0127 02        		.byte	0x2
 1061 0128 0000 0000 		.long	.LM15
 1062 012c 15        		.byte	0x15
 1063 012d 00        		.byte	0x0
 1064 012e 05        		.uleb128 0x5
 1065 012f 02        		.byte	0x2
 1066 0130 0000 0000 		.long	.LM16
 1067 0134 15        		.byte	0x15
 1068 0135 00        		.byte	0x0
 1069 0136 05        		.uleb128 0x5
 1070 0137 02        		.byte	0x2
 1071 0138 0000 0000 		.long	.LM17
 1072 013c 15        		.byte	0x15
 1073 013d 00        		.byte	0x0
 1074 013e 05        		.uleb128 0x5
 1075 013f 02        		.byte	0x2
 1076 0140 0000 0000 		.long	.LM18
 1077 0144 16        		.byte	0x16
 1078 0145 00        		.byte	0x0
 1079 0146 05        		.uleb128 0x5
 1080 0147 02        		.byte	0x2
 1081 0148 0000 0000 		.long	.LM19
 1082 014c 15        		.byte	0x15
 1083 014d 00        		.byte	0x0
 1084 014e 05        		.uleb128 0x5
 1085 014f 02        		.byte	0x2
 1086 0150 0000 0000 		.long	.LM20
 1087 0154 15        		.byte	0x15
 1088 0155 00        		.byte	0x0
 1089 0156 05        		.uleb128 0x5
 1090 0157 02        		.byte	0x2
 1091 0158 0000 0000 		.long	.LM21
 1092 015c 15        		.byte	0x15
 1093 015d 00        		.byte	0x0
 1094 015e 05        		.uleb128 0x5
 1095 015f 02        		.byte	0x2
 1096 0160 0000 0000 		.long	.LM22
 1097 0164 17        		.byte	0x17
 1098 0165 00        		.byte	0x0
 1099 0166 05        		.uleb128 0x5
 1100 0167 02        		.byte	0x2
 1101 0168 0000 0000 		.long	.LM23
 1102 016c 1A        		.byte	0x1a
 1103 016d 00        		.byte	0x0
 1104 016e 05        		.uleb128 0x5
 1105 016f 02        		.byte	0x2
 1106 0170 0000 0000 		.long	.LM24
 1107 0174 1C        		.byte	0x1c
 1108 0175 00        		.byte	0x0
 1109 0176 05        		.uleb128 0x5
 1110 0177 02        		.byte	0x2
GAS LISTING C:\Users\21030\AppData\Local\Temp/ccYAyume.s 			page 21


 1111 0178 0000 0000 		.long	.LM25
 1112 017c 15        		.byte	0x15
 1113 017d 00        		.byte	0x0
 1114 017e 05        		.uleb128 0x5
 1115 017f 02        		.byte	0x2
 1116 0180 0000 0000 		.long	.LM26
 1117 0184 04        		.byte	0x4
 1118 0185 02        		.uleb128 0x2
 1119 0186 03        		.byte	0x3
 1120 0187 4B        		.sleb128 -53
 1121 0188 01        		.byte	0x1
 1122 0189 00        		.byte	0x0
 1123 018a 05        		.uleb128 0x5
 1124 018b 02        		.byte	0x2
 1125 018c 0000 0000 		.long	.LM27
 1126 0190 04        		.byte	0x4
 1127 0191 01        		.uleb128 0x1
 1128 0192 4D        		.byte	0x4d
 1129 0193 00        		.byte	0x0
 1130 0194 05        		.uleb128 0x5
 1131 0195 02        		.byte	0x2
 1132 0196 0000 0000 		.long	.LM28
 1133 019a 15        		.byte	0x15
 1134 019b 00        		.byte	0x0
 1135 019c 05        		.uleb128 0x5
 1136 019d 02        		.byte	0x2
 1137 019e 0000 0000 		.long	.LM29
 1138 01a2 15        		.byte	0x15
 1139 01a3 00        		.byte	0x0
 1140 01a4 05        		.uleb128 0x5
 1141 01a5 02        		.byte	0x2
 1142 01a6 0000 0000 		.long	.LM30
 1143 01aa 18        		.byte	0x18
 1144 01ab 00        		.byte	0x0
 1145 01ac 05        		.uleb128 0x5
 1146 01ad 02        		.byte	0x2
 1147 01ae 0000 0000 		.long	.LM31
 1148 01b2 18        		.byte	0x18
 1149 01b3 00        		.byte	0x0
 1150 01b4 05        		.uleb128 0x5
 1151 01b5 02        		.byte	0x2
 1152 01b6 0000 0000 		.long	.LM32
 1153 01ba 18        		.byte	0x18
 1154 01bb 00        		.byte	0x0
 1155 01bc 05        		.uleb128 0x5
 1156 01bd 02        		.byte	0x2
 1157 01be 0000 0000 		.long	.LM33
 1158 01c2 18        		.byte	0x18
 1159 01c3 00        		.byte	0x0
 1160 01c4 05        		.uleb128 0x5
 1161 01c5 02        		.byte	0x2
 1162 01c6 0000 0000 		.long	.LM34
 1163 01ca 17        		.byte	0x17
 1164 01cb 00        		.byte	0x0
 1165 01cc 05        		.uleb128 0x5
 1166 01cd 02        		.byte	0x2
 1167 01ce 0000 0000 		.long	.LM35
GAS LISTING C:\Users\21030\AppData\Local\Temp/ccYAyume.s 			page 22


 1168 01d2 17        		.byte	0x17
 1169 01d3 00        		.byte	0x0
 1170 01d4 05        		.uleb128 0x5
 1171 01d5 02        		.byte	0x2
 1172 01d6 0000 0000 		.long	.LM36
 1173 01da 1B        		.byte	0x1b
 1174 01db 00        		.byte	0x0
 1175 01dc 05        		.uleb128 0x5
 1176 01dd 02        		.byte	0x2
 1177 01de 0000 0000 		.long	.LM37
 1178 01e2 18        		.byte	0x18
 1179 01e3 00        		.byte	0x0
 1180 01e4 05        		.uleb128 0x5
 1181 01e5 02        		.byte	0x2
 1182 01e6 0000 0000 		.long	.LM38
 1183 01ea 15        		.byte	0x15
 1184 01eb 00        		.byte	0x0
 1185 01ec 05        		.uleb128 0x5
 1186 01ed 02        		.byte	0x2
 1187 01ee 0000 0000 		.long	.LM39
 1188 01f2 15        		.byte	0x15
 1189 01f3 00        		.byte	0x0
 1190 01f4 05        		.uleb128 0x5
 1191 01f5 02        		.byte	0x2
 1192 01f6 0000 0000 		.long	.LM40
 1193 01fa 16        		.byte	0x16
 1194 01fb 00        		.byte	0x0
 1195 01fc 05        		.uleb128 0x5
 1196 01fd 02        		.byte	0x2
 1197 01fe 0000 0000 		.long	.LM41
 1198 0202 15        		.byte	0x15
 1199 0203 00        		.byte	0x0
 1200 0204 05        		.uleb128 0x5
 1201 0205 02        		.byte	0x2
 1202 0206 0000 0000 		.long	.LM42
 1203 020a 15        		.byte	0x15
 1204 020b 00        		.byte	0x0
 1205 020c 05        		.uleb128 0x5
 1206 020d 02        		.byte	0x2
 1207 020e 0000 0000 		.long	.LM43
 1208 0212 15        		.byte	0x15
 1209 0213 00        		.byte	0x0
 1210 0214 05        		.uleb128 0x5
 1211 0215 02        		.byte	0x2
 1212 0216 0000 0000 		.long	.LM44
 1213 021a 17        		.byte	0x17
 1214 021b 00        		.byte	0x0
 1215 021c 05        		.uleb128 0x5
 1216 021d 02        		.byte	0x2
 1217 021e 0000 0000 		.long	.LM45
 1218 0222 16        		.byte	0x16
 1219 0223 00        		.byte	0x0
 1220 0224 05        		.uleb128 0x5
 1221 0225 02        		.byte	0x2
 1222 0226 0000 0000 		.long	.LM46
 1223 022a 15        		.byte	0x15
 1224 022b 00        		.byte	0x0
GAS LISTING C:\Users\21030\AppData\Local\Temp/ccYAyume.s 			page 23


 1225 022c 05        		.uleb128 0x5
 1226 022d 02        		.byte	0x2
 1227 022e 0000 0000 		.long	.LM47
 1228 0232 18        		.byte	0x18
 1229 0233 00        		.byte	0x0
 1230 0234 05        		.uleb128 0x5
 1231 0235 02        		.byte	0x2
 1232 0236 0000 0000 		.long	.LM48
 1233 023a 15        		.byte	0x15
 1234 023b 00        		.byte	0x0
 1235 023c 05        		.uleb128 0x5
 1236 023d 02        		.byte	0x2
 1237 023e 0000 0000 		.long	.LM49
 1238 0242 15        		.byte	0x15
 1239 0243 00        		.byte	0x0
 1240 0244 05        		.uleb128 0x5
 1241 0245 02        		.byte	0x2
 1242 0246 0000 0000 		.long	.LM50
 1243 024a 17        		.byte	0x17
 1244 024b 00        		.byte	0x0
 1245 024c 05        		.uleb128 0x5
 1246 024d 02        		.byte	0x2
 1247 024e 0000 0000 		.long	.Letext0
 1248 0252 00        		.byte	0x0
 1249 0253 01        		.uleb128 0x1
 1250 0254 01        		.byte	0x1
 1251               	.LELT0:
 1252 0255 1600 0000 		.section	.debug_str,"MS",@progbits,1
 1252      0200 1000 
 1252      0000 0101 
 1252      FB0E 0A00 
 1252      0101 0101 
 1253               	.LASF31:
 1254 0000 656E 6162 		.string	"enable_printf"
 1254      6C65 5F70 
 1254      7269 6E74 
 1254      6600 
 1255               	.LASF2:
 1256 000e 7368 6F72 		.string	"short unsigned int"
 1256      7420 756E 
 1256      7369 676E 
 1256      6564 2069 
 1256      6E74 00
 1257               	.LASF22:
 1258 0021 5F5F 7573 		.string	"__us"
 1258      00
 1259               	.LASF10:
 1260 0026 696E 7438 		.string	"int8_t"
 1260      5F74 00
 1261               	.LASF32:
 1262 002d 4450 7075 		.string	"DPpullEn"
 1262      6C6C 456E 
 1262      00
 1263               	.LASF0:
 1264 0036 756E 7369 		.string	"unsigned char"
 1264      676E 6564 
 1264      2063 6861 
GAS LISTING C:\Users\21030\AppData\Local\Temp/ccYAyume.s 			page 24


 1264      7200 
 1265               	.LASF26:
 1266 0044 706F 7274 		.string	"portInit"
 1266      496E 6974 
 1266      00
 1267               	.LASF20:
 1268 004d 5F64 656C 		.string	"_delay_loop_1"
 1268      6179 5F6C 
 1268      6F6F 705F 
 1268      3100 
 1269               	.LASF13:
 1270 005b 5F64 656C 		.string	"_delay_loop_2"
 1270      6179 5F6C 
 1270      6F6F 705F 
 1270      3200 
 1271               	.LASF4:
 1272 0069 6C6F 6E67 		.string	"long unsigned int"
 1272      2075 6E73 
 1272      6967 6E65 
 1272      6420 696E 
 1272      7400 
 1273               	.LASF14:
 1274 007b 5F64 656C 		.string	"_delay_ms"
 1274      6179 5F6D 
 1274      7300 
 1275               	.LASF28:
 1276 0085 474E 5520 		.string	"GNU C 4.3.3"
 1276      4320 342E 
 1276      332E 3300 
 1277               	.LASF19:
 1278 0091 646F 7562 		.string	"double"
 1278      6C65 00
 1279               	.LASF35:
 1280 0098 6375 725F 		.string	"cur_usbmode"
 1280      7573 626D 
 1280      6F64 6500 
 1281               	.LASF23:
 1282 00a4 7650 696E 		.string	"vPinA"
 1282      4100 
 1283               	.LASF18:
 1284 00aa 5F5F 746D 		.string	"__tmp"
 1284      7000 
 1285               	.LASF24:
 1286 00b0 7650 696E 		.string	"vPinC"
 1286      4300 
 1287               	.LASF30:
 1288 00b6 433A 5C55 		.string	"C:\\Users\\21030\\Documents\\GitHub\\mx1830\\source"
 1288      7365 7273 
 1288      5C32 3130 
 1288      3330 5C44 
 1288      6F63 756D 
 1289               	.LASF27:
 1290 00e4 6D61 696E 		.string	"main"
 1290      00
 1291               	.LASF33:
 1292 00e9 656E 6162 		.string	"enable"
 1292      6C65 00
GAS LISTING C:\Users\21030\AppData\Local\Temp/ccYAyume.s 			page 25


 1293               	.LASF8:
 1294 00f0 756E 7369 		.string	"unsigned int"
 1294      676E 6564 
 1294      2069 6E74 
 1294      00
 1295               	.LASF21:
 1296 00fd 5F64 656C 		.string	"_delay_us"
 1296      6179 5F75 
 1296      7300 
 1297               	.LASF6:
 1298 0107 6C6F 6E67 		.string	"long long unsigned int"
 1298      206C 6F6E 
 1298      6720 756E 
 1298      7369 676E 
 1298      6564 2069 
 1299               	.LASF11:
 1300 011e 7569 6E74 		.string	"uint8_t"
 1300      385F 7400 
 1301               	.LASF25:
 1302 0126 7650 696E 		.string	"vPinD"
 1302      4400 
 1303               	.LASF34:
 1304 012c 6368 6563 		.string	"checkInterface"
 1304      6B49 6E74 
 1304      6572 6661 
 1304      6365 00
 1305               	.LASF7:
 1306 013b 6C6F 6E67 		.string	"long long int"
 1306      206C 6F6E 
 1306      6720 696E 
 1306      7400 
 1307               	.LASF29:
 1308 0149 6D61 696E 		.string	"main.c"
 1308      2E63 00
 1309               	.LASF9:
 1310 0150 6368 6172 		.string	"char"
 1310      00
 1311               	.LASF15:
 1312 0155 5F5F 636F 		.string	"__count"
 1312      756E 7400 
 1313               	.LASF3:
 1314 015d 7368 6F72 		.string	"short int"
 1314      7420 696E 
 1314      7400 
 1315               	.LASF12:
 1316 0167 7569 6E74 		.string	"uint16_t"
 1316      3136 5F74 
 1316      00
 1317               	.LASF17:
 1318 0170 5F5F 7469 		.string	"__ticks"
 1318      636B 7300 
 1319               	.LASF5:
 1320 0178 6C6F 6E67 		.string	"long int"
 1320      2069 6E74 
 1320      00
 1321               	.LASF1:
 1322 0181 7369 676E 		.string	"signed char"
GAS LISTING C:\Users\21030\AppData\Local\Temp/ccYAyume.s 			page 26


 1322      6564 2063 
 1322      6861 7200 
 1323               	.LASF36:
 1324 018d 7573 626D 		.string	"usbmode"
 1324      6F64 6500 
 1325               	.LASF16:
 1326 0195 5F5F 6D73 		.string	"__ms"
 1326      00
 1327               	.global __do_copy_data
GAS LISTING C:\Users\21030\AppData\Local\Temp/ccYAyume.s 			page 27


DEFINED SYMBOLS
                            *ABS*:00000000 main.c
C:\Users\21030\AppData\Local\Temp/ccYAyume.s:2      *ABS*:0000003f __SREG__
C:\Users\21030\AppData\Local\Temp/ccYAyume.s:3      *ABS*:0000003e __SP_H__
C:\Users\21030\AppData\Local\Temp/ccYAyume.s:4      *ABS*:0000003d __SP_L__
C:\Users\21030\AppData\Local\Temp/ccYAyume.s:5      *ABS*:00000034 __CCP__
C:\Users\21030\AppData\Local\Temp/ccYAyume.s:6      *ABS*:00000000 __tmp_reg__
C:\Users\21030\AppData\Local\Temp/ccYAyume.s:7      *ABS*:00000001 __zero_reg__
C:\Users\21030\AppData\Local\Temp/ccYAyume.s:18     .text:00000000 enable_printf
C:\Users\21030\AppData\Local\Temp/ccYAyume.s:30     .text:00000002 DPpullEn
C:\Users\21030\AppData\Local\Temp/ccYAyume.s:62     .text:0000001a portInit
C:\Users\21030\AppData\Local\Temp/ccYAyume.s:95     .text:00000036 checkInterface
C:\Users\21030\AppData\Local\Temp/ccYAyume.s:168    .text:0000007c main
C:\Users\21030\AppData\Local\Temp/ccYAyume.s:219    .data:00000000 usbmode

UNDEFINED SYMBOLS
__eewr_byte_m32
__eerd_byte_m32
timerInit
timer1PWMInit
keymap_init
led_mode_init
led_check
usbmain
timer2IntEnable
ps2main
__do_copy_data
