GAS LISTING C:\Users\21030\AppData\Local\Temp/ccMLudhi.s 			page 1


   1               		.file	"matrix.c"
   2               	__SREG__ = 0x3f
   3               	__SP_H__ = 0x3e
   4               	__SP_L__ = 0x3d
   5               	__CCP__  = 0x34
   6               	__tmp_reg__ = 0
   7               	__zero_reg__ = 1
   8               		.section	.debug_abbrev,"",@progbits
   9               	.Ldebug_abbrev0:
  10               		.section	.debug_info,"",@progbits
  11               	.Ldebug_info0:
  12               		.section	.debug_line,"",@progbits
  13               	.Ldebug_line0:
  14               		.text
  15               	.Ltext0:
  16               	.global	keymap_init
  17               		.type	keymap_init, @function
  18               	keymap_init:
  19               	.LFB8:
  20               	.LM1:
  21               	/* prologue: function */
  22               	/* frame size = 0 */
  23               	.LM2:
  24 0000 E0E0      		ldi r30,lo8(KFLA)
  25 0002 F0E0      		ldi r31,hi8(KFLA)
  26               	.L2:
  27               	.LM3:
  28 0004 1192      		st Z+,__zero_reg__
  29               	.LM4:
  30 0006 80E0      		ldi r24,hi8(KFLA+172)
  31 0008 E030      		cpi r30,lo8(KFLA+172)
  32 000a F807      		cpc r31,r24
  33 000c 01F4      		brne .L2
  34 000e 20E0      		ldi r18,lo8(keycode_set2_special)
  35 0010 30E0      		ldi r19,hi8(keycode_set2_special)
  36 0012 00C0      		rjmp .L3
  37               	.LVL0:
  38               	.L4:
  39               	.LM5:
  40 0014 FC01      		movw r30,r24
  41 0016 E050      		subi r30,lo8(-(KFLA))
  42 0018 F040      		sbci r31,hi8(-(KFLA))
  43 001a 8081      		ld r24,Z
  44               	.LVL1:
  45 001c 8260      		ori r24,lo8(2)
  46 001e 8083      		st Z,r24
  47               	.L3:
  48               	.LBB53:
  49               	.LM6:
  50 0020 F901      		movw r30,r18
  51               	/* #APP */
  52               	 ;  78 "matrix.c" 1
  53 0022 8491      		lpm r24, Z
  54               		
  55               	 ;  0 "" 2
  56               	.LVL2:
  57               	/* #NOAPP */
GAS LISTING C:\Users\21030\AppData\Local\Temp/ccMLudhi.s 			page 2


  58               	.LBE53:
  59 0024 90E0      		ldi r25,lo8(0)
  60 0026 2F5F      		subi r18,lo8(-(1))
  61 0028 3F4F      		sbci r19,hi8(-(1))
  62 002a 0097      		sbiw r24,0
  63               	.LVL3:
  64 002c 01F4      		brne .L4
  65 002e 20E0      		ldi r18,lo8(keycode_set2_makeonly)
  66 0030 30E0      		ldi r19,hi8(keycode_set2_makeonly)
  67 0032 00C0      		rjmp .L5
  68               	.LVL4:
  69               	.L6:
  70               	.LM7:
  71 0034 FC01      		movw r30,r24
  72 0036 E050      		subi r30,lo8(-(KFLA))
  73 0038 F040      		sbci r31,hi8(-(KFLA))
  74 003a 8081      		ld r24,Z
  75               	.LVL5:
  76 003c 8460      		ori r24,lo8(4)
  77 003e 8083      		st Z,r24
  78               	.LVL6:
  79               	.L5:
  80               	.LBB54:
  81               	.LM8:
  82 0040 F901      		movw r30,r18
  83               	/* #APP */
  84               	 ;  80 "matrix.c" 1
  85 0042 8491      		lpm r24, Z
  86               		
  87               	 ;  0 "" 2
  88               	.LVL7:
  89               	/* #NOAPP */
  90               	.LBE54:
  91 0044 90E0      		ldi r25,lo8(0)
  92 0046 2F5F      		subi r18,lo8(-(1))
  93 0048 3F4F      		sbci r19,hi8(-(1))
  94 004a 0097      		sbiw r24,0
  95               	.LVL8:
  96 004c 01F4      		brne .L6
  97 004e 20E0      		ldi r18,lo8(keycode_set2_make_break)
  98 0050 30E0      		ldi r19,hi8(keycode_set2_make_break)
  99 0052 00C0      		rjmp .L7
 100               	.LVL9:
 101               	.L8:
 102               	.LM9:
 103 0054 FC01      		movw r30,r24
 104 0056 E050      		subi r30,lo8(-(KFLA))
 105 0058 F040      		sbci r31,hi8(-(KFLA))
 106 005a 8081      		ld r24,Z
 107               	.LVL10:
 108 005c 8860      		ori r24,lo8(8)
 109 005e 8083      		st Z,r24
 110               	.LVL11:
 111               	.L7:
 112               	.LBB55:
 113               	.LM10:
 114 0060 F901      		movw r30,r18
GAS LISTING C:\Users\21030\AppData\Local\Temp/ccMLudhi.s 			page 3


 115               	/* #APP */
 116               	 ;  82 "matrix.c" 1
 117 0062 8491      		lpm r24, Z
 118               		
 119               	 ;  0 "" 2
 120               	.LVL12:
 121               	/* #NOAPP */
 122               	.LBE55:
 123 0064 90E0      		ldi r25,lo8(0)
 124 0066 2F5F      		subi r18,lo8(-(1))
 125 0068 3F4F      		sbci r19,hi8(-(1))
 126 006a 0097      		sbiw r24,0
 127               	.LVL13:
 128 006c 01F4      		brne .L8
 129 006e 20E0      		ldi r18,lo8(keycode_set2_extend)
 130 0070 30E0      		ldi r19,hi8(keycode_set2_extend)
 131 0072 00C0      		rjmp .L9
 132               	.LVL14:
 133               	.L10:
 134               	.LM11:
 135 0074 FC01      		movw r30,r24
 136 0076 E050      		subi r30,lo8(-(KFLA))
 137 0078 F040      		sbci r31,hi8(-(KFLA))
 138 007a 8081      		ld r24,Z
 139               	.LVL15:
 140 007c 8160      		ori r24,lo8(1)
 141 007e 8083      		st Z,r24
 142               	.LVL16:
 143               	.L9:
 144               	.LBB56:
 145               	.LM12:
 146 0080 F901      		movw r30,r18
 147               	/* #APP */
 148               	 ;  84 "matrix.c" 1
 149 0082 8491      		lpm r24, Z
 150               		
 151               	 ;  0 "" 2
 152               	.LVL17:
 153               	/* #NOAPP */
 154               	.LBE56:
 155 0084 90E0      		ldi r25,lo8(0)
 156 0086 2F5F      		subi r18,lo8(-(1))
 157 0088 3F4F      		sbci r19,hi8(-(1))
 158 008a 0097      		sbiw r24,0
 159               	.LVL18:
 160 008c 01F4      		brne .L10
 161 008e 20E0      		ldi r18,lo8(keycode_set2_proc_shift)
 162 0090 30E0      		ldi r19,hi8(keycode_set2_proc_shift)
 163 0092 00C0      		rjmp .L11
 164               	.LVL19:
 165               	.L12:
 166               	.LM13:
 167 0094 FC01      		movw r30,r24
 168 0096 E050      		subi r30,lo8(-(KFLA))
 169 0098 F040      		sbci r31,hi8(-(KFLA))
 170 009a 8081      		ld r24,Z
 171               	.LVL20:
GAS LISTING C:\Users\21030\AppData\Local\Temp/ccMLudhi.s 			page 4


 172 009c 8061      		ori r24,lo8(16)
 173 009e 8083      		st Z,r24
 174               	.LVL21:
 175               	.L11:
 176               	.LBB57:
 177               	.LM14:
 178 00a0 F901      		movw r30,r18
 179               	/* #APP */
 180               	 ;  86 "matrix.c" 1
 181 00a2 8491      		lpm r24, Z
 182               		
 183               	 ;  0 "" 2
 184               	.LVL22:
 185               	/* #NOAPP */
 186               	.LBE57:
 187 00a4 90E0      		ldi r25,lo8(0)
 188 00a6 2F5F      		subi r18,lo8(-(1))
 189 00a8 3F4F      		sbci r19,hi8(-(1))
 190 00aa 0097      		sbiw r24,0
 191               	.LVL23:
 192 00ac 01F4      		brne .L12
 193 00ae E0E0      		ldi r30,lo8(MATRIX)
 194 00b0 F0E0      		ldi r31,hi8(MATRIX)
 195               	.L13:
 196               	.LM15:
 197 00b2 1192      		st Z+,__zero_reg__
 198               	.LM16:
 199 00b4 80E0      		ldi r24,hi8(MATRIX+13)
 200 00b6 E030      		cpi r30,lo8(MATRIX+13)
 201 00b8 F807      		cpc r31,r24
 202               	.LVL24:
 203 00ba 01F4      		brne .L13
 204 00bc 20E0      		ldi r18,lo8(keymap_code)
 205 00be 30E0      		ldi r19,hi8(keymap_code)
 206 00c0 40E0      		ldi r20,lo8(0)
 207               	.LVL25:
 208 00c2 00C0      		rjmp .L14
 209               	.LVL26:
 210               	.L17:
 211               	.LBB58:
 212               	.LBB59:
 213               	.LBB60:
 214               	.LM17:
 215               	/* #APP */
 216               	 ;  55 "matrix.c" 1
 217 00c4 8491      		lpm r24, Z
 218               		
 219               	 ;  0 "" 2
 220               	/* #NOAPP */
 221               	.LBE60:
 222               	.LM18:
 223 00c6 8F3F      		cpi r24,lo8(-1)
 224 00c8 01F4      		brne .L15
 225               	.LM19:
 226 00ca 842F      		mov r24,r20
 227               	.LVL27:
 228 00cc 8295      		swap r24
GAS LISTING C:\Users\21030\AppData\Local\Temp/ccMLudhi.s 			page 5


 229 00ce 807F      		andi r24,lo8(-16)
 230 00d0 892B      		or r24,r25
 231 00d2 00C0      		rjmp .L16
 232               	.LVL28:
 233               	.L15:
 234               	.LM20:
 235 00d4 9F5F      		subi r25,lo8(-(1))
 236 00d6 3896      		adiw r30,8
 237 00d8 9D30      		cpi r25,lo8(13)
 238 00da 01F4      		brne .L17
 239               	.LM21:
 240 00dc 4F5F      		subi r20,lo8(-(1))
 241 00de 2F5F      		subi r18,lo8(-(1))
 242 00e0 3F4F      		sbci r19,hi8(-(1))
 243 00e2 4830      		cpi r20,lo8(8)
 244 00e4 01F0      		breq .L18
 245               	.LVL29:
 246               	.L14:
 247 00e6 F901      		movw r30,r18
 248 00e8 90E0      		ldi r25,lo8(0)
 249               	.LVL30:
 250 00ea 00C0      		rjmp .L17
 251               	.L18:
 252 00ec 80E0      		ldi r24,lo8(0)
 253               	.LVL31:
 254               	.L16:
 255               	.LBE59:
 256               	.LBE58:
 257               	.LM22:
 258 00ee 8093 0000 		sts matrixFN,r24
 259               	/* epilogue start */
 260               	.LM23:
 261 00f2 0895      		ret
 262               	.LFE8:
 263               		.size	keymap_init, .-keymap_init
 264               	.global	getLayer
 265               		.type	getLayer, @function
 266               	getLayer:
 267               	.LFB10:
 268               	.LM24:
 269               	.LVL32:
 270               	/* prologue: function */
 271               	/* frame size = 0 */
 272               	.LM25:
 273 00f4 382F      		mov r19,r24
 274               	.LVL33:
 275 00f6 3F70      		andi r19,lo8(15)
 276               	.LM26:
 277 00f8 8295      		swap r24
 278               	.LVL34:
 279 00fa 8F70      		andi r24,lo8(15)
 280 00fc 41E0      		ldi r20,lo8(1)
 281 00fe 50E0      		ldi r21,hi8(1)
 282 0100 BA01      		movw r22,r20
 283 0102 00C0      		rjmp 2f
 284 0104 660F      	1:	lsl r22
 285 0106 771F      		rol r23
GAS LISTING C:\Users\21030\AppData\Local\Temp/ccMLudhi.s 			page 6


 286 0108 8A95      	2:	dec r24
 287 010a 02F4      		brpl 1b
 288 010c CB01      		movw r24,r22
 289               	.LVL35:
 290 010e 67BB      		out 55-32,r22
 291               	.LM27:
 292 0110 8095      		com r24
 293 0112 88BB      		out 56-32,r24
 294               	.LBB61:
 295               	.LBB62:
 296               	.LBB63:
 297               	.LBB64:
 298               	.LM28:
 299 0114 88E2      		ldi r24,lo8(40)
 300               	.LVL36:
 301               	/* #APP */
 302               	 ;  83 "c:/winavr-20100110/lib/gcc/../../avr/include/util/delay_basic.h" 1
 303 0116 8A95      		1: dec r24
 304 0118 01F4      		brne 1b
 305               	 ;  0 "" 2
 306               	/* #NOAPP */
 307               	.LBE64:
 308               	.LBE63:
 309               	.LBE62:
 310               	.LBE61:
 311               	.LM29:
 312 011a 3830      		cpi r19,lo8(8)
 313 011c 00F4      		brsh .L24
 314               	.LM30:
 315 011e 29B3      		in r18,57-32
 316               	.LVL37:
 317 0120 00C0      		rjmp 2f
 318 0122 440F      	1:	lsl r20
 319 0124 551F      		rol r21
 320 0126 3A95      	2:	dec r19
 321 0128 02F4      		brpl 1b
 322 012a 00C0      		rjmp .L29
 323               	.LVL38:
 324               	.L24:
 325 012c 632F      		mov r22,r19
 326 012e 70E0      		ldi r23,lo8(0)
 327               	.LVL39:
 328               	.LM31:
 329 0130 3850      		subi r19,lo8(-(-8))
 330 0132 3830      		cpi r19,lo8(8)
 331 0134 00F4      		brsh .L26
 332               	.LM32:
 333 0136 23B3      		in r18,51-32
 334               	.LVL40:
 335 0138 8FE0      		ldi r24,lo8(15)
 336 013a 90E0      		ldi r25,hi8(15)
 337               	.LVL41:
 338 013c 00C0      		rjmp .L30
 339               	.LVL42:
 340               	.L26:
 341               	.LM33:
 342 013e 20B3      		in r18,48-32
GAS LISTING C:\Users\21030\AppData\Local\Temp/ccMLudhi.s 			page 7


 343               	.LVL43:
 344 0140 87E1      		ldi r24,lo8(23)
 345 0142 90E0      		ldi r25,hi8(23)
 346               	.LVL44:
 347               	.L30:
 348 0144 861B      		sub r24,r22
 349 0146 970B      		sbc r25,r23
 350 0148 00C0      		rjmp 2f
 351 014a 440F      	1:	lsl r20
 352 014c 551F      		rol r21
 353 014e 8A95      	2:	dec r24
 354 0150 02F4      		brpl 1b
 355               	.LVL45:
 356               	.L29:
 357 0152 2095      		com r18
 358 0154 2423      		and r18,r20
 359 0156 822F      		mov r24,r18
 360               	.LVL46:
 361 0158 01F0      		breq .L27
 362 015a 81E0      		ldi r24,lo8(1)
 363               	.LVL47:
 364               	.L27:
 365               	.LVL48:
 366               	.LM34:
 367 015c 0895      		ret
 368               	.LFE10:
 369               		.size	getLayer, .-getLayer
 370               	.global	processFNkeys
 371               		.type	processFNkeys, @function
 372               	processFNkeys:
 373               	.LFB9:
 374               	.LM35:
 375               	.LVL49:
 376               	/* prologue: function */
 377               	/* frame size = 0 */
 378               	.LM36:
 379 015e 8E3F      		cpi r24,lo8(-2)
 380 0160 01F0      		breq .L32
 381 0162 80E0      		ldi r24,lo8(0)
 382               	.LVL50:
 383 0164 0895      		ret
 384               	.LVL51:
 385               	.L32:
 386               	.LM37:
 387 0166 8091 0000 		lds r24,led_mode
 388 016a 9091 0000 		lds r25,(led_mode)+1
 389               	.LVL52:
 390 016e 8730      		cpi r24,7
 391 0170 9105      		cpc r25,__zero_reg__
 392 0172 00F0      		brlo .L34
 393               	.LM38:
 394 0174 1092 0000 		sts (led_mode)+1,__zero_reg__
 395 0178 1092 0000 		sts led_mode,__zero_reg__
 396 017c 00C0      		rjmp .L35
 397               	.L34:
 398               	.LM39:
 399 017e 0196      		adiw r24,1
GAS LISTING C:\Users\21030\AppData\Local\Temp/ccMLudhi.s 			page 8


 400 0180 9093 0000 		sts (led_mode)+1,r25
 401 0184 8093 0000 		sts led_mode,r24
 402               	.L35:
 403               	.LM40:
 404 0188 8091 0000 		lds r24,led_mode
 405 018c 9091 0000 		lds r25,(led_mode)+1
 406 0190 0E94 0000 		call led_mode_change
 407 0194 81E0      		ldi r24,lo8(1)
 408               	.LVL53:
 409               	.LVL54:
 410               	.LM41:
 411 0196 0895      		ret
 412               	.LFE9:
 413               		.size	processFNkeys, .-processFNkeys
 414               	.global	scankey
 415               		.type	scankey, @function
 416               	scankey:
 417               	.LFB12:
 418               	.LM42:
 419 0198 2F92      		push r2
 420 019a 3F92      		push r3
 421 019c 4F92      		push r4
 422 019e 5F92      		push r5
 423 01a0 6F92      		push r6
 424 01a2 7F92      		push r7
 425 01a4 8F92      		push r8
 426 01a6 9F92      		push r9
 427 01a8 AF92      		push r10
 428 01aa BF92      		push r11
 429 01ac CF92      		push r12
 430 01ae DF92      		push r13
 431 01b0 EF92      		push r14
 432 01b2 FF92      		push r15
 433 01b4 0F93      		push r16
 434 01b6 1F93      		push r17
 435 01b8 CF93      		push r28
 436 01ba DF93      		push r29
 437               	/* prologue: function */
 438               	/* frame size = 0 */
 439               	.LM43:
 440 01bc 00E0      		ldi r16,lo8(0)
 441               	.LVL55:
 442 01be A0E0      		ldi r26,lo8(0)
 443 01c0 B0E0      		ldi r27,hi8(0)
 444               	.LBB65:
 445               	.LBB66:
 446               	.LM44:
 447 01c2 C1E0      		ldi r28,lo8(1)
 448 01c4 D0E0      		ldi r29,hi8(1)
 449               	.LBB67:
 450               	.LBB68:
 451               	.LBB69:
 452               	.LBB70:
 453               	.LM45:
 454 01c6 58E2      		ldi r21,lo8(40)
 455 01c8 E52E      		mov r14,r21
 456               	.LBE70:
GAS LISTING C:\Users\21030\AppData\Local\Temp/ccMLudhi.s 			page 9


 457               	.LBE69:
 458               	.LBE68:
 459               	.LBE67:
 460               	.LM46:
 461 01ca 47E1      		ldi r20,lo8(23)
 462 01cc A42E      		mov r10,r20
 463 01ce B12C      		mov r11,__zero_reg__
 464               	.LM47:
 465 01d0 3FE0      		ldi r19,lo8(15)
 466 01d2 C32E      		mov r12,r19
 467 01d4 D12C      		mov r13,__zero_reg__
 468               	.LVL56:
 469               	.L45:
 470               	.LM48:
 471 01d6 9E01      		movw r18,r28
 472 01d8 0A2E      		mov r0,r26
 473 01da 00C0      		rjmp 2f
 474 01dc 220F      	1:	lsl r18
 475 01de 331F      		rol r19
 476 01e0 0A94      	2:	dec r0
 477 01e2 02F4      		brpl 1b
 478 01e4 27BB      		out 55-32,r18
 479               	.LM49:
 480 01e6 822F      		mov r24,r18
 481 01e8 8095      		com r24
 482 01ea 88BB      		out 56-32,r24
 483               	.LBB74:
 484               	.LBB73:
 485               	.LBB72:
 486               	.LBB71:
 487               	.LM50:
 488 01ec 8E2D      		mov r24,r14
 489               	.LVL57:
 490               	/* #APP */
 491               	 ;  83 "c:/winavr-20100110/lib/gcc/../../avr/include/util/delay_basic.h" 1
 492 01ee 8A95      		1: dec r24
 493 01f0 01F4      		brne 1b
 494               	 ;  0 "" 2
 495               	/* #NOAPP */
 496               	.LBE71:
 497               	.LBE72:
 498               	.LBE73:
 499               	.LBE74:
 500               	.LM51:
 501 01f2 19B3      		in r17,57-32
 502 01f4 1095      		com r17
 503               	.LM52:
 504 01f6 73B3      		in r23,51-32
 505 01f8 7095      		com r23
 506               	.LM53:
 507 01fa 30B3      		in r19,48-32
 508 01fc 3095      		com r19
 509 01fe E0E0      		ldi r30,lo8(curMATRIX)
 510 0200 F0E0      		ldi r31,hi8(curMATRIX)
 511 0202 40E0      		ldi r20,lo8(0)
 512 0204 50E0      		ldi r21,hi8(0)
 513               	.LM54:
GAS LISTING C:\Users\21030\AppData\Local\Temp/ccMLudhi.s 			page 10


 514 0206 F22E      		mov r15,r18
 515 0208 F094      		com r15
 516               	.L44:
 517               	.LM55:
 518 020a 842F      		mov r24,r20
 519               	.LVL58:
 520               	.LM56:
 521 020c 4830      		cpi r20,lo8(8)
 522 020e 00F4      		brsh .L38
 523               	.LVL59:
 524               	.LM57:
 525 0210 CE01      		movw r24,r28
 526 0212 042E      		mov r0,r20
 527 0214 00C0      		rjmp 2f
 528 0216 880F      	1:	lsl r24
 529 0218 991F      		rol r25
 530 021a 0A94      	2:	dec r0
 531 021c 02F4      		brpl 1b
 532               	.LVL60:
 533 021e 612F      		mov r22,r17
 534 0220 00C0      		rjmp .L63
 535               	.LVL61:
 536               	.L38:
 537               	.LM58:
 538 0222 8850      		subi r24,lo8(-(-8))
 539               	.LVL62:
 540 0224 8830      		cpi r24,lo8(8)
 541 0226 00F4      		brsh .L40
 542               	.LM59:
 543 0228 C601      		movw r24,r12
 544               	.LVL63:
 545 022a 841B      		sub r24,r20
 546 022c 950B      		sbc r25,r21
 547 022e 4E01      		movw r8,r28
 548 0230 00C0      		rjmp 2f
 549 0232 880C      	1:	lsl r8
 550 0234 991C      		rol r9
 551 0236 8A95      	2:	dec r24
 552 0238 02F4      		brpl 1b
 553 023a C401      		movw r24,r8
 554 023c 672F      		mov r22,r23
 555 023e 00C0      		rjmp .L63
 556               	.LVL64:
 557               	.L40:
 558               	.LM60:
 559 0240 C501      		movw r24,r10
 560               	.LVL65:
 561 0242 841B      		sub r24,r20
 562 0244 950B      		sbc r25,r21
 563 0246 4E01      		movw r8,r28
 564 0248 00C0      		rjmp 2f
 565 024a 880C      	1:	lsl r8
 566 024c 991C      		rol r9
 567 024e 8A95      	2:	dec r24
 568 0250 02F4      		brpl 1b
 569 0252 C401      		movw r24,r8
 570 0254 632F      		mov r22,r19
GAS LISTING C:\Users\21030\AppData\Local\Temp/ccMLudhi.s 			page 11


 571               	.L63:
 572 0256 6823      		and r22,r24
 573               	.LM61:
 574 0258 01F0      		breq .L41
 575               	.LM62:
 576 025a 0460      		ori r16,lo8(4)
 577               	.L41:
 578               	.LM63:
 579 025c 9081      		ld r25,Z
 580               	.LM64:
 581 025e 822F      		mov r24,r18
 582 0260 8923      		and r24,r25
 583 0262 01F0      		breq .L42
 584 0264 6623      		tst r22
 585 0266 01F4      		brne .L43
 586               	.LM65:
 587 0268 9F21      		and r25,r15
 588 026a 9083      		st Z,r25
 589               	.LM66:
 590 026c 0160      		ori r16,lo8(1)
 591 026e 00C0      		rjmp .L43
 592               	.L42:
 593               	.LM67:
 594 0270 6623      		tst r22
 595 0272 01F0      		breq .L43
 596               	.LM68:
 597 0274 922B      		or r25,r18
 598 0276 9083      		st Z,r25
 599               	.LM69:
 600 0278 0260      		ori r16,lo8(2)
 601               	.L43:
 602 027a 4F5F      		subi r20,lo8(-(1))
 603 027c 5F4F      		sbci r21,hi8(-(1))
 604 027e 3196      		adiw r30,1
 605               	.LM70:
 606 0280 4D30      		cpi r20,13
 607 0282 5105      		cpc r21,__zero_reg__
 608 0284 01F0      		breq .+2
 609 0286 00C0      		rjmp .L44
 610 0288 1196      		adiw r26,1
 611               	.LM71:
 612 028a A830      		cpi r26,8
 613 028c B105      		cpc r27,__zero_reg__
 614 028e 01F0      		breq .+2
 615 0290 00C0      		rjmp .L45
 616               	.LBE66:
 617               	.LBE65:
 618               	.LM72:
 619 0292 10E0      		ldi r17,lo8(0)
 620               	.LVL66:
 621 0294 C801      		movw r24,r16
 622               	.LVL67:
 623 0296 0E94 0000 		call led_blink
 624               	.LVL68:
 625               	.LM73:
 626 029a 0E94 0000 		call led_fader
 627               	.LM74:
GAS LISTING C:\Users\21030\AppData\Local\Temp/ccMLudhi.s 			page 12


 628 029e 0370      		andi r16,lo8(3)
 629 02a0 1070      		andi r17,hi8(3)
 630 02a2 012B      		or r16,r17
 631 02a4 01F0      		breq .L46
 632 02a6 80E0      		ldi r24,lo8(0)
 633               	.LVL69:
 634 02a8 00C0      		rjmp .L47
 635               	.LVL70:
 636               	.L46:
 637               	.LM75:
 638 02aa 0E94 0000 		call clearReportBuffer
 639               	.LM76:
 640 02ae 8091 0000 		lds r24,matrixFN
 641 02b2 0E94 0000 		call getLayer
 642 02b6 482E      		mov r4,r24
 643               	.LVL71:
 644 02b8 8DE0      		ldi r24,lo8(13)
 645 02ba 489E      		mul r4,r24
 646 02bc E001      		movw r28,r0
 647 02be 1124      		clr r1
 648 02c0 23E0      		ldi r18,3
 649 02c2 CC0F      	1:	lsl r28
 650 02c4 DD1F      		rol r29
 651 02c6 2A95      		dec r18
 652 02c8 01F4      		brne 1b
 653 02ca C050      		subi r28,lo8(-(keymap_code))
 654 02cc D040      		sbci r29,hi8(-(keymap_code))
 655 02ce 5524      		clr r5
 656               	.LVL72:
 657 02d0 AA24      		clr r10
 658 02d2 BB24      		clr r11
 659               	.LM77:
 660 02d4 91E0      		ldi r25,lo8(1)
 661 02d6 292E      		mov r2,r25
 662 02d8 312C      		mov r3,__zero_reg__
 663 02da 00C0      		rjmp .L48
 664               	.LVL73:
 665               	.L55:
 666 02dc F701      		movw r30,r14
 667 02de E050      		subi r30,lo8(-(MATRIX))
 668 02e0 F040      		sbci r31,hi8(-(MATRIX))
 669 02e2 9081      		ld r25,Z
 670               	.LM78:
 671 02e4 F701      		movw r30,r14
 672 02e6 E050      		subi r30,lo8(-(curMATRIX))
 673 02e8 F040      		sbci r31,hi8(-(curMATRIX))
 674 02ea 2081      		ld r18,Z
 675               	.LBB75:
 676               	.LM79:
 677 02ec F301      		movw r30,r6
 678               	/* #APP */
 679               	 ;  273 "matrix.c" 1
 680 02ee 1491      		lpm r17, Z
 681               		
 682               	 ;  0 "" 2
 683               	/* #NOAPP */
 684               	.LBE75:
GAS LISTING C:\Users\21030\AppData\Local\Temp/ccMLudhi.s 			page 13


 685               	.LM80:
 686 02f0 812F      		mov r24,r17
 687 02f2 8150      		subi r24,lo8(-(-1))
 688 02f4 8E3F      		cpi r24,lo8(-2)
 689 02f6 00F4      		brsh .L49
 690               	.LM81:
 691 02f8 DC2C      		mov r13,r12
 692 02fa D922      		and r13,r25
 693               	.LM82:
 694 02fc 0C2D      		mov r16,r12
 695 02fe 0223      		and r16,r18
 696               	.LM83:
 697 0300 8091 0000 		lds r24,led_mode
 698 0304 9091 0000 		lds r25,(led_mode)+1
 699 0308 0297      		sbiw r24,2
 700 030a 01F4      		brne .L50
 701 030c DD20      		tst r13
 702 030e 01F4      		brne .L51
 703 0310 0023      		tst r16
 704 0312 01F0      		breq .L52
 705               	.LM84:
 706 0314 0E94 0000 		call led_pushed_level_cal
 707 0318 00C0      		rjmp .L52
 708               	.L50:
 709               	.LM85:
 710 031a DD20      		tst r13
 711 031c 01F4      		brne .L51
 712               	.L52:
 713 031e 0023      		tst r16
 714 0320 01F0      		breq .L51
 715               	.LM86:
 716 0322 812F      		mov r24,r17
 717 0324 0E94 0000 		call processFNkeys
 718 0328 8823      		tst r24
 719 032a 01F4      		brne .L49
 720               	.L51:
 721               	.LM87:
 722 032c 8091 0000 		lds r24,usbmode
 723 0330 8823      		tst r24
 724 0332 01F0      		breq .L53
 725               	.LM88:
 726 0334 0023      		tst r16
 727 0336 01F0      		breq .L49
 728               	.LM89:
 729 0338 812F      		mov r24,r17
 730 033a 0E94 0000 		call buildHIDreports
 731 033e 582E      		mov r5,r24
 732 0340 00C0      		rjmp .L49
 733               	.L53:
 734               	.LM90:
 735 0342 DD20      		tst r13
 736 0344 01F4      		brne .L54
 737 0346 0023      		tst r16
 738 0348 01F0      		breq .L49
 739               	.LM91:
 740 034a 812F      		mov r24,r17
 741 034c 61E0      		ldi r22,lo8(1)
GAS LISTING C:\Users\21030\AppData\Local\Temp/ccMLudhi.s 			page 14


 742 034e 0E94 0000 		call putKey
 743               	.LM92:
 744 0352 F401      		movw r30,r8
 745 0354 1083      		st Z,r17
 746 0356 00C0      		rjmp .L49
 747               	.L54:
 748               	.LM93:
 749 0358 0023      		tst r16
 750 035a 01F4      		brne .L49
 751               	.LM94:
 752 035c 1E3F      		cpi r17,lo8(-2)
 753 035e 01F0      		breq .L49
 754               	.LM95:
 755 0360 F401      		movw r30,r8
 756 0362 8081      		ld r24,Z
 757 0364 60E0      		ldi r22,lo8(0)
 758 0366 0E94 0000 		call putKey
 759               	.L49:
 760 036a 0894      		sec
 761 036c E11C      		adc r14,__zero_reg__
 762 036e F11C      		adc r15,__zero_reg__
 763 0370 88E0      		ldi r24,lo8(8)
 764 0372 90E0      		ldi r25,hi8(8)
 765 0374 680E      		add r6,r24
 766 0376 791E      		adc r7,r25
 767 0378 880E      		add r8,r24
 768 037a 991E      		adc r9,r25
 769               	.LM96:
 770 037c 9DE0      		ldi r25,lo8(13)
 771 037e E916      		cp r14,r25
 772 0380 F104      		cpc r15,__zero_reg__
 773 0382 01F0      		breq .+2
 774 0384 00C0      		rjmp .L55
 775 0386 0894      		sec
 776 0388 A11C      		adc r10,__zero_reg__
 777 038a B11C      		adc r11,__zero_reg__
 778 038c 2196      		adiw r28,1
 779               	.LM97:
 780 038e E8E0      		ldi r30,lo8(8)
 781 0390 AE16      		cp r10,r30
 782 0392 B104      		cpc r11,__zero_reg__
 783 0394 01F0      		breq .L56
 784               	.L48:
 785               	.LM98:
 786 0396 C101      		movw r24,r2
 787 0398 0A2C      		mov r0,r10
 788 039a 00C0      		rjmp 2f
 789 039c 880F      	1:	lsl r24
 790 039e 991F      		rol r25
 791 03a0 0A94      	2:	dec r0
 792 03a2 02F4      		brpl 1b
 793 03a4 C82E      		mov r12,r24
 794 03a6 80E0      		ldi r24,lo8(svkeyidx)
 795 03a8 882E      		mov r8,r24
 796 03aa 80E0      		ldi r24,hi8(svkeyidx)
 797 03ac 982E      		mov r9,r24
 798 03ae 8A0C      		add r8,r10
GAS LISTING C:\Users\21030\AppData\Local\Temp/ccMLudhi.s 			page 15


 799 03b0 9B1C      		adc r9,r11
 800 03b2 3E01      		movw r6,r28
 801 03b4 EE24      		clr r14
 802 03b6 FF24      		clr r15
 803 03b8 00C0      		rjmp .L55
 804               	.L56:
 805 03ba 20E0      		ldi r18,lo8(0)
 806 03bc 30E0      		ldi r19,hi8(0)
 807               	.L57:
 808               	.LM99:
 809 03be F901      		movw r30,r18
 810 03c0 E050      		subi r30,lo8(-(MATRIX))
 811 03c2 F040      		sbci r31,hi8(-(MATRIX))
 812 03c4 D901      		movw r26,r18
 813 03c6 A050      		subi r26,lo8(-(curMATRIX))
 814 03c8 B040      		sbci r27,hi8(-(curMATRIX))
 815 03ca 8C91      		ld r24,X
 816 03cc 8083      		st Z,r24
 817 03ce 2F5F      		subi r18,lo8(-(1))
 818 03d0 3F4F      		sbci r19,hi8(-(1))
 819               	.LM100:
 820 03d2 2D30      		cpi r18,13
 821 03d4 3105      		cpc r19,__zero_reg__
 822 03d6 01F4      		brne .L57
 823               	.LM101:
 824 03d8 4092 0000 		sts currentKeymap,r4
 825               	.LM102:
 826 03dc 852D      		mov r24,r5
 827 03de 8160      		ori r24,lo8(1)
 828               	.LVL74:
 829               	.L47:
 830               	.LVL75:
 831               	/* epilogue start */
 832               	.LM103:
 833 03e0 DF91      		pop r29
 834 03e2 CF91      		pop r28
 835 03e4 1F91      		pop r17
 836               	.LVL76:
 837 03e6 0F91      		pop r16
 838               	.LVL77:
 839 03e8 FF90      		pop r15
 840 03ea EF90      		pop r14
 841 03ec DF90      		pop r13
 842               	.LVL78:
 843 03ee CF90      		pop r12
 844 03f0 BF90      		pop r11
 845 03f2 AF90      		pop r10
 846 03f4 9F90      		pop r9
 847 03f6 8F90      		pop r8
 848 03f8 7F90      		pop r7
 849 03fa 6F90      		pop r6
 850 03fc 5F90      		pop r5
 851 03fe 4F90      		pop r4
 852               	.LVL79:
 853 0400 3F90      		pop r3
 854 0402 2F90      		pop r2
 855 0404 0895      		ret
GAS LISTING C:\Users\21030\AppData\Local\Temp/ccMLudhi.s 			page 16


 856               	.LFE12:
 857               		.size	scankey, .-scankey
 858               	.global	scankeycntms
 859               	.global	scankeycntms
 860               		.section .bss
 861               		.type	scankeycntms, @object
 862               		.size	scankeycntms, 4
 863               	scankeycntms:
 864 0000 0000 0000 		.skip 4,0
 865               	.global	kbdsleepmode
 866               	.global	kbdsleepmode
 867               		.type	kbdsleepmode, @object
 868               		.size	kbdsleepmode, 1
 869               	kbdsleepmode:
 870 0004 00        		.skip 1,0
 871               	.global	toggle
 872               	.global	toggle
 873               		.type	toggle, @object
 874               		.size	toggle, 1
 875               	toggle:
 876 0005 00        		.skip 1,0
 877               		.lcomm currentKeymap,1
 878               		.comm MATRIX,13,1
 879               		.comm curMATRIX,13,1
 880               		.comm svkeyidx,104,1
 881               		.comm matrixFN,1,1
 882               		.section	.debug_frame,"",@progbits
 883               	.Lframe0:
 884 0000 0C00 0000 		.long	.LECIE0-.LSCIE0
 885               	.LSCIE0:
 886 0004 FFFF FFFF 		.long	0xffffffff
 887 0008 01        		.byte	0x1
 888 0009 00        		.string	""
 889 000a 01        		.uleb128 0x1
 890 000b 7F        		.sleb128 -1
 891 000c 24        		.byte	0x24
 892 000d 0C        		.byte	0xc
 893 000e 20        		.uleb128 0x20
 894 000f 00        		.uleb128 0x0
 895               		.p2align	2
 896               	.LECIE0:
 897               	.LSFDE0:
 898 0010 0C00 0000 		.long	.LEFDE0-.LASFDE0
 899               	.LASFDE0:
 900 0014 0000 0000 		.long	.Lframe0
 901 0018 0000 0000 		.long	.LFB8
 902 001c F400 0000 		.long	.LFE8-.LFB8
 903               		.p2align	2
 904               	.LEFDE0:
 905               	.LSFDE2:
 906 0020 0C00 0000 		.long	.LEFDE2-.LASFDE2
 907               	.LASFDE2:
 908 0024 0000 0000 		.long	.Lframe0
 909 0028 0000 0000 		.long	.LFB10
 910 002c 6A00 0000 		.long	.LFE10-.LFB10
 911               		.p2align	2
 912               	.LEFDE2:
GAS LISTING C:\Users\21030\AppData\Local\Temp/ccMLudhi.s 			page 17


 913               	.LSFDE4:
 914 0030 0C00 0000 		.long	.LEFDE4-.LASFDE4
 915               	.LASFDE4:
 916 0034 0000 0000 		.long	.Lframe0
 917 0038 0000 0000 		.long	.LFB9
 918 003c 3A00 0000 		.long	.LFE9-.LFB9
 919               		.p2align	2
 920               	.LEFDE4:
 921               	.LSFDE6:
 922 0040 0C00 0000 		.long	.LEFDE6-.LASFDE6
 923               	.LASFDE6:
 924 0044 0000 0000 		.long	.Lframe0
 925 0048 0000 0000 		.long	.LFB12
 926 004c 6E02 0000 		.long	.LFE12-.LFB12
 927               		.p2align	2
 928               	.LEFDE6:
 929               		.text
 930               	.Letext0:
 931               		.section	.debug_loc,"",@progbits
 932               	.Ldebug_loc0:
 933               	.LLST1:
 934 0000 1400 0000 		.long	.LVL0-.Ltext0
 935 0004 1C00 0000 		.long	.LVL1-.Ltext0
 936 0008 0600      		.word	0x6
 937 000a 68        		.byte	0x68
 938 000b 93        		.byte	0x93
 939 000c 01        		.uleb128 0x1
 940 000d 69        		.byte	0x69
 941 000e 93        		.byte	0x93
 942 000f 01        		.uleb128 0x1
 943 0010 2C00 0000 		.long	.LVL3-.Ltext0
 944 0014 3C00 0000 		.long	.LVL5-.Ltext0
 945 0018 0600      		.word	0x6
 946 001a 68        		.byte	0x68
 947 001b 93        		.byte	0x93
 948 001c 01        		.uleb128 0x1
 949 001d 69        		.byte	0x69
 950 001e 93        		.byte	0x93
 951 001f 01        		.uleb128 0x1
 952 0020 4000 0000 		.long	.LVL6-.Ltext0
 953 0024 4400 0000 		.long	.LVL7-.Ltext0
 954 0028 0600      		.word	0x6
 955 002a 68        		.byte	0x68
 956 002b 93        		.byte	0x93
 957 002c 01        		.uleb128 0x1
 958 002d 69        		.byte	0x69
 959 002e 93        		.byte	0x93
 960 002f 01        		.uleb128 0x1
 961 0030 4C00 0000 		.long	.LVL8-.Ltext0
 962 0034 5C00 0000 		.long	.LVL10-.Ltext0
 963 0038 0600      		.word	0x6
 964 003a 68        		.byte	0x68
 965 003b 93        		.byte	0x93
 966 003c 01        		.uleb128 0x1
 967 003d 69        		.byte	0x69
 968 003e 93        		.byte	0x93
 969 003f 01        		.uleb128 0x1
GAS LISTING C:\Users\21030\AppData\Local\Temp/ccMLudhi.s 			page 18


 970 0040 6000 0000 		.long	.LVL11-.Ltext0
 971 0044 6400 0000 		.long	.LVL12-.Ltext0
 972 0048 0600      		.word	0x6
 973 004a 68        		.byte	0x68
 974 004b 93        		.byte	0x93
 975 004c 01        		.uleb128 0x1
 976 004d 69        		.byte	0x69
 977 004e 93        		.byte	0x93
 978 004f 01        		.uleb128 0x1
 979 0050 6C00 0000 		.long	.LVL13-.Ltext0
 980 0054 7C00 0000 		.long	.LVL15-.Ltext0
 981 0058 0600      		.word	0x6
 982 005a 68        		.byte	0x68
 983 005b 93        		.byte	0x93
 984 005c 01        		.uleb128 0x1
 985 005d 69        		.byte	0x69
 986 005e 93        		.byte	0x93
 987 005f 01        		.uleb128 0x1
 988 0060 8000 0000 		.long	.LVL16-.Ltext0
 989 0064 8400 0000 		.long	.LVL17-.Ltext0
 990 0068 0600      		.word	0x6
 991 006a 68        		.byte	0x68
 992 006b 93        		.byte	0x93
 993 006c 01        		.uleb128 0x1
 994 006d 69        		.byte	0x69
 995 006e 93        		.byte	0x93
 996 006f 01        		.uleb128 0x1
 997 0070 8C00 0000 		.long	.LVL18-.Ltext0
 998 0074 9C00 0000 		.long	.LVL20-.Ltext0
 999 0078 0600      		.word	0x6
 1000 007a 68        		.byte	0x68
 1001 007b 93        		.byte	0x93
 1002 007c 01        		.uleb128 0x1
 1003 007d 69        		.byte	0x69
 1004 007e 93        		.byte	0x93
 1005 007f 01        		.uleb128 0x1
 1006 0080 A000 0000 		.long	.LVL21-.Ltext0
 1007 0084 A400 0000 		.long	.LVL22-.Ltext0
 1008 0088 0600      		.word	0x6
 1009 008a 68        		.byte	0x68
 1010 008b 93        		.byte	0x93
 1011 008c 01        		.uleb128 0x1
 1012 008d 69        		.byte	0x69
 1013 008e 93        		.byte	0x93
 1014 008f 01        		.uleb128 0x1
 1015 0090 AC00 0000 		.long	.LVL23-.Ltext0
 1016 0094 BA00 0000 		.long	.LVL24-.Ltext0
 1017 0098 0600      		.word	0x6
 1018 009a 68        		.byte	0x68
 1019 009b 93        		.byte	0x93
 1020 009c 01        		.uleb128 0x1
 1021 009d 69        		.byte	0x69
 1022 009e 93        		.byte	0x93
 1023 009f 01        		.uleb128 0x1
 1024 00a0 0000 0000 		.long	0x0
 1025 00a4 0000 0000 		.long	0x0
 1026               	.LLST2:
GAS LISTING C:\Users\21030\AppData\Local\Temp/ccMLudhi.s 			page 19


 1027 00a8 1400 0000 		.long	.LVL0-.Ltext0
 1028 00ac 1C00 0000 		.long	.LVL1-.Ltext0
 1029 00b0 0100      		.word	0x1
 1030 00b2 68        		.byte	0x68
 1031 00b3 2400 0000 		.long	.LVL2-.Ltext0
 1032 00b7 3400 0000 		.long	.LVL4-.Ltext0
 1033 00bb 0100      		.word	0x1
 1034 00bd 68        		.byte	0x68
 1035 00be 4000 0000 		.long	.LVL6-.Ltext0
 1036 00c2 4400 0000 		.long	.LVL7-.Ltext0
 1037 00c6 0100      		.word	0x1
 1038 00c8 68        		.byte	0x68
 1039 00c9 0000 0000 		.long	0x0
 1040 00cd 0000 0000 		.long	0x0
 1041               	.LLST3:
 1042 00d1 3400 0000 		.long	.LVL4-.Ltext0
 1043 00d5 3C00 0000 		.long	.LVL5-.Ltext0
 1044 00d9 0100      		.word	0x1
 1045 00db 68        		.byte	0x68
 1046 00dc 4400 0000 		.long	.LVL7-.Ltext0
 1047 00e0 5400 0000 		.long	.LVL9-.Ltext0
 1048 00e4 0100      		.word	0x1
 1049 00e6 68        		.byte	0x68
 1050 00e7 6000 0000 		.long	.LVL11-.Ltext0
 1051 00eb 6400 0000 		.long	.LVL12-.Ltext0
 1052 00ef 0100      		.word	0x1
 1053 00f1 68        		.byte	0x68
 1054 00f2 0000 0000 		.long	0x0
 1055 00f6 0000 0000 		.long	0x0
 1056               	.LLST4:
 1057 00fa 5400 0000 		.long	.LVL9-.Ltext0
 1058 00fe 5C00 0000 		.long	.LVL10-.Ltext0
 1059 0102 0100      		.word	0x1
 1060 0104 68        		.byte	0x68
 1061 0105 6400 0000 		.long	.LVL12-.Ltext0
 1062 0109 7400 0000 		.long	.LVL14-.Ltext0
 1063 010d 0100      		.word	0x1
 1064 010f 68        		.byte	0x68
 1065 0110 8000 0000 		.long	.LVL16-.Ltext0
 1066 0114 8400 0000 		.long	.LVL17-.Ltext0
 1067 0118 0100      		.word	0x1
 1068 011a 68        		.byte	0x68
 1069 011b 0000 0000 		.long	0x0
 1070 011f 0000 0000 		.long	0x0
 1071               	.LLST5:
 1072 0123 7400 0000 		.long	.LVL14-.Ltext0
 1073 0127 7C00 0000 		.long	.LVL15-.Ltext0
 1074 012b 0100      		.word	0x1
 1075 012d 68        		.byte	0x68
 1076 012e 8400 0000 		.long	.LVL17-.Ltext0
 1077 0132 9400 0000 		.long	.LVL19-.Ltext0
 1078 0136 0100      		.word	0x1
 1079 0138 68        		.byte	0x68
 1080 0139 A000 0000 		.long	.LVL21-.Ltext0
 1081 013d A400 0000 		.long	.LVL22-.Ltext0
 1082 0141 0100      		.word	0x1
 1083 0143 68        		.byte	0x68
GAS LISTING C:\Users\21030\AppData\Local\Temp/ccMLudhi.s 			page 20


 1084 0144 0000 0000 		.long	0x0
 1085 0148 0000 0000 		.long	0x0
 1086               	.LLST6:
 1087 014c 9400 0000 		.long	.LVL19-.Ltext0
 1088 0150 9C00 0000 		.long	.LVL20-.Ltext0
 1089 0154 0100      		.word	0x1
 1090 0156 68        		.byte	0x68
 1091 0157 A400 0000 		.long	.LVL22-.Ltext0
 1092 015b BA00 0000 		.long	.LVL24-.Ltext0
 1093 015f 0100      		.word	0x1
 1094 0161 68        		.byte	0x68
 1095 0162 0000 0000 		.long	0x0
 1096 0166 0000 0000 		.long	0x0
 1097               	.LLST7:
 1098 016a CC00 0000 		.long	.LVL27-.Ltext0
 1099 016e D400 0000 		.long	.LVL28-.Ltext0
 1100 0172 0100      		.word	0x1
 1101 0174 68        		.byte	0x68
 1102 0175 EE00 0000 		.long	.LVL31-.Ltext0
 1103 0179 F400 0000 		.long	.LFE8-.Ltext0
 1104 017d 0100      		.word	0x1
 1105 017f 68        		.byte	0x68
 1106 0180 0000 0000 		.long	0x0
 1107 0184 0000 0000 		.long	0x0
 1108               	.LLST8:
 1109 0188 C400 0000 		.long	.LVL26-.Ltext0
 1110 018c CC00 0000 		.long	.LVL27-.Ltext0
 1111 0190 0100      		.word	0x1
 1112 0192 68        		.byte	0x68
 1113 0193 D400 0000 		.long	.LVL28-.Ltext0
 1114 0197 EE00 0000 		.long	.LVL31-.Ltext0
 1115 019b 0100      		.word	0x1
 1116 019d 68        		.byte	0x68
 1117 019e 0000 0000 		.long	0x0
 1118 01a2 0000 0000 		.long	0x0
 1119               	.LLST10:
 1120 01a6 F400 0000 		.long	.LVL32-.Ltext0
 1121 01aa 0E01 0000 		.long	.LVL35-.Ltext0
 1122 01ae 0100      		.word	0x1
 1123 01b0 68        		.byte	0x68
 1124 01b1 0000 0000 		.long	0x0
 1125 01b5 0000 0000 		.long	0x0
 1126               	.LLST11:
 1127 01b9 F600 0000 		.long	.LVL33-.Ltext0
 1128 01bd 3001 0000 		.long	.LVL39-.Ltext0
 1129 01c1 0100      		.word	0x1
 1130 01c3 63        		.byte	0x63
 1131 01c4 3001 0000 		.long	.LVL39-.Ltext0
 1132 01c8 5E01 0000 		.long	.LFE10-.Ltext0
 1133 01cc 0600      		.word	0x6
 1134 01ce 66        		.byte	0x66
 1135 01cf 93        		.byte	0x93
 1136 01d0 01        		.uleb128 0x1
 1137 01d1 67        		.byte	0x67
 1138 01d2 93        		.byte	0x93
 1139 01d3 01        		.uleb128 0x1
 1140 01d4 0000 0000 		.long	0x0
GAS LISTING C:\Users\21030\AppData\Local\Temp/ccMLudhi.s 			page 21


 1141 01d8 0000 0000 		.long	0x0
 1142               	.LLST12:
 1143 01dc 2001 0000 		.long	.LVL37-.Ltext0
 1144 01e0 2C01 0000 		.long	.LVL38-.Ltext0
 1145 01e4 0100      		.word	0x1
 1146 01e6 62        		.byte	0x62
 1147 01e7 3801 0000 		.long	.LVL40-.Ltext0
 1148 01eb 3E01 0000 		.long	.LVL42-.Ltext0
 1149 01ef 0100      		.word	0x1
 1150 01f1 62        		.byte	0x62
 1151 01f2 4001 0000 		.long	.LVL43-.Ltext0
 1152 01f6 5C01 0000 		.long	.LVL47-.Ltext0
 1153 01fa 0100      		.word	0x1
 1154 01fc 62        		.byte	0x62
 1155 01fd 5C01 0000 		.long	.LVL47-.Ltext0
 1156 0201 5C01 0000 		.long	.LVL48-.Ltext0
 1157 0205 0100      		.word	0x1
 1158 0207 68        		.byte	0x68
 1159 0208 5C01 0000 		.long	.LVL48-.Ltext0
 1160 020c 5E01 0000 		.long	.LFE10-.Ltext0
 1161 0210 0100      		.word	0x1
 1162 0212 62        		.byte	0x62
 1163 0213 0000 0000 		.long	0x0
 1164 0217 0000 0000 		.long	0x0
 1165               	.LLST13:
 1166 021b 1601 0000 		.long	.LVL36-.Ltext0
 1167 021f 3C01 0000 		.long	.LVL41-.Ltext0
 1168 0223 0100      		.word	0x1
 1169 0225 68        		.byte	0x68
 1170 0226 3E01 0000 		.long	.LVL42-.Ltext0
 1171 022a 4401 0000 		.long	.LVL44-.Ltext0
 1172 022e 0100      		.word	0x1
 1173 0230 68        		.byte	0x68
 1174 0231 5201 0000 		.long	.LVL45-.Ltext0
 1175 0235 5801 0000 		.long	.LVL46-.Ltext0
 1176 0239 0100      		.word	0x1
 1177 023b 68        		.byte	0x68
 1178 023c 0000 0000 		.long	0x0
 1179 0240 0000 0000 		.long	0x0
 1180               	.LLST15:
 1181 0244 5E01 0000 		.long	.LVL49-.Ltext0
 1182 0248 6401 0000 		.long	.LVL50-.Ltext0
 1183 024c 0100      		.word	0x1
 1184 024e 68        		.byte	0x68
 1185 024f 6601 0000 		.long	.LVL51-.Ltext0
 1186 0253 6E01 0000 		.long	.LVL52-.Ltext0
 1187 0257 0100      		.word	0x1
 1188 0259 68        		.byte	0x68
 1189 025a 0000 0000 		.long	0x0
 1190 025e 0000 0000 		.long	0x0
 1191               	.LLST16:
 1192 0262 6401 0000 		.long	.LVL50-.Ltext0
 1193 0266 6601 0000 		.long	.LVL51-.Ltext0
 1194 026a 0100      		.word	0x1
 1195 026c 68        		.byte	0x68
 1196 026d 9601 0000 		.long	.LVL53-.Ltext0
 1197 0271 9601 0000 		.long	.LVL54-.Ltext0
GAS LISTING C:\Users\21030\AppData\Local\Temp/ccMLudhi.s 			page 22


 1198 0275 0100      		.word	0x1
 1199 0277 68        		.byte	0x68
 1200 0278 0000 0000 		.long	0x0
 1201 027c 0000 0000 		.long	0x0
 1202               	.LLST18:
 1203 0280 DC02 0000 		.long	.LVL73-.Ltext0
 1204 0284 EE03 0000 		.long	.LVL78-.Ltext0
 1205 0288 0100      		.word	0x1
 1206 028a 5D        		.byte	0x5d
 1207 028b 0000 0000 		.long	0x0
 1208 028f 0000 0000 		.long	0x0
 1209               	.LLST19:
 1210 0293 DC02 0000 		.long	.LVL73-.Ltext0
 1211 0297 E803 0000 		.long	.LVL77-.Ltext0
 1212 029b 0100      		.word	0x1
 1213 029d 60        		.byte	0x60
 1214 029e 0000 0000 		.long	0x0
 1215 02a2 0000 0000 		.long	0x0
 1216               	.LLST20:
 1217 02a6 BE01 0000 		.long	.LVL55-.Ltext0
 1218 02aa 9602 0000 		.long	.LVL67-.Ltext0
 1219 02ae 0100      		.word	0x1
 1220 02b0 60        		.byte	0x60
 1221 02b1 0000 0000 		.long	0x0
 1222 02b5 0000 0000 		.long	0x0
 1223               	.LLST21:
 1224 02b9 A802 0000 		.long	.LVL69-.Ltext0
 1225 02bd AA02 0000 		.long	.LVL70-.Ltext0
 1226 02c1 0100      		.word	0x1
 1227 02c3 68        		.byte	0x68
 1228 02c4 D002 0000 		.long	.LVL72-.Ltext0
 1229 02c8 E003 0000 		.long	.LVL74-.Ltext0
 1230 02cc 0100      		.word	0x1
 1231 02ce 55        		.byte	0x55
 1232 02cf E003 0000 		.long	.LVL74-.Ltext0
 1233 02d3 E003 0000 		.long	.LVL75-.Ltext0
 1234 02d7 0100      		.word	0x1
 1235 02d9 68        		.byte	0x68
 1236 02da 0000 0000 		.long	0x0
 1237 02de 0000 0000 		.long	0x0
 1238               	.LLST22:
 1239 02e2 B802 0000 		.long	.LVL71-.Ltext0
 1240 02e6 0004 0000 		.long	.LVL79-.Ltext0
 1241 02ea 0100      		.word	0x1
 1242 02ec 54        		.byte	0x54
 1243 02ed 0000 0000 		.long	0x0
 1244 02f1 0000 0000 		.long	0x0
 1245               	.LLST23:
 1246 02f5 0C02 0000 		.long	.LVL58-.Ltext0
 1247 02f9 1002 0000 		.long	.LVL59-.Ltext0
 1248 02fd 0100      		.word	0x1
 1249 02ff 68        		.byte	0x68
 1250 0300 1002 0000 		.long	.LVL59-.Ltext0
 1251 0304 1E02 0000 		.long	.LVL60-.Ltext0
 1252 0308 0100      		.word	0x1
 1253 030a 64        		.byte	0x64
 1254 030b 2202 0000 		.long	.LVL61-.Ltext0
GAS LISTING C:\Users\21030\AppData\Local\Temp/ccMLudhi.s 			page 23


 1255 030f 2402 0000 		.long	.LVL62-.Ltext0
 1256 0313 0100      		.word	0x1
 1257 0315 64        		.byte	0x64
 1258 0316 2402 0000 		.long	.LVL62-.Ltext0
 1259 031a 2A02 0000 		.long	.LVL63-.Ltext0
 1260 031e 0100      		.word	0x1
 1261 0320 68        		.byte	0x68
 1262 0321 4002 0000 		.long	.LVL64-.Ltext0
 1263 0325 4202 0000 		.long	.LVL65-.Ltext0
 1264 0329 0100      		.word	0x1
 1265 032b 68        		.byte	0x68
 1266 032c 0000 0000 		.long	0x0
 1267 0330 0000 0000 		.long	0x0
 1268               	.LLST24:
 1269 0334 D601 0000 		.long	.LVL56-.Ltext0
 1270 0338 9A02 0000 		.long	.LVL68-.Ltext0
 1271 033c 0100      		.word	0x1
 1272 033e 66        		.byte	0x66
 1273 033f 0000 0000 		.long	0x0
 1274 0343 0000 0000 		.long	0x0
 1275               	.LLST25:
 1276 0347 D601 0000 		.long	.LVL56-.Ltext0
 1277 034b 9402 0000 		.long	.LVL66-.Ltext0
 1278 034f 0100      		.word	0x1
 1279 0351 61        		.byte	0x61
 1280 0352 0000 0000 		.long	0x0
 1281 0356 0000 0000 		.long	0x0
 1282               	.LLST26:
 1283 035a D601 0000 		.long	.LVL56-.Ltext0
 1284 035e 9A02 0000 		.long	.LVL68-.Ltext0
 1285 0362 0100      		.word	0x1
 1286 0364 67        		.byte	0x67
 1287 0365 0000 0000 		.long	0x0
 1288 0369 0000 0000 		.long	0x0
 1289               	.LLST27:
 1290 036d D601 0000 		.long	.LVL56-.Ltext0
 1291 0371 9A02 0000 		.long	.LVL68-.Ltext0
 1292 0375 0100      		.word	0x1
 1293 0377 63        		.byte	0x63
 1294 0378 0000 0000 		.long	0x0
 1295 037c 0000 0000 		.long	0x0
 1296               	.LLST28:
 1297 0380 EE01 0000 		.long	.LVL57-.Ltext0
 1298 0384 0C02 0000 		.long	.LVL58-.Ltext0
 1299 0388 0100      		.word	0x1
 1300 038a 68        		.byte	0x68
 1301 038b 0000 0000 		.long	0x0
 1302 038f 0000 0000 		.long	0x0
 1303               	.LLST29:
 1304 0393 DC02 0000 		.long	.LVL73-.Ltext0
 1305 0397 E603 0000 		.long	.LVL76-.Ltext0
 1306 039b 0100      		.word	0x1
 1307 039d 61        		.byte	0x61
 1308 039e 0000 0000 		.long	0x0
 1309 03a2 0000 0000 		.long	0x0
 1310               		.section	.debug_info
 1311 0000 A60B 0000 		.long	0xba6
GAS LISTING C:\Users\21030\AppData\Local\Temp/ccMLudhi.s 			page 24


 1312 0004 0200      		.word	0x2
 1313 0006 0000 0000 		.long	.Ldebug_abbrev0
 1314 000a 04        		.byte	0x4
 1315 000b 01        		.uleb128 0x1
 1316 000c 0000 0000 		.long	.LASF239
 1317 0010 01        		.byte	0x1
 1318 0011 0000 0000 		.long	.LASF240
 1319 0015 0000 0000 		.long	.LASF241
 1320 0019 0000 0000 		.long	.Ltext0
 1321 001d 0000 0000 		.long	.Letext0
 1322 0021 0000 0000 		.long	.Ldebug_line0
 1323 0025 02        		.uleb128 0x2
 1324 0026 01        		.byte	0x1
 1325 0027 08        		.byte	0x8
 1326 0028 0000 0000 		.long	.LASF0
 1327 002c 02        		.uleb128 0x2
 1328 002d 01        		.byte	0x1
 1329 002e 06        		.byte	0x6
 1330 002f 0000 0000 		.long	.LASF1
 1331 0033 02        		.uleb128 0x2
 1332 0034 02        		.byte	0x2
 1333 0035 07        		.byte	0x7
 1334 0036 0000 0000 		.long	.LASF2
 1335 003a 02        		.uleb128 0x2
 1336 003b 02        		.byte	0x2
 1337 003c 05        		.byte	0x5
 1338 003d 0000 0000 		.long	.LASF3
 1339 0041 02        		.uleb128 0x2
 1340 0042 04        		.byte	0x4
 1341 0043 07        		.byte	0x7
 1342 0044 0000 0000 		.long	.LASF4
 1343 0048 02        		.uleb128 0x2
 1344 0049 04        		.byte	0x4
 1345 004a 05        		.byte	0x5
 1346 004b 0000 0000 		.long	.LASF5
 1347 004f 02        		.uleb128 0x2
 1348 0050 08        		.byte	0x8
 1349 0051 07        		.byte	0x7
 1350 0052 0000 0000 		.long	.LASF6
 1351 0056 02        		.uleb128 0x2
 1352 0057 08        		.byte	0x8
 1353 0058 05        		.byte	0x5
 1354 0059 0000 0000 		.long	.LASF7
 1355 005d 02        		.uleb128 0x2
 1356 005e 02        		.byte	0x2
 1357 005f 07        		.byte	0x7
 1358 0060 0000 0000 		.long	.LASF8
 1359 0064 02        		.uleb128 0x2
 1360 0065 01        		.byte	0x1
 1361 0066 06        		.byte	0x6
 1362 0067 0000 0000 		.long	.LASF9
 1363 006b 03        		.uleb128 0x3
 1364 006c 02        		.byte	0x2
 1365 006d 05        		.byte	0x5
 1366 006e 696E 7400 		.string	"int"
 1367 0072 04        		.uleb128 0x4
 1368 0073 0000 0000 		.long	.LASF10
GAS LISTING C:\Users\21030\AppData\Local\Temp/ccMLudhi.s 			page 25


 1369 0077 03        		.byte	0x3
 1370 0078 79        		.byte	0x79
 1371 0079 2C00 0000 		.long	0x2c
 1372 007d 04        		.uleb128 0x4
 1373 007e 0000 0000 		.long	.LASF11
 1374 0082 03        		.byte	0x3
 1375 0083 7A        		.byte	0x7a
 1376 0084 2500 0000 		.long	0x25
 1377 0088 04        		.uleb128 0x4
 1378 0089 0000 0000 		.long	.LASF12
 1379 008d 03        		.byte	0x3
 1380 008e 7C        		.byte	0x7c
 1381 008f 5D00 0000 		.long	0x5d
 1382 0093 04        		.uleb128 0x4
 1383 0094 0000 0000 		.long	.LASF13
 1384 0098 03        		.byte	0x3
 1385 0099 7E        		.byte	0x7e
 1386 009a 4100 0000 		.long	0x41
 1387 009e 05        		.uleb128 0x5
 1388 009f 01        		.byte	0x1
 1389 00a0 06        		.byte	0x6
 1390 00a1 05        		.uleb128 0x5
 1391 00a2 01        		.byte	0x1
 1392 00a3 08        		.byte	0x8
 1393 00a4 06        		.uleb128 0x6
 1394 00a5 02        		.byte	0x2
 1395 00a6 04        		.byte	0x4
 1396 00a7 2C        		.byte	0x2c
 1397 00a8 1A05 0000 		.long	0x51a
 1398 00ac 07        		.uleb128 0x7
 1399 00ad 0000 0000 		.long	.LASF14
 1400 00b1 00        		.sleb128 0
 1401 00b2 07        		.uleb128 0x7
 1402 00b3 0000 0000 		.long	.LASF15
 1403 00b7 01        		.sleb128 1
 1404 00b8 07        		.uleb128 0x7
 1405 00b9 0000 0000 		.long	.LASF16
 1406 00bd 02        		.sleb128 2
 1407 00be 07        		.uleb128 0x7
 1408 00bf 0000 0000 		.long	.LASF17
 1409 00c3 03        		.sleb128 3
 1410 00c4 07        		.uleb128 0x7
 1411 00c5 0000 0000 		.long	.LASF18
 1412 00c9 04        		.sleb128 4
 1413 00ca 07        		.uleb128 0x7
 1414 00cb 0000 0000 		.long	.LASF19
 1415 00cf 05        		.sleb128 5
 1416 00d0 07        		.uleb128 0x7
 1417 00d1 0000 0000 		.long	.LASF20
 1418 00d5 06        		.sleb128 6
 1419 00d6 07        		.uleb128 0x7
 1420 00d7 0000 0000 		.long	.LASF21
 1421 00db 07        		.sleb128 7
 1422 00dc 07        		.uleb128 0x7
 1423 00dd 0000 0000 		.long	.LASF22
 1424 00e1 08        		.sleb128 8
 1425 00e2 07        		.uleb128 0x7
GAS LISTING C:\Users\21030\AppData\Local\Temp/ccMLudhi.s 			page 26


 1426 00e3 0000 0000 		.long	.LASF23
 1427 00e7 09        		.sleb128 9
 1428 00e8 07        		.uleb128 0x7
 1429 00e9 0000 0000 		.long	.LASF24
 1430 00ed 0A        		.sleb128 10
 1431 00ee 07        		.uleb128 0x7
 1432 00ef 0000 0000 		.long	.LASF25
 1433 00f3 0B        		.sleb128 11
 1434 00f4 07        		.uleb128 0x7
 1435 00f5 0000 0000 		.long	.LASF26
 1436 00f9 0C        		.sleb128 12
 1437 00fa 07        		.uleb128 0x7
 1438 00fb 0000 0000 		.long	.LASF27
 1439 00ff 0D        		.sleb128 13
 1440 0100 07        		.uleb128 0x7
 1441 0101 0000 0000 		.long	.LASF28
 1442 0105 0E        		.sleb128 14
 1443 0106 07        		.uleb128 0x7
 1444 0107 0000 0000 		.long	.LASF29
 1445 010b 0F        		.sleb128 15
 1446 010c 07        		.uleb128 0x7
 1447 010d 0000 0000 		.long	.LASF30
 1448 0111 10        		.sleb128 16
 1449 0112 07        		.uleb128 0x7
 1450 0113 0000 0000 		.long	.LASF31
 1451 0117 11        		.sleb128 17
 1452 0118 07        		.uleb128 0x7
 1453 0119 0000 0000 		.long	.LASF32
 1454 011d 12        		.sleb128 18
 1455 011e 07        		.uleb128 0x7
 1456 011f 0000 0000 		.long	.LASF33
 1457 0123 13        		.sleb128 19
 1458 0124 07        		.uleb128 0x7
 1459 0125 0000 0000 		.long	.LASF34
 1460 0129 14        		.sleb128 20
 1461 012a 07        		.uleb128 0x7
 1462 012b 0000 0000 		.long	.LASF35
 1463 012f 15        		.sleb128 21
 1464 0130 07        		.uleb128 0x7
 1465 0131 0000 0000 		.long	.LASF36
 1466 0135 16        		.sleb128 22
 1467 0136 07        		.uleb128 0x7
 1468 0137 0000 0000 		.long	.LASF37
 1469 013b 17        		.sleb128 23
 1470 013c 07        		.uleb128 0x7
 1471 013d 0000 0000 		.long	.LASF38
 1472 0141 18        		.sleb128 24
 1473 0142 07        		.uleb128 0x7
 1474 0143 0000 0000 		.long	.LASF39
 1475 0147 19        		.sleb128 25
 1476 0148 07        		.uleb128 0x7
 1477 0149 0000 0000 		.long	.LASF40
 1478 014d 1A        		.sleb128 26
 1479 014e 07        		.uleb128 0x7
 1480 014f 0000 0000 		.long	.LASF41
 1481 0153 1B        		.sleb128 27
 1482 0154 07        		.uleb128 0x7
GAS LISTING C:\Users\21030\AppData\Local\Temp/ccMLudhi.s 			page 27


 1483 0155 0000 0000 		.long	.LASF42
 1484 0159 1C        		.sleb128 28
 1485 015a 07        		.uleb128 0x7
 1486 015b 0000 0000 		.long	.LASF43
 1487 015f 1D        		.sleb128 29
 1488 0160 07        		.uleb128 0x7
 1489 0161 0000 0000 		.long	.LASF44
 1490 0165 1E        		.sleb128 30
 1491 0166 07        		.uleb128 0x7
 1492 0167 0000 0000 		.long	.LASF45
 1493 016b 1F        		.sleb128 31
 1494 016c 07        		.uleb128 0x7
 1495 016d 0000 0000 		.long	.LASF46
 1496 0171 20        		.sleb128 32
 1497 0172 07        		.uleb128 0x7
 1498 0173 0000 0000 		.long	.LASF47
 1499 0177 21        		.sleb128 33
 1500 0178 07        		.uleb128 0x7
 1501 0179 0000 0000 		.long	.LASF48
 1502 017d 22        		.sleb128 34
 1503 017e 07        		.uleb128 0x7
 1504 017f 0000 0000 		.long	.LASF49
 1505 0183 23        		.sleb128 35
 1506 0184 07        		.uleb128 0x7
 1507 0185 0000 0000 		.long	.LASF50
 1508 0189 24        		.sleb128 36
 1509 018a 07        		.uleb128 0x7
 1510 018b 0000 0000 		.long	.LASF51
 1511 018f 25        		.sleb128 37
 1512 0190 07        		.uleb128 0x7
 1513 0191 0000 0000 		.long	.LASF52
 1514 0195 26        		.sleb128 38
 1515 0196 07        		.uleb128 0x7
 1516 0197 0000 0000 		.long	.LASF53
 1517 019b 27        		.sleb128 39
 1518 019c 07        		.uleb128 0x7
 1519 019d 0000 0000 		.long	.LASF54
 1520 01a1 28        		.sleb128 40
 1521 01a2 07        		.uleb128 0x7
 1522 01a3 0000 0000 		.long	.LASF55
 1523 01a7 29        		.sleb128 41
 1524 01a8 07        		.uleb128 0x7
 1525 01a9 0000 0000 		.long	.LASF56
 1526 01ad 2A        		.sleb128 42
 1527 01ae 07        		.uleb128 0x7
 1528 01af 0000 0000 		.long	.LASF57
 1529 01b3 2B        		.sleb128 43
 1530 01b4 07        		.uleb128 0x7
 1531 01b5 0000 0000 		.long	.LASF58
 1532 01b9 2C        		.sleb128 44
 1533 01ba 07        		.uleb128 0x7
 1534 01bb 0000 0000 		.long	.LASF59
 1535 01bf 2D        		.sleb128 45
 1536 01c0 07        		.uleb128 0x7
 1537 01c1 0000 0000 		.long	.LASF60
 1538 01c5 2E        		.sleb128 46
 1539 01c6 07        		.uleb128 0x7
GAS LISTING C:\Users\21030\AppData\Local\Temp/ccMLudhi.s 			page 28


 1540 01c7 0000 0000 		.long	.LASF61
 1541 01cb 2F        		.sleb128 47
 1542 01cc 07        		.uleb128 0x7
 1543 01cd 0000 0000 		.long	.LASF62
 1544 01d1 30        		.sleb128 48
 1545 01d2 07        		.uleb128 0x7
 1546 01d3 0000 0000 		.long	.LASF63
 1547 01d7 31        		.sleb128 49
 1548 01d8 07        		.uleb128 0x7
 1549 01d9 0000 0000 		.long	.LASF64
 1550 01dd 32        		.sleb128 50
 1551 01de 07        		.uleb128 0x7
 1552 01df 0000 0000 		.long	.LASF65
 1553 01e3 33        		.sleb128 51
 1554 01e4 07        		.uleb128 0x7
 1555 01e5 0000 0000 		.long	.LASF66
 1556 01e9 34        		.sleb128 52
 1557 01ea 07        		.uleb128 0x7
 1558 01eb 0000 0000 		.long	.LASF67
 1559 01ef 35        		.sleb128 53
 1560 01f0 07        		.uleb128 0x7
 1561 01f1 0000 0000 		.long	.LASF68
 1562 01f5 36        		.sleb128 54
 1563 01f6 07        		.uleb128 0x7
 1564 01f7 0000 0000 		.long	.LASF69
 1565 01fb 37        		.sleb128 55
 1566 01fc 07        		.uleb128 0x7
 1567 01fd 0000 0000 		.long	.LASF70
 1568 0201 38        		.sleb128 56
 1569 0202 07        		.uleb128 0x7
 1570 0203 0000 0000 		.long	.LASF71
 1571 0207 39        		.sleb128 57
 1572 0208 07        		.uleb128 0x7
 1573 0209 0000 0000 		.long	.LASF72
 1574 020d 3A        		.sleb128 58
 1575 020e 07        		.uleb128 0x7
 1576 020f 0000 0000 		.long	.LASF73
 1577 0213 3B        		.sleb128 59
 1578 0214 07        		.uleb128 0x7
 1579 0215 0000 0000 		.long	.LASF74
 1580 0219 3C        		.sleb128 60
 1581 021a 07        		.uleb128 0x7
 1582 021b 0000 0000 		.long	.LASF75
 1583 021f 3D        		.sleb128 61
 1584 0220 07        		.uleb128 0x7
 1585 0221 0000 0000 		.long	.LASF76
 1586 0225 3E        		.sleb128 62
 1587 0226 07        		.uleb128 0x7
 1588 0227 0000 0000 		.long	.LASF77
 1589 022b 3F        		.sleb128 63
 1590 022c 07        		.uleb128 0x7
 1591 022d 0000 0000 		.long	.LASF78
 1592 0231 C000      		.sleb128 64
 1593 0233 07        		.uleb128 0x7
 1594 0234 0000 0000 		.long	.LASF79
 1595 0238 C100      		.sleb128 65
 1596 023a 07        		.uleb128 0x7
GAS LISTING C:\Users\21030\AppData\Local\Temp/ccMLudhi.s 			page 29


 1597 023b 0000 0000 		.long	.LASF80
 1598 023f C200      		.sleb128 66
 1599 0241 07        		.uleb128 0x7
 1600 0242 0000 0000 		.long	.LASF81
 1601 0246 C300      		.sleb128 67
 1602 0248 07        		.uleb128 0x7
 1603 0249 0000 0000 		.long	.LASF82
 1604 024d C400      		.sleb128 68
 1605 024f 07        		.uleb128 0x7
 1606 0250 0000 0000 		.long	.LASF83
 1607 0254 C500      		.sleb128 69
 1608 0256 07        		.uleb128 0x7
 1609 0257 0000 0000 		.long	.LASF84
 1610 025b C600      		.sleb128 70
 1611 025d 07        		.uleb128 0x7
 1612 025e 0000 0000 		.long	.LASF85
 1613 0262 C700      		.sleb128 71
 1614 0264 07        		.uleb128 0x7
 1615 0265 0000 0000 		.long	.LASF86
 1616 0269 C800      		.sleb128 72
 1617 026b 07        		.uleb128 0x7
 1618 026c 0000 0000 		.long	.LASF87
 1619 0270 C900      		.sleb128 73
 1620 0272 07        		.uleb128 0x7
 1621 0273 0000 0000 		.long	.LASF88
 1622 0277 CA00      		.sleb128 74
 1623 0279 07        		.uleb128 0x7
 1624 027a 0000 0000 		.long	.LASF89
 1625 027e CB00      		.sleb128 75
 1626 0280 07        		.uleb128 0x7
 1627 0281 0000 0000 		.long	.LASF90
 1628 0285 CC00      		.sleb128 76
 1629 0287 07        		.uleb128 0x7
 1630 0288 0000 0000 		.long	.LASF91
 1631 028c CD00      		.sleb128 77
 1632 028e 07        		.uleb128 0x7
 1633 028f 0000 0000 		.long	.LASF92
 1634 0293 CE00      		.sleb128 78
 1635 0295 07        		.uleb128 0x7
 1636 0296 0000 0000 		.long	.LASF93
 1637 029a CF00      		.sleb128 79
 1638 029c 07        		.uleb128 0x7
 1639 029d 0000 0000 		.long	.LASF94
 1640 02a1 D000      		.sleb128 80
 1641 02a3 07        		.uleb128 0x7
 1642 02a4 0000 0000 		.long	.LASF95
 1643 02a8 D100      		.sleb128 81
 1644 02aa 07        		.uleb128 0x7
 1645 02ab 0000 0000 		.long	.LASF96
 1646 02af D200      		.sleb128 82
 1647 02b1 07        		.uleb128 0x7
 1648 02b2 0000 0000 		.long	.LASF97
 1649 02b6 D300      		.sleb128 83
 1650 02b8 07        		.uleb128 0x7
 1651 02b9 0000 0000 		.long	.LASF98
 1652 02bd D400      		.sleb128 84
 1653 02bf 07        		.uleb128 0x7
GAS LISTING C:\Users\21030\AppData\Local\Temp/ccMLudhi.s 			page 30


 1654 02c0 0000 0000 		.long	.LASF99
 1655 02c4 D500      		.sleb128 85
 1656 02c6 07        		.uleb128 0x7
 1657 02c7 0000 0000 		.long	.LASF100
 1658 02cb D600      		.sleb128 86
 1659 02cd 07        		.uleb128 0x7
 1660 02ce 0000 0000 		.long	.LASF101
 1661 02d2 D700      		.sleb128 87
 1662 02d4 07        		.uleb128 0x7
 1663 02d5 0000 0000 		.long	.LASF102
 1664 02d9 D800      		.sleb128 88
 1665 02db 07        		.uleb128 0x7
 1666 02dc 0000 0000 		.long	.LASF103
 1667 02e0 D900      		.sleb128 89
 1668 02e2 07        		.uleb128 0x7
 1669 02e3 0000 0000 		.long	.LASF104
 1670 02e7 DA00      		.sleb128 90
 1671 02e9 07        		.uleb128 0x7
 1672 02ea 0000 0000 		.long	.LASF105
 1673 02ee DB00      		.sleb128 91
 1674 02f0 07        		.uleb128 0x7
 1675 02f1 0000 0000 		.long	.LASF106
 1676 02f5 DC00      		.sleb128 92
 1677 02f7 07        		.uleb128 0x7
 1678 02f8 0000 0000 		.long	.LASF107
 1679 02fc DD00      		.sleb128 93
 1680 02fe 07        		.uleb128 0x7
 1681 02ff 0000 0000 		.long	.LASF108
 1682 0303 DE00      		.sleb128 94
 1683 0305 07        		.uleb128 0x7
 1684 0306 0000 0000 		.long	.LASF109
 1685 030a DF00      		.sleb128 95
 1686 030c 07        		.uleb128 0x7
 1687 030d 0000 0000 		.long	.LASF110
 1688 0311 E000      		.sleb128 96
 1689 0313 07        		.uleb128 0x7
 1690 0314 0000 0000 		.long	.LASF111
 1691 0318 E100      		.sleb128 97
 1692 031a 07        		.uleb128 0x7
 1693 031b 0000 0000 		.long	.LASF112
 1694 031f E200      		.sleb128 98
 1695 0321 07        		.uleb128 0x7
 1696 0322 0000 0000 		.long	.LASF113
 1697 0326 E300      		.sleb128 99
 1698 0328 07        		.uleb128 0x7
 1699 0329 0000 0000 		.long	.LASF114
 1700 032d E400      		.sleb128 100
 1701 032f 07        		.uleb128 0x7
 1702 0330 0000 0000 		.long	.LASF115
 1703 0334 E500      		.sleb128 101
 1704 0336 07        		.uleb128 0x7
 1705 0337 0000 0000 		.long	.LASF116
 1706 033b E600      		.sleb128 102
 1707 033d 07        		.uleb128 0x7
 1708 033e 0000 0000 		.long	.LASF117
 1709 0342 E700      		.sleb128 103
 1710 0344 07        		.uleb128 0x7
GAS LISTING C:\Users\21030\AppData\Local\Temp/ccMLudhi.s 			page 31


 1711 0345 0000 0000 		.long	.LASF118
 1712 0349 E800      		.sleb128 104
 1713 034b 07        		.uleb128 0x7
 1714 034c 0000 0000 		.long	.LASF119
 1715 0350 E900      		.sleb128 105
 1716 0352 07        		.uleb128 0x7
 1717 0353 0000 0000 		.long	.LASF120
 1718 0357 EA00      		.sleb128 106
 1719 0359 07        		.uleb128 0x7
 1720 035a 0000 0000 		.long	.LASF121
 1721 035e EB00      		.sleb128 107
 1722 0360 07        		.uleb128 0x7
 1723 0361 0000 0000 		.long	.LASF122
 1724 0365 EC00      		.sleb128 108
 1725 0367 07        		.uleb128 0x7
 1726 0368 0000 0000 		.long	.LASF123
 1727 036c ED00      		.sleb128 109
 1728 036e 07        		.uleb128 0x7
 1729 036f 0000 0000 		.long	.LASF124
 1730 0373 EE00      		.sleb128 110
 1731 0375 07        		.uleb128 0x7
 1732 0376 0000 0000 		.long	.LASF125
 1733 037a EF00      		.sleb128 111
 1734 037c 07        		.uleb128 0x7
 1735 037d 0000 0000 		.long	.LASF126
 1736 0381 F000      		.sleb128 112
 1737 0383 07        		.uleb128 0x7
 1738 0384 0000 0000 		.long	.LASF127
 1739 0388 F100      		.sleb128 113
 1740 038a 07        		.uleb128 0x7
 1741 038b 0000 0000 		.long	.LASF128
 1742 038f F200      		.sleb128 114
 1743 0391 07        		.uleb128 0x7
 1744 0392 0000 0000 		.long	.LASF129
 1745 0396 F300      		.sleb128 115
 1746 0398 07        		.uleb128 0x7
 1747 0399 0000 0000 		.long	.LASF130
 1748 039d F400      		.sleb128 116
 1749 039f 07        		.uleb128 0x7
 1750 03a0 0000 0000 		.long	.LASF131
 1751 03a4 F500      		.sleb128 117
 1752 03a6 07        		.uleb128 0x7
 1753 03a7 0000 0000 		.long	.LASF132
 1754 03ab F600      		.sleb128 118
 1755 03ad 07        		.uleb128 0x7
 1756 03ae 0000 0000 		.long	.LASF133
 1757 03b2 F700      		.sleb128 119
 1758 03b4 07        		.uleb128 0x7
 1759 03b5 0000 0000 		.long	.LASF134
 1760 03b9 F800      		.sleb128 120
 1761 03bb 07        		.uleb128 0x7
 1762 03bc 0000 0000 		.long	.LASF135
 1763 03c0 F900      		.sleb128 121
 1764 03c2 07        		.uleb128 0x7
 1765 03c3 0000 0000 		.long	.LASF136
 1766 03c7 FA00      		.sleb128 122
 1767 03c9 07        		.uleb128 0x7
GAS LISTING C:\Users\21030\AppData\Local\Temp/ccMLudhi.s 			page 32


 1768 03ca 0000 0000 		.long	.LASF137
 1769 03ce FB00      		.sleb128 123
 1770 03d0 07        		.uleb128 0x7
 1771 03d1 0000 0000 		.long	.LASF138
 1772 03d5 FC00      		.sleb128 124
 1773 03d7 07        		.uleb128 0x7
 1774 03d8 0000 0000 		.long	.LASF139
 1775 03dc FD00      		.sleb128 125
 1776 03de 07        		.uleb128 0x7
 1777 03df 0000 0000 		.long	.LASF140
 1778 03e3 FE00      		.sleb128 126
 1779 03e5 07        		.uleb128 0x7
 1780 03e6 0000 0000 		.long	.LASF141
 1781 03ea FF00      		.sleb128 127
 1782 03ec 07        		.uleb128 0x7
 1783 03ed 0000 0000 		.long	.LASF142
 1784 03f1 8001      		.sleb128 128
 1785 03f3 07        		.uleb128 0x7
 1786 03f4 0000 0000 		.long	.LASF143
 1787 03f8 8101      		.sleb128 129
 1788 03fa 07        		.uleb128 0x7
 1789 03fb 0000 0000 		.long	.LASF144
 1790 03ff 8201      		.sleb128 130
 1791 0401 07        		.uleb128 0x7
 1792 0402 0000 0000 		.long	.LASF145
 1793 0406 8301      		.sleb128 131
 1794 0408 07        		.uleb128 0x7
 1795 0409 0000 0000 		.long	.LASF146
 1796 040d 8401      		.sleb128 132
 1797 040f 07        		.uleb128 0x7
 1798 0410 0000 0000 		.long	.LASF147
 1799 0414 8501      		.sleb128 133
 1800 0416 07        		.uleb128 0x7
 1801 0417 0000 0000 		.long	.LASF148
 1802 041b 8601      		.sleb128 134
 1803 041d 07        		.uleb128 0x7
 1804 041e 0000 0000 		.long	.LASF149
 1805 0422 8701      		.sleb128 135
 1806 0424 07        		.uleb128 0x7
 1807 0425 0000 0000 		.long	.LASF150
 1808 0429 8801      		.sleb128 136
 1809 042b 07        		.uleb128 0x7
 1810 042c 0000 0000 		.long	.LASF151
 1811 0430 8901      		.sleb128 137
 1812 0432 07        		.uleb128 0x7
 1813 0433 0000 0000 		.long	.LASF152
 1814 0437 8A01      		.sleb128 138
 1815 0439 07        		.uleb128 0x7
 1816 043a 0000 0000 		.long	.LASF153
 1817 043e 8B01      		.sleb128 139
 1818 0440 07        		.uleb128 0x7
 1819 0441 0000 0000 		.long	.LASF154
 1820 0445 8C01      		.sleb128 140
 1821 0447 07        		.uleb128 0x7
 1822 0448 0000 0000 		.long	.LASF155
 1823 044c 8D01      		.sleb128 141
 1824 044e 07        		.uleb128 0x7
GAS LISTING C:\Users\21030\AppData\Local\Temp/ccMLudhi.s 			page 33


 1825 044f 0000 0000 		.long	.LASF156
 1826 0453 8E01      		.sleb128 142
 1827 0455 07        		.uleb128 0x7
 1828 0456 0000 0000 		.long	.LASF157
 1829 045a 8F01      		.sleb128 143
 1830 045c 07        		.uleb128 0x7
 1831 045d 0000 0000 		.long	.LASF158
 1832 0461 9001      		.sleb128 144
 1833 0463 07        		.uleb128 0x7
 1834 0464 0000 0000 		.long	.LASF159
 1835 0468 9101      		.sleb128 145
 1836 046a 07        		.uleb128 0x7
 1837 046b 0000 0000 		.long	.LASF160
 1838 046f 9201      		.sleb128 146
 1839 0471 07        		.uleb128 0x7
 1840 0472 0000 0000 		.long	.LASF161
 1841 0476 9301      		.sleb128 147
 1842 0478 07        		.uleb128 0x7
 1843 0479 0000 0000 		.long	.LASF162
 1844 047d 9401      		.sleb128 148
 1845 047f 07        		.uleb128 0x7
 1846 0480 0000 0000 		.long	.LASF163
 1847 0484 9501      		.sleb128 149
 1848 0486 07        		.uleb128 0x7
 1849 0487 0000 0000 		.long	.LASF164
 1850 048b 9601      		.sleb128 150
 1851 048d 07        		.uleb128 0x7
 1852 048e 0000 0000 		.long	.LASF165
 1853 0492 9701      		.sleb128 151
 1854 0494 07        		.uleb128 0x7
 1855 0495 0000 0000 		.long	.LASF166
 1856 0499 9801      		.sleb128 152
 1857 049b 07        		.uleb128 0x7
 1858 049c 0000 0000 		.long	.LASF167
 1859 04a0 9901      		.sleb128 153
 1860 04a2 07        		.uleb128 0x7
 1861 04a3 0000 0000 		.long	.LASF168
 1862 04a7 9A01      		.sleb128 154
 1863 04a9 07        		.uleb128 0x7
 1864 04aa 0000 0000 		.long	.LASF169
 1865 04ae 9B01      		.sleb128 155
 1866 04b0 07        		.uleb128 0x7
 1867 04b1 0000 0000 		.long	.LASF170
 1868 04b5 9C01      		.sleb128 156
 1869 04b7 07        		.uleb128 0x7
 1870 04b8 0000 0000 		.long	.LASF171
 1871 04bc 9D01      		.sleb128 157
 1872 04be 07        		.uleb128 0x7
 1873 04bf 0000 0000 		.long	.LASF172
 1874 04c3 9E01      		.sleb128 158
 1875 04c5 07        		.uleb128 0x7
 1876 04c6 0000 0000 		.long	.LASF173
 1877 04ca 9F01      		.sleb128 159
 1878 04cc 07        		.uleb128 0x7
 1879 04cd 0000 0000 		.long	.LASF174
 1880 04d1 A001      		.sleb128 160
 1881 04d3 07        		.uleb128 0x7
GAS LISTING C:\Users\21030\AppData\Local\Temp/ccMLudhi.s 			page 34


 1882 04d4 0000 0000 		.long	.LASF175
 1883 04d8 A101      		.sleb128 161
 1884 04da 07        		.uleb128 0x7
 1885 04db 0000 0000 		.long	.LASF176
 1886 04df A201      		.sleb128 162
 1887 04e1 07        		.uleb128 0x7
 1888 04e2 0000 0000 		.long	.LASF177
 1889 04e6 A301      		.sleb128 163
 1890 04e8 07        		.uleb128 0x7
 1891 04e9 0000 0000 		.long	.LASF178
 1892 04ed A401      		.sleb128 164
 1893 04ef 07        		.uleb128 0x7
 1894 04f0 0000 0000 		.long	.LASF179
 1895 04f4 A501      		.sleb128 165
 1896 04f6 07        		.uleb128 0x7
 1897 04f7 0000 0000 		.long	.LASF180
 1898 04fb A601      		.sleb128 166
 1899 04fd 07        		.uleb128 0x7
 1900 04fe 0000 0000 		.long	.LASF181
 1901 0502 A701      		.sleb128 167
 1902 0504 07        		.uleb128 0x7
 1903 0505 0000 0000 		.long	.LASF182
 1904 0509 A801      		.sleb128 168
 1905 050b 07        		.uleb128 0x7
 1906 050c 0000 0000 		.long	.LASF183
 1907 0510 A901      		.sleb128 169
 1908 0512 07        		.uleb128 0x7
 1909 0513 0000 0000 		.long	.LASF184
 1910 0517 AA01      		.sleb128 170
 1911 0519 00        		.byte	0x0
 1912 051a 06        		.uleb128 0x6
 1913 051b 02        		.byte	0x2
 1914 051c 05        		.byte	0x5
 1915 051d 1B        		.byte	0x1b
 1916 051e 5305 0000 		.long	0x553
 1917 0522 07        		.uleb128 0x7
 1918 0523 0000 0000 		.long	.LASF185
 1919 0527 00        		.sleb128 0
 1920 0528 07        		.uleb128 0x7
 1921 0529 0000 0000 		.long	.LASF186
 1922 052d 01        		.sleb128 1
 1923 052e 07        		.uleb128 0x7
 1924 052f 0000 0000 		.long	.LASF187
 1925 0533 02        		.sleb128 2
 1926 0534 07        		.uleb128 0x7
 1927 0535 0000 0000 		.long	.LASF188
 1928 0539 03        		.sleb128 3
 1929 053a 07        		.uleb128 0x7
 1930 053b 0000 0000 		.long	.LASF189
 1931 053f 04        		.sleb128 4
 1932 0540 07        		.uleb128 0x7
 1933 0541 0000 0000 		.long	.LASF190
 1934 0545 05        		.sleb128 5
 1935 0546 07        		.uleb128 0x7
 1936 0547 0000 0000 		.long	.LASF191
 1937 054b 06        		.sleb128 6
 1938 054c 07        		.uleb128 0x7
GAS LISTING C:\Users\21030\AppData\Local\Temp/ccMLudhi.s 			page 35


 1939 054d 0000 0000 		.long	.LASF192
 1940 0551 07        		.sleb128 7
 1941 0552 00        		.byte	0x0
 1942 0553 04        		.uleb128 0x4
 1943 0554 0000 0000 		.long	.LASF193
 1944 0558 05        		.byte	0x5
 1945 0559 24        		.byte	0x24
 1946 055a 1A05 0000 		.long	0x51a
 1947 055e 05        		.uleb128 0x5
 1948 055f 02        		.byte	0x2
 1949 0560 07        		.byte	0x7
 1950 0561 08        		.uleb128 0x8
 1951 0562 0000 0000 		.long	.LASF194
 1952 0566 02        		.byte	0x2
 1953 0567 68        		.byte	0x68
 1954 0568 01        		.byte	0x1
 1955 0569 03        		.byte	0x3
 1956 056a 7A05 0000 		.long	0x57a
 1957 056e 09        		.uleb128 0x9
 1958 056f 0000 0000 		.long	.LASF196
 1959 0573 02        		.byte	0x2
 1960 0574 67        		.byte	0x67
 1961 0575 8800 0000 		.long	0x88
 1962 0579 00        		.byte	0x0
 1963 057a 08        		.uleb128 0x8
 1964 057b 0000 0000 		.long	.LASF195
 1965 057f 06        		.byte	0x6
 1966 0580 6F        		.byte	0x6f
 1967 0581 01        		.byte	0x1
 1968 0582 03        		.byte	0x3
 1969 0583 AB05 0000 		.long	0x5ab
 1970 0587 09        		.uleb128 0x9
 1971 0588 0000 0000 		.long	.LASF197
 1972 058c 06        		.byte	0x6
 1973 058d 6E        		.byte	0x6e
 1974 058e AB05 0000 		.long	0x5ab
 1975 0592 0A        		.uleb128 0xa
 1976 0593 0000 0000 		.long	.LASF198
 1977 0597 06        		.byte	0x6
 1978 0598 70        		.byte	0x70
 1979 0599 8800 0000 		.long	0x88
 1980 059d 0A        		.uleb128 0xa
 1981 059e 0000 0000 		.long	.LASF199
 1982 05a2 06        		.byte	0x6
 1983 05a3 71        		.byte	0x71
 1984 05a4 AB05 0000 		.long	0x5ab
 1985 05a8 0B        		.uleb128 0xb
 1986 05a9 0B        		.uleb128 0xb
 1987 05aa 00        		.byte	0x0
 1988 05ab 02        		.uleb128 0x2
 1989 05ac 04        		.byte	0x4
 1990 05ad 04        		.byte	0x4
 1991 05ae 0000 0000 		.long	.LASF200
 1992 05b2 08        		.uleb128 0x8
 1993 05b3 0000 0000 		.long	.LASF201
 1994 05b7 02        		.byte	0x2
 1995 05b8 52        		.byte	0x52
GAS LISTING C:\Users\21030\AppData\Local\Temp/ccMLudhi.s 			page 36


 1996 05b9 01        		.byte	0x1
 1997 05ba 03        		.byte	0x3
 1998 05bb CB05 0000 		.long	0x5cb
 1999 05bf 09        		.uleb128 0x9
 2000 05c0 0000 0000 		.long	.LASF196
 2001 05c4 02        		.byte	0x2
 2002 05c5 51        		.byte	0x51
 2003 05c6 7D00 0000 		.long	0x7d
 2004 05ca 00        		.byte	0x0
 2005 05cb 0C        		.uleb128 0xc
 2006 05cc 0000 0000 		.long	.LASF208
 2007 05d0 01        		.byte	0x1
 2008 05d1 2E        		.byte	0x2e
 2009 05d2 01        		.byte	0x1
 2010 05d3 7D00 0000 		.long	0x7d
 2011 05d7 01        		.byte	0x1
 2012 05d8 2106 0000 		.long	0x621
 2013 05dc 0A        		.uleb128 0xa
 2014 05dd 0000 0000 		.long	.LASF202
 2015 05e1 01        		.byte	0x1
 2016 05e2 2F        		.byte	0x2f
 2017 05e3 7D00 0000 		.long	0x7d
 2018 05e7 0D        		.uleb128 0xd
 2019 05e8 636F 6C00 		.string	"col"
 2020 05ec 01        		.byte	0x1
 2021 05ed 30        		.byte	0x30
 2022 05ee 7D00 0000 		.long	0x7d
 2023 05f2 0D        		.uleb128 0xd
 2024 05f3 726F 7700 		.string	"row"
 2025 05f7 01        		.byte	0x1
 2026 05f8 30        		.byte	0x30
 2027 05f9 7D00 0000 		.long	0x7d
 2028 05fd 0A        		.uleb128 0xa
 2029 05fe 0000 0000 		.long	.LASF203
 2030 0602 01        		.byte	0x1
 2031 0603 31        		.byte	0x31
 2032 0604 7D00 0000 		.long	0x7d
 2033 0608 0E        		.uleb128 0xe
 2034 0609 0A        		.uleb128 0xa
 2035 060a 0000 0000 		.long	.LASF204
 2036 060e 01        		.byte	0x1
 2037 060f 37        		.byte	0x37
 2038 0610 8800 0000 		.long	0x88
 2039 0614 0A        		.uleb128 0xa
 2040 0615 0000 0000 		.long	.LASF205
 2041 0619 01        		.byte	0x1
 2042 061a 37        		.byte	0x37
 2043 061b 7D00 0000 		.long	0x7d
 2044 061f 00        		.byte	0x0
 2045 0620 00        		.byte	0x0
 2046 0621 08        		.uleb128 0x8
 2047 0622 0000 0000 		.long	.LASF206
 2048 0626 06        		.byte	0x6
 2049 0627 95        		.byte	0x95
 2050 0628 01        		.byte	0x1
 2051 0629 03        		.byte	0x3
 2052 062a 6A06 0000 		.long	0x66a
GAS LISTING C:\Users\21030\AppData\Local\Temp/ccMLudhi.s 			page 37


 2053 062e 09        		.uleb128 0x9
 2054 062f 0000 0000 		.long	.LASF207
 2055 0633 06        		.byte	0x6
 2056 0634 94        		.byte	0x94
 2057 0635 AB05 0000 		.long	0x5ab
 2058 0639 0A        		.uleb128 0xa
 2059 063a 0000 0000 		.long	.LASF198
 2060 063e 06        		.byte	0x6
 2061 063f 96        		.byte	0x96
 2062 0640 7D00 0000 		.long	0x7d
 2063 0644 0A        		.uleb128 0xa
 2064 0645 0000 0000 		.long	.LASF199
 2065 0649 06        		.byte	0x6
 2066 064a 97        		.byte	0x97
 2067 064b AB05 0000 		.long	0x5ab
 2068 064f 0F        		.uleb128 0xf
 2069 0650 6806 0000 		.long	0x668
 2070 0654 10        		.uleb128 0x10
 2071 0655 8705 0000 		.long	0x587
 2072 0659 0E        		.uleb128 0xe
 2073 065a 11        		.uleb128 0x11
 2074 065b 9205 0000 		.long	0x592
 2075 065f 11        		.uleb128 0x11
 2076 0660 9D05 0000 		.long	0x59d
 2077 0664 0B        		.uleb128 0xb
 2078 0665 0B        		.uleb128 0xb
 2079 0666 00        		.byte	0x0
 2080 0667 00        		.byte	0x0
 2081 0668 0B        		.uleb128 0xb
 2082 0669 00        		.byte	0x0
 2083 066a 0C        		.uleb128 0xc
 2084 066b 0000 0000 		.long	.LASF209
 2085 066f 01        		.byte	0x1
 2086 0670 91        		.byte	0x91
 2087 0671 01        		.byte	0x1
 2088 0672 7D00 0000 		.long	0x7d
 2089 0676 01        		.byte	0x1
 2090 0677 E306 0000 		.long	0x6e3
 2091 067b 0D        		.uleb128 0xd
 2092 067c 636F 6C00 		.string	"col"
 2093 0680 01        		.byte	0x1
 2094 0681 92        		.byte	0x92
 2095 0682 7D00 0000 		.long	0x7d
 2096 0686 0D        		.uleb128 0xd
 2097 0687 726F 7700 		.string	"row"
 2098 068b 01        		.byte	0x1
 2099 068c 92        		.byte	0x92
 2100 068d 7D00 0000 		.long	0x7d
 2101 0691 0A        		.uleb128 0xa
 2102 0692 0000 0000 		.long	.LASF210
 2103 0696 01        		.byte	0x1
 2104 0697 93        		.byte	0x93
 2105 0698 7D00 0000 		.long	0x7d
 2106 069c 0D        		.uleb128 0xd
 2107 069d 6375 7200 		.string	"cur"
 2108 06a1 01        		.byte	0x1
 2109 06a2 93        		.byte	0x93
GAS LISTING C:\Users\21030\AppData\Local\Temp/ccMLudhi.s 			page 38


 2110 06a3 7D00 0000 		.long	0x7d
 2111 06a7 0A        		.uleb128 0xa
 2112 06a8 0000 0000 		.long	.LASF211
 2113 06ac 01        		.byte	0x1
 2114 06ad 94        		.byte	0x94
 2115 06ae 7D00 0000 		.long	0x7d
 2116 06b2 0A        		.uleb128 0xa
 2117 06b3 0000 0000 		.long	.LASF212
 2118 06b7 01        		.byte	0x1
 2119 06b8 95        		.byte	0x95
 2120 06b9 7D00 0000 		.long	0x7d
 2121 06bd 0A        		.uleb128 0xa
 2122 06be 0000 0000 		.long	.LASF213
 2123 06c2 01        		.byte	0x1
 2124 06c3 96        		.byte	0x96
 2125 06c4 7D00 0000 		.long	0x7d
 2126 06c8 0A        		.uleb128 0xa
 2127 06c9 0000 0000 		.long	.LASF214
 2128 06cd 01        		.byte	0x1
 2129 06ce 98        		.byte	0x98
 2130 06cf 7D00 0000 		.long	0x7d
 2131 06d3 0E        		.uleb128 0xe
 2132 06d4 0E        		.uleb128 0xe
 2133 06d5 0F        		.uleb128 0xf
 2134 06d6 DF06 0000 		.long	0x6df
 2135 06da 0E        		.uleb128 0xe
 2136 06db 0B        		.uleb128 0xb
 2137 06dc 0B        		.uleb128 0xb
 2138 06dd 00        		.byte	0x0
 2139 06de 00        		.byte	0x0
 2140 06df 0B        		.uleb128 0xb
 2141 06e0 00        		.byte	0x0
 2142 06e1 00        		.byte	0x0
 2143 06e2 00        		.byte	0x0
 2144 06e3 12        		.uleb128 0x12
 2145 06e4 01        		.byte	0x1
 2146 06e5 0000 0000 		.long	.LASF242
 2147 06e9 01        		.byte	0x1
 2148 06ea 46        		.byte	0x46
 2149 06eb 01        		.byte	0x1
 2150 06ec 0000 0000 		.long	.LFB8
 2151 06f0 0000 0000 		.long	.LFE8
 2152 06f4 02        		.byte	0x2
 2153 06f5 90        		.byte	0x90
 2154 06f6 20        		.uleb128 0x20
 2155 06f7 2A08 0000 		.long	0x82a
 2156 06fb 0D        		.uleb128 0xd
 2157 06fc 6900      		.string	"i"
 2158 06fe 01        		.byte	0x1
 2159 06ff 47        		.byte	0x47
 2160 0700 6B00 0000 		.long	0x6b
 2161 0704 13        		.uleb128 0x13
 2162 0705 0000 0000 		.long	.LASF203
 2163 0709 01        		.byte	0x1
 2164 070a 47        		.byte	0x47
 2165 070b 6B00 0000 		.long	0x6b
 2166 070f 0000 0000 		.long	.LLST1
GAS LISTING C:\Users\21030\AppData\Local\Temp/ccMLudhi.s 			page 39


 2167 0713 14        		.uleb128 0x14
 2168 0714 0000 0000 		.long	.LBB53
 2169 0718 0000 0000 		.long	.LBE53
 2170 071c 3B07 0000 		.long	0x73b
 2171 0720 0A        		.uleb128 0xa
 2172 0721 0000 0000 		.long	.LASF204
 2173 0725 01        		.byte	0x1
 2174 0726 4E        		.byte	0x4e
 2175 0727 8800 0000 		.long	0x88
 2176 072b 13        		.uleb128 0x13
 2177 072c 0000 0000 		.long	.LASF205
 2178 0730 01        		.byte	0x1
 2179 0731 4E        		.byte	0x4e
 2180 0732 7D00 0000 		.long	0x7d
 2181 0736 0000 0000 		.long	.LLST2
 2182 073a 00        		.byte	0x0
 2183 073b 14        		.uleb128 0x14
 2184 073c 0000 0000 		.long	.LBB54
 2185 0740 0000 0000 		.long	.LBE54
 2186 0744 6307 0000 		.long	0x763
 2187 0748 0A        		.uleb128 0xa
 2188 0749 0000 0000 		.long	.LASF204
 2189 074d 01        		.byte	0x1
 2190 074e 50        		.byte	0x50
 2191 074f 8800 0000 		.long	0x88
 2192 0753 13        		.uleb128 0x13
 2193 0754 0000 0000 		.long	.LASF205
 2194 0758 01        		.byte	0x1
 2195 0759 50        		.byte	0x50
 2196 075a 7D00 0000 		.long	0x7d
 2197 075e 0000 0000 		.long	.LLST3
 2198 0762 00        		.byte	0x0
 2199 0763 14        		.uleb128 0x14
 2200 0764 0000 0000 		.long	.LBB55
 2201 0768 0000 0000 		.long	.LBE55
 2202 076c 8B07 0000 		.long	0x78b
 2203 0770 0A        		.uleb128 0xa
 2204 0771 0000 0000 		.long	.LASF204
 2205 0775 01        		.byte	0x1
 2206 0776 52        		.byte	0x52
 2207 0777 8800 0000 		.long	0x88
 2208 077b 13        		.uleb128 0x13
 2209 077c 0000 0000 		.long	.LASF205
 2210 0780 01        		.byte	0x1
 2211 0781 52        		.byte	0x52
 2212 0782 7D00 0000 		.long	0x7d
 2213 0786 0000 0000 		.long	.LLST4
 2214 078a 00        		.byte	0x0
 2215 078b 14        		.uleb128 0x14
 2216 078c 0000 0000 		.long	.LBB56
 2217 0790 0000 0000 		.long	.LBE56
 2218 0794 B307 0000 		.long	0x7b3
 2219 0798 0A        		.uleb128 0xa
 2220 0799 0000 0000 		.long	.LASF204
 2221 079d 01        		.byte	0x1
 2222 079e 54        		.byte	0x54
 2223 079f 8800 0000 		.long	0x88
GAS LISTING C:\Users\21030\AppData\Local\Temp/ccMLudhi.s 			page 40


 2224 07a3 13        		.uleb128 0x13
 2225 07a4 0000 0000 		.long	.LASF205
 2226 07a8 01        		.byte	0x1
 2227 07a9 54        		.byte	0x54
 2228 07aa 7D00 0000 		.long	0x7d
 2229 07ae 0000 0000 		.long	.LLST5
 2230 07b2 00        		.byte	0x0
 2231 07b3 14        		.uleb128 0x14
 2232 07b4 0000 0000 		.long	.LBB57
 2233 07b8 0000 0000 		.long	.LBE57
 2234 07bc DB07 0000 		.long	0x7db
 2235 07c0 0A        		.uleb128 0xa
 2236 07c1 0000 0000 		.long	.LASF204
 2237 07c5 01        		.byte	0x1
 2238 07c6 56        		.byte	0x56
 2239 07c7 8800 0000 		.long	0x88
 2240 07cb 13        		.uleb128 0x13
 2241 07cc 0000 0000 		.long	.LASF205
 2242 07d0 01        		.byte	0x1
 2243 07d1 56        		.byte	0x56
 2244 07d2 7D00 0000 		.long	0x7d
 2245 07d6 0000 0000 		.long	.LLST6
 2246 07da 00        		.byte	0x0
 2247 07db 15        		.uleb128 0x15
 2248 07dc CB05 0000 		.long	0x5cb
 2249 07e0 0000 0000 		.long	.LBB58
 2250 07e4 0000 0000 		.long	.LBE58
 2251 07e8 01        		.byte	0x1
 2252 07e9 5D        		.byte	0x5d
 2253 07ea 16        		.uleb128 0x16
 2254 07eb 0000 0000 		.long	.LBB59
 2255 07ef 0000 0000 		.long	.LBE59
 2256 07f3 17        		.uleb128 0x17
 2257 07f4 DC05 0000 		.long	0x5dc
 2258 07f8 0000 0000 		.long	.LLST7
 2259 07fc 18        		.uleb128 0x18
 2260 07fd E705 0000 		.long	0x5e7
 2261 0801 01        		.byte	0x1
 2262 0802 64        		.byte	0x64
 2263 0803 18        		.uleb128 0x18
 2264 0804 F205 0000 		.long	0x5f2
 2265 0808 01        		.byte	0x1
 2266 0809 69        		.byte	0x69
 2267 080a 11        		.uleb128 0x11
 2268 080b FD05 0000 		.long	0x5fd
 2269 080f 16        		.uleb128 0x16
 2270 0810 0000 0000 		.long	.LBB60
 2271 0814 0000 0000 		.long	.LBE60
 2272 0818 11        		.uleb128 0x11
 2273 0819 0906 0000 		.long	0x609
 2274 081d 17        		.uleb128 0x17
 2275 081e 1406 0000 		.long	0x614
 2276 0822 0000 0000 		.long	.LLST8
 2277 0826 00        		.byte	0x0
 2278 0827 00        		.byte	0x0
 2279 0828 00        		.byte	0x0
 2280 0829 00        		.byte	0x0
GAS LISTING C:\Users\21030\AppData\Local\Temp/ccMLudhi.s 			page 41


 2281 082a 19        		.uleb128 0x19
 2282 082b 01        		.byte	0x1
 2283 082c 0000 0000 		.long	.LASF215
 2284 0830 01        		.byte	0x1
 2285 0831 73        		.byte	0x73
 2286 0832 01        		.byte	0x1
 2287 0833 7D00 0000 		.long	0x7d
 2288 0837 0000 0000 		.long	.LFB10
 2289 083b 0000 0000 		.long	.LFE10
 2290 083f 02        		.byte	0x2
 2291 0840 90        		.byte	0x90
 2292 0841 20        		.uleb128 0x20
 2293 0842 B208 0000 		.long	0x8b2
 2294 0846 1A        		.uleb128 0x1a
 2295 0847 0000 0000 		.long	.LASF217
 2296 084b 01        		.byte	0x1
 2297 084c 72        		.byte	0x72
 2298 084d 7D00 0000 		.long	0x7d
 2299 0851 0000 0000 		.long	.LLST10
 2300 0855 0D        		.uleb128 0xd
 2301 0856 636F 6C00 		.string	"col"
 2302 085a 01        		.byte	0x1
 2303 085b 74        		.byte	0x74
 2304 085c 7D00 0000 		.long	0x7d
 2305 0860 1B        		.uleb128 0x1b
 2306 0861 726F 7700 		.string	"row"
 2307 0865 01        		.byte	0x1
 2308 0866 75        		.byte	0x75
 2309 0867 7D00 0000 		.long	0x7d
 2310 086b 0000 0000 		.long	.LLST11
 2311 086f 1B        		.uleb128 0x1b
 2312 0870 6375 7200 		.string	"cur"
 2313 0874 01        		.byte	0x1
 2314 0875 76        		.byte	0x76
 2315 0876 7D00 0000 		.long	0x7d
 2316 087a 0000 0000 		.long	.LLST12
 2317 087e 15        		.uleb128 0x15
 2318 087f 2106 0000 		.long	0x621
 2319 0883 0000 0000 		.long	.LBB61
 2320 0887 0000 0000 		.long	.LBE61
 2321 088b 01        		.byte	0x1
 2322 088c 7E        		.byte	0x7e
 2323 088d 16        		.uleb128 0x16
 2324 088e 0000 0000 		.long	.LBB62
 2325 0892 0000 0000 		.long	.LBE62
 2326 0896 15        		.uleb128 0x15
 2327 0897 B205 0000 		.long	0x5b2
 2328 089b 0000 0000 		.long	.LBB63
 2329 089f 0000 0000 		.long	.LBE63
 2330 08a3 06        		.byte	0x6
 2331 08a4 A1        		.byte	0xa1
 2332 08a5 1C        		.uleb128 0x1c
 2333 08a6 BF05 0000 		.long	0x5bf
 2334 08aa 0000 0000 		.long	.LLST13
 2335 08ae 00        		.byte	0x0
 2336 08af 00        		.byte	0x0
 2337 08b0 00        		.byte	0x0
GAS LISTING C:\Users\21030\AppData\Local\Temp/ccMLudhi.s 			page 42


 2338 08b1 00        		.byte	0x0
 2339 08b2 19        		.uleb128 0x19
 2340 08b3 01        		.byte	0x1
 2341 08b4 0000 0000 		.long	.LASF216
 2342 08b8 01        		.byte	0x1
 2343 08b9 61        		.byte	0x61
 2344 08ba 01        		.byte	0x1
 2345 08bb 7D00 0000 		.long	0x7d
 2346 08bf 0000 0000 		.long	.LFB9
 2347 08c3 0000 0000 		.long	.LFE9
 2348 08c7 02        		.byte	0x2
 2349 08c8 90        		.byte	0x90
 2350 08c9 20        		.uleb128 0x20
 2351 08ca ED08 0000 		.long	0x8ed
 2352 08ce 1A        		.uleb128 0x1a
 2353 08cf 0000 0000 		.long	.LASF203
 2354 08d3 01        		.byte	0x1
 2355 08d4 60        		.byte	0x60
 2356 08d5 7D00 0000 		.long	0x7d
 2357 08d9 0000 0000 		.long	.LLST15
 2358 08dd 13        		.uleb128 0x13
 2359 08de 0000 0000 		.long	.LASF218
 2360 08e2 01        		.byte	0x1
 2361 08e3 62        		.byte	0x62
 2362 08e4 7D00 0000 		.long	0x7d
 2363 08e8 0000 0000 		.long	.LLST16
 2364 08ec 00        		.byte	0x0
 2365 08ed 19        		.uleb128 0x19
 2366 08ee 01        		.byte	0x1
 2367 08ef 0000 0000 		.long	.LASF219
 2368 08f3 01        		.byte	0x1
 2369 08f4 D7        		.byte	0xd7
 2370 08f5 01        		.byte	0x1
 2371 08f6 7D00 0000 		.long	0x7d
 2372 08fa 0000 0000 		.long	.LFB12
 2373 08fe 0000 0000 		.long	.LFE12
 2374 0902 02        		.byte	0x2
 2375 0903 90        		.byte	0x90
 2376 0904 20        		.uleb128 0x20
 2377 0905 290A 0000 		.long	0xa29
 2378 0909 0D        		.uleb128 0xd
 2379 090a 636F 6C00 		.string	"col"
 2380 090e 01        		.byte	0x1
 2381 090f D8        		.byte	0xd8
 2382 0910 7D00 0000 		.long	0x7d
 2383 0914 0D        		.uleb128 0xd
 2384 0915 726F 7700 		.string	"row"
 2385 0919 01        		.byte	0x1
 2386 091a D8        		.byte	0xd8
 2387 091b 7D00 0000 		.long	0x7d
 2388 091f 13        		.uleb128 0x13
 2389 0920 0000 0000 		.long	.LASF210
 2390 0924 01        		.byte	0x1
 2391 0925 D9        		.byte	0xd9
 2392 0926 7D00 0000 		.long	0x7d
 2393 092a 0000 0000 		.long	.LLST18
 2394 092e 1B        		.uleb128 0x1b
GAS LISTING C:\Users\21030\AppData\Local\Temp/ccMLudhi.s 			page 43


 2395 092f 6375 7200 		.string	"cur"
 2396 0933 01        		.byte	0x1
 2397 0934 D9        		.byte	0xd9
 2398 0935 7D00 0000 		.long	0x7d
 2399 0939 0000 0000 		.long	.LLST19
 2400 093d 0A        		.uleb128 0xa
 2401 093e 0000 0000 		.long	.LASF203
 2402 0942 01        		.byte	0x1
 2403 0943 DA        		.byte	0xda
 2404 0944 7D00 0000 		.long	0x7d
 2405 0948 13        		.uleb128 0x13
 2406 0949 0000 0000 		.long	.LASF214
 2407 094d 01        		.byte	0x1
 2408 094e DB        		.byte	0xdb
 2409 094f 7D00 0000 		.long	0x7d
 2410 0953 0000 0000 		.long	.LLST20
 2411 0957 13        		.uleb128 0x13
 2412 0958 0000 0000 		.long	.LASF218
 2413 095c 01        		.byte	0x1
 2414 095d DC        		.byte	0xdc
 2415 095e 7D00 0000 		.long	0x7d
 2416 0962 0000 0000 		.long	.LLST21
 2417 0966 0A        		.uleb128 0xa
 2418 0967 0000 0000 		.long	.LASF220
 2419 096b 01        		.byte	0x1
 2420 096c DD        		.byte	0xdd
 2421 096d 7D00 0000 		.long	0x7d
 2422 0971 1D        		.uleb128 0x1d
 2423 0972 0000 0000 		.long	.LASF221
 2424 0976 01        		.byte	0x1
 2425 0977 0401      		.word	0x104
 2426 0979 7D00 0000 		.long	0x7d
 2427 097d 0000 0000 		.long	.LLST22
 2428 0981 1E        		.uleb128 0x1e
 2429 0982 6A06 0000 		.long	0x66a
 2430 0986 0000 0000 		.long	.LBB65
 2431 098a 0000 0000 		.long	.LBE65
 2432 098e 01        		.byte	0x1
 2433 098f EA        		.byte	0xea
 2434 0990 020A 0000 		.long	0xa02
 2435 0994 16        		.uleb128 0x16
 2436 0995 0000 0000 		.long	.LBB66
 2437 0999 0000 0000 		.long	.LBE66
 2438 099d 11        		.uleb128 0x11
 2439 099e 7B06 0000 		.long	0x67b
 2440 09a2 17        		.uleb128 0x17
 2441 09a3 8606 0000 		.long	0x686
 2442 09a7 0000 0000 		.long	.LLST23
 2443 09ab 11        		.uleb128 0x11
 2444 09ac 9106 0000 		.long	0x691
 2445 09b0 17        		.uleb128 0x17
 2446 09b1 9C06 0000 		.long	0x69c
 2447 09b5 0000 0000 		.long	.LLST24
 2448 09b9 17        		.uleb128 0x17
 2449 09ba A706 0000 		.long	0x6a7
 2450 09be 0000 0000 		.long	.LLST25
 2451 09c2 17        		.uleb128 0x17
GAS LISTING C:\Users\21030\AppData\Local\Temp/ccMLudhi.s 			page 44


 2452 09c3 B206 0000 		.long	0x6b2
 2453 09c7 0000 0000 		.long	.LLST26
 2454 09cb 17        		.uleb128 0x17
 2455 09cc BD06 0000 		.long	0x6bd
 2456 09d0 0000 0000 		.long	.LLST27
 2457 09d4 11        		.uleb128 0x11
 2458 09d5 C806 0000 		.long	0x6c8
 2459 09d9 1F        		.uleb128 0x1f
 2460 09da 2106 0000 		.long	0x621
 2461 09de 0000 0000 		.long	.Ldebug_ranges0+0x0
 2462 09e2 01        		.byte	0x1
 2463 09e3 AC        		.byte	0xac
 2464 09e4 20        		.uleb128 0x20
 2465 09e5 0000 0000 		.long	.Ldebug_ranges0+0x18
 2466 09e9 1F        		.uleb128 0x1f
 2467 09ea B205 0000 		.long	0x5b2
 2468 09ee 0000 0000 		.long	.Ldebug_ranges0+0x30
 2469 09f2 06        		.byte	0x6
 2470 09f3 A1        		.byte	0xa1
 2471 09f4 1C        		.uleb128 0x1c
 2472 09f5 BF05 0000 		.long	0x5bf
 2473 09f9 0000 0000 		.long	.LLST28
 2474 09fd 00        		.byte	0x0
 2475 09fe 00        		.byte	0x0
 2476 09ff 00        		.byte	0x0
 2477 0a00 00        		.byte	0x0
 2478 0a01 00        		.byte	0x0
 2479 0a02 16        		.uleb128 0x16
 2480 0a03 0000 0000 		.long	.LBB75
 2481 0a07 0000 0000 		.long	.LBE75
 2482 0a0b 21        		.uleb128 0x21
 2483 0a0c 0000 0000 		.long	.LASF204
 2484 0a10 01        		.byte	0x1
 2485 0a11 1101      		.word	0x111
 2486 0a13 8800 0000 		.long	0x88
 2487 0a17 1D        		.uleb128 0x1d
 2488 0a18 0000 0000 		.long	.LASF205
 2489 0a1c 01        		.byte	0x1
 2490 0a1d 1101      		.word	0x111
 2491 0a1f 7D00 0000 		.long	0x7d
 2492 0a23 0000 0000 		.long	.LLST29
 2493 0a27 00        		.byte	0x0
 2494 0a28 00        		.byte	0x0
 2495 0a29 22        		.uleb128 0x22
 2496 0a2a 0000 0000 		.long	.LASF222
 2497 0a2e 01        		.byte	0x1
 2498 0a2f 19        		.byte	0x19
 2499 0a30 350A 0000 		.long	0xa35
 2500 0a34 00        		.byte	0x0
 2501 0a35 23        		.uleb128 0x23
 2502 0a36 7D00 0000 		.long	0x7d
 2503 0a3a 24        		.uleb128 0x24
 2504 0a3b 0000 0000 		.long	.LASF223
 2505 0a3f 01        		.byte	0x1
 2506 0a40 1B        		.byte	0x1b
 2507 0a41 7D00 0000 		.long	0x7d
 2508 0a45 05        		.byte	0x5
GAS LISTING C:\Users\21030\AppData\Local\Temp/ccMLudhi.s 			page 45


 2509 0a46 03        		.byte	0x3
 2510 0a47 0000 0000 		.long	currentKeymap
 2511 0a4b 25        		.uleb128 0x25
 2512 0a4c 7D00 0000 		.long	0x7d
 2513 0a50 560A 0000 		.long	0xa56
 2514 0a54 26        		.uleb128 0x26
 2515 0a55 00        		.byte	0x0
 2516 0a56 27        		.uleb128 0x27
 2517 0a57 0000 0000 		.long	.LASF224
 2518 0a5b 04        		.byte	0x4
 2519 0a5c DA        		.byte	0xda
 2520 0a5d 4B0A 0000 		.long	0xa4b
 2521 0a61 01        		.byte	0x1
 2522 0a62 01        		.byte	0x1
 2523 0a63 27        		.uleb128 0x27
 2524 0a64 0000 0000 		.long	.LASF225
 2525 0a68 04        		.byte	0x4
 2526 0a69 DB        		.byte	0xdb
 2527 0a6a 700A 0000 		.long	0xa70
 2528 0a6e 01        		.byte	0x1
 2529 0a6f 01        		.byte	0x1
 2530 0a70 23        		.uleb128 0x23
 2531 0a71 4B0A 0000 		.long	0xa4b
 2532 0a75 27        		.uleb128 0x27
 2533 0a76 0000 0000 		.long	.LASF226
 2534 0a7a 04        		.byte	0x4
 2535 0a7b DC        		.byte	0xdc
 2536 0a7c 820A 0000 		.long	0xa82
 2537 0a80 01        		.byte	0x1
 2538 0a81 01        		.byte	0x1
 2539 0a82 23        		.uleb128 0x23
 2540 0a83 4B0A 0000 		.long	0xa4b
 2541 0a87 27        		.uleb128 0x27
 2542 0a88 0000 0000 		.long	.LASF227
 2543 0a8c 04        		.byte	0x4
 2544 0a8d DD        		.byte	0xdd
 2545 0a8e 940A 0000 		.long	0xa94
 2546 0a92 01        		.byte	0x1
 2547 0a93 01        		.byte	0x1
 2548 0a94 23        		.uleb128 0x23
 2549 0a95 4B0A 0000 		.long	0xa4b
 2550 0a99 27        		.uleb128 0x27
 2551 0a9a 0000 0000 		.long	.LASF228
 2552 0a9e 04        		.byte	0x4
 2553 0a9f DE        		.byte	0xde
 2554 0aa0 A60A 0000 		.long	0xaa6
 2555 0aa4 01        		.byte	0x1
 2556 0aa5 01        		.byte	0x1
 2557 0aa6 23        		.uleb128 0x23
 2558 0aa7 4B0A 0000 		.long	0xa4b
 2559 0aab 27        		.uleb128 0x27
 2560 0aac 0000 0000 		.long	.LASF229
 2561 0ab0 04        		.byte	0x4
 2562 0ab1 DF        		.byte	0xdf
 2563 0ab2 B80A 0000 		.long	0xab8
 2564 0ab6 01        		.byte	0x1
 2565 0ab7 01        		.byte	0x1
GAS LISTING C:\Users\21030\AppData\Local\Temp/ccMLudhi.s 			page 46


 2566 0ab8 23        		.uleb128 0x23
 2567 0ab9 4B0A 0000 		.long	0xa4b
 2568 0abd 25        		.uleb128 0x25
 2569 0abe 7D00 0000 		.long	0x7d
 2570 0ac2 D90A 0000 		.long	0xad9
 2571 0ac6 28        		.uleb128 0x28
 2572 0ac7 5E05 0000 		.long	0x55e
 2573 0acb 02        		.byte	0x2
 2574 0acc 28        		.uleb128 0x28
 2575 0acd 5E05 0000 		.long	0x55e
 2576 0ad1 0C        		.byte	0xc
 2577 0ad2 28        		.uleb128 0x28
 2578 0ad3 5E05 0000 		.long	0x55e
 2579 0ad7 07        		.byte	0x7
 2580 0ad8 00        		.byte	0x0
 2581 0ad9 27        		.uleb128 0x27
 2582 0ada 0000 0000 		.long	.LASF230
 2583 0ade 04        		.byte	0x4
 2584 0adf E0        		.byte	0xe0
 2585 0ae0 E60A 0000 		.long	0xae6
 2586 0ae4 01        		.byte	0x1
 2587 0ae5 01        		.byte	0x1
 2588 0ae6 23        		.uleb128 0x23
 2589 0ae7 BD0A 0000 		.long	0xabd
 2590 0aeb 27        		.uleb128 0x27
 2591 0aec 0000 0000 		.long	.LASF231
 2592 0af0 01        		.byte	0x1
 2593 0af1 16        		.byte	0x16
 2594 0af2 5305 0000 		.long	0x553
 2595 0af6 01        		.byte	0x1
 2596 0af7 01        		.byte	0x1
 2597 0af8 29        		.uleb128 0x29
 2598 0af9 0000 0000 		.long	.LASF232
 2599 0afd 01        		.byte	0x1
 2600 0afe 14        		.byte	0x14
 2601 0aff 9300 0000 		.long	0x93
 2602 0b03 01        		.byte	0x1
 2603 0b04 05        		.byte	0x5
 2604 0b05 03        		.byte	0x3
 2605 0b06 0000 0000 		.long	scankeycntms
 2606 0b0a 29        		.uleb128 0x29
 2607 0b0b 0000 0000 		.long	.LASF233
 2608 0b0f 01        		.byte	0x1
 2609 0b10 15        		.byte	0x15
 2610 0b11 7D00 0000 		.long	0x7d
 2611 0b15 01        		.byte	0x1
 2612 0b16 05        		.byte	0x5
 2613 0b17 03        		.byte	0x3
 2614 0b18 0000 0000 		.long	kbdsleepmode
 2615 0b1c 25        		.uleb128 0x25
 2616 0b1d 7D00 0000 		.long	0x7d
 2617 0b21 2C0B 0000 		.long	0xb2c
 2618 0b25 28        		.uleb128 0x28
 2619 0b26 5E05 0000 		.long	0x55e
 2620 0b2a 0C        		.byte	0xc
 2621 0b2b 00        		.byte	0x0
 2622 0b2c 29        		.uleb128 0x29
GAS LISTING C:\Users\21030\AppData\Local\Temp/ccMLudhi.s 			page 47


 2623 0b2d 0000 0000 		.long	.LASF234
 2624 0b31 01        		.byte	0x1
 2625 0b32 1F        		.byte	0x1f
 2626 0b33 1C0B 0000 		.long	0xb1c
 2627 0b37 01        		.byte	0x1
 2628 0b38 05        		.byte	0x5
 2629 0b39 03        		.byte	0x3
 2630 0b3a 0000 0000 		.long	MATRIX
 2631 0b3e 29        		.uleb128 0x29
 2632 0b3f 0000 0000 		.long	.LASF235
 2633 0b43 01        		.byte	0x1
 2634 0b44 20        		.byte	0x20
 2635 0b45 1C0B 0000 		.long	0xb1c
 2636 0b49 01        		.byte	0x1
 2637 0b4a 05        		.byte	0x5
 2638 0b4b 03        		.byte	0x3
 2639 0b4c 0000 0000 		.long	curMATRIX
 2640 0b50 25        		.uleb128 0x25
 2641 0b51 7D00 0000 		.long	0x7d
 2642 0b55 660B 0000 		.long	0xb66
 2643 0b59 28        		.uleb128 0x28
 2644 0b5a 5E05 0000 		.long	0x55e
 2645 0b5e 0C        		.byte	0xc
 2646 0b5f 28        		.uleb128 0x28
 2647 0b60 5E05 0000 		.long	0x55e
 2648 0b64 07        		.byte	0x7
 2649 0b65 00        		.byte	0x0
 2650 0b66 29        		.uleb128 0x29
 2651 0b67 0000 0000 		.long	.LASF236
 2652 0b6b 01        		.byte	0x1
 2653 0b6c 21        		.byte	0x21
 2654 0b6d 500B 0000 		.long	0xb50
 2655 0b71 01        		.byte	0x1
 2656 0b72 05        		.byte	0x5
 2657 0b73 03        		.byte	0x3
 2658 0b74 0000 0000 		.long	svkeyidx
 2659 0b78 29        		.uleb128 0x29
 2660 0b79 0000 0000 		.long	.LASF202
 2661 0b7d 01        		.byte	0x1
 2662 0b7e 23        		.byte	0x23
 2663 0b7f 7D00 0000 		.long	0x7d
 2664 0b83 01        		.byte	0x1
 2665 0b84 05        		.byte	0x5
 2666 0b85 03        		.byte	0x3
 2667 0b86 0000 0000 		.long	matrixFN
 2668 0b8a 27        		.uleb128 0x27
 2669 0b8b 0000 0000 		.long	.LASF237
 2670 0b8f 01        		.byte	0x1
 2671 0b90 26        		.byte	0x26
 2672 0b91 7200 0000 		.long	0x72
 2673 0b95 01        		.byte	0x1
 2674 0b96 01        		.byte	0x1
 2675 0b97 29        		.uleb128 0x29
 2676 0b98 0000 0000 		.long	.LASF238
 2677 0b9c 01        		.byte	0x1
 2678 0b9d D3        		.byte	0xd3
 2679 0b9e 7D00 0000 		.long	0x7d
GAS LISTING C:\Users\21030\AppData\Local\Temp/ccMLudhi.s 			page 48


 2680 0ba2 01        		.byte	0x1
 2681 0ba3 05        		.byte	0x5
 2682 0ba4 03        		.byte	0x3
 2683 0ba5 0000 0000 		.long	toggle
 2684 0ba9 00        		.byte	0x0
 2685               		.section	.debug_abbrev
 2686 0000 01        		.uleb128 0x1
 2687 0001 11        		.uleb128 0x11
 2688 0002 01        		.byte	0x1
 2689 0003 25        		.uleb128 0x25
 2690 0004 0E        		.uleb128 0xe
 2691 0005 13        		.uleb128 0x13
 2692 0006 0B        		.uleb128 0xb
 2693 0007 03        		.uleb128 0x3
 2694 0008 0E        		.uleb128 0xe
 2695 0009 1B        		.uleb128 0x1b
 2696 000a 0E        		.uleb128 0xe
 2697 000b 11        		.uleb128 0x11
 2698 000c 01        		.uleb128 0x1
 2699 000d 12        		.uleb128 0x12
 2700 000e 01        		.uleb128 0x1
 2701 000f 10        		.uleb128 0x10
 2702 0010 06        		.uleb128 0x6
 2703 0011 00        		.byte	0x0
 2704 0012 00        		.byte	0x0
 2705 0013 02        		.uleb128 0x2
 2706 0014 24        		.uleb128 0x24
 2707 0015 00        		.byte	0x0
 2708 0016 0B        		.uleb128 0xb
 2709 0017 0B        		.uleb128 0xb
 2710 0018 3E        		.uleb128 0x3e
 2711 0019 0B        		.uleb128 0xb
 2712 001a 03        		.uleb128 0x3
 2713 001b 0E        		.uleb128 0xe
 2714 001c 00        		.byte	0x0
 2715 001d 00        		.byte	0x0
 2716 001e 03        		.uleb128 0x3
 2717 001f 24        		.uleb128 0x24
 2718 0020 00        		.byte	0x0
 2719 0021 0B        		.uleb128 0xb
 2720 0022 0B        		.uleb128 0xb
 2721 0023 3E        		.uleb128 0x3e
 2722 0024 0B        		.uleb128 0xb
 2723 0025 03        		.uleb128 0x3
 2724 0026 08        		.uleb128 0x8
 2725 0027 00        		.byte	0x0
 2726 0028 00        		.byte	0x0
 2727 0029 04        		.uleb128 0x4
 2728 002a 16        		.uleb128 0x16
 2729 002b 00        		.byte	0x0
 2730 002c 03        		.uleb128 0x3
 2731 002d 0E        		.uleb128 0xe
 2732 002e 3A        		.uleb128 0x3a
 2733 002f 0B        		.uleb128 0xb
 2734 0030 3B        		.uleb128 0x3b
 2735 0031 0B        		.uleb128 0xb
 2736 0032 49        		.uleb128 0x49
GAS LISTING C:\Users\21030\AppData\Local\Temp/ccMLudhi.s 			page 49


 2737 0033 13        		.uleb128 0x13
 2738 0034 00        		.byte	0x0
 2739 0035 00        		.byte	0x0
 2740 0036 05        		.uleb128 0x5
 2741 0037 24        		.uleb128 0x24
 2742 0038 00        		.byte	0x0
 2743 0039 0B        		.uleb128 0xb
 2744 003a 0B        		.uleb128 0xb
 2745 003b 3E        		.uleb128 0x3e
 2746 003c 0B        		.uleb128 0xb
 2747 003d 00        		.byte	0x0
 2748 003e 00        		.byte	0x0
 2749 003f 06        		.uleb128 0x6
 2750 0040 04        		.uleb128 0x4
 2751 0041 01        		.byte	0x1
 2752 0042 0B        		.uleb128 0xb
 2753 0043 0B        		.uleb128 0xb
 2754 0044 3A        		.uleb128 0x3a
 2755 0045 0B        		.uleb128 0xb
 2756 0046 3B        		.uleb128 0x3b
 2757 0047 0B        		.uleb128 0xb
 2758 0048 01        		.uleb128 0x1
 2759 0049 13        		.uleb128 0x13
 2760 004a 00        		.byte	0x0
 2761 004b 00        		.byte	0x0
 2762 004c 07        		.uleb128 0x7
 2763 004d 28        		.uleb128 0x28
 2764 004e 00        		.byte	0x0
 2765 004f 03        		.uleb128 0x3
 2766 0050 0E        		.uleb128 0xe
 2767 0051 1C        		.uleb128 0x1c
 2768 0052 0D        		.uleb128 0xd
 2769 0053 00        		.byte	0x0
 2770 0054 00        		.byte	0x0
 2771 0055 08        		.uleb128 0x8
 2772 0056 2E        		.uleb128 0x2e
 2773 0057 01        		.byte	0x1
 2774 0058 03        		.uleb128 0x3
 2775 0059 0E        		.uleb128 0xe
 2776 005a 3A        		.uleb128 0x3a
 2777 005b 0B        		.uleb128 0xb
 2778 005c 3B        		.uleb128 0x3b
 2779 005d 0B        		.uleb128 0xb
 2780 005e 27        		.uleb128 0x27
 2781 005f 0C        		.uleb128 0xc
 2782 0060 20        		.uleb128 0x20
 2783 0061 0B        		.uleb128 0xb
 2784 0062 01        		.uleb128 0x1
 2785 0063 13        		.uleb128 0x13
 2786 0064 00        		.byte	0x0
 2787 0065 00        		.byte	0x0
 2788 0066 09        		.uleb128 0x9
 2789 0067 05        		.uleb128 0x5
 2790 0068 00        		.byte	0x0
 2791 0069 03        		.uleb128 0x3
 2792 006a 0E        		.uleb128 0xe
 2793 006b 3A        		.uleb128 0x3a
GAS LISTING C:\Users\21030\AppData\Local\Temp/ccMLudhi.s 			page 50


 2794 006c 0B        		.uleb128 0xb
 2795 006d 3B        		.uleb128 0x3b
 2796 006e 0B        		.uleb128 0xb
 2797 006f 49        		.uleb128 0x49
 2798 0070 13        		.uleb128 0x13
 2799 0071 00        		.byte	0x0
 2800 0072 00        		.byte	0x0
 2801 0073 0A        		.uleb128 0xa
 2802 0074 34        		.uleb128 0x34
 2803 0075 00        		.byte	0x0
 2804 0076 03        		.uleb128 0x3
 2805 0077 0E        		.uleb128 0xe
 2806 0078 3A        		.uleb128 0x3a
 2807 0079 0B        		.uleb128 0xb
 2808 007a 3B        		.uleb128 0x3b
 2809 007b 0B        		.uleb128 0xb
 2810 007c 49        		.uleb128 0x49
 2811 007d 13        		.uleb128 0x13
 2812 007e 00        		.byte	0x0
 2813 007f 00        		.byte	0x0
 2814 0080 0B        		.uleb128 0xb
 2815 0081 0B        		.uleb128 0xb
 2816 0082 00        		.byte	0x0
 2817 0083 00        		.byte	0x0
 2818 0084 00        		.byte	0x0
 2819 0085 0C        		.uleb128 0xc
 2820 0086 2E        		.uleb128 0x2e
 2821 0087 01        		.byte	0x1
 2822 0088 03        		.uleb128 0x3
 2823 0089 0E        		.uleb128 0xe
 2824 008a 3A        		.uleb128 0x3a
 2825 008b 0B        		.uleb128 0xb
 2826 008c 3B        		.uleb128 0x3b
 2827 008d 0B        		.uleb128 0xb
 2828 008e 27        		.uleb128 0x27
 2829 008f 0C        		.uleb128 0xc
 2830 0090 49        		.uleb128 0x49
 2831 0091 13        		.uleb128 0x13
 2832 0092 20        		.uleb128 0x20
 2833 0093 0B        		.uleb128 0xb
 2834 0094 01        		.uleb128 0x1
 2835 0095 13        		.uleb128 0x13
 2836 0096 00        		.byte	0x0
 2837 0097 00        		.byte	0x0
 2838 0098 0D        		.uleb128 0xd
 2839 0099 34        		.uleb128 0x34
 2840 009a 00        		.byte	0x0
 2841 009b 03        		.uleb128 0x3
 2842 009c 08        		.uleb128 0x8
 2843 009d 3A        		.uleb128 0x3a
 2844 009e 0B        		.uleb128 0xb
 2845 009f 3B        		.uleb128 0x3b
 2846 00a0 0B        		.uleb128 0xb
 2847 00a1 49        		.uleb128 0x49
 2848 00a2 13        		.uleb128 0x13
 2849 00a3 00        		.byte	0x0
 2850 00a4 00        		.byte	0x0
GAS LISTING C:\Users\21030\AppData\Local\Temp/ccMLudhi.s 			page 51


 2851 00a5 0E        		.uleb128 0xe
 2852 00a6 0B        		.uleb128 0xb
 2853 00a7 01        		.byte	0x1
 2854 00a8 00        		.byte	0x0
 2855 00a9 00        		.byte	0x0
 2856 00aa 0F        		.uleb128 0xf
 2857 00ab 0B        		.uleb128 0xb
 2858 00ac 01        		.byte	0x1
 2859 00ad 01        		.uleb128 0x1
 2860 00ae 13        		.uleb128 0x13
 2861 00af 00        		.byte	0x0
 2862 00b0 00        		.byte	0x0
 2863 00b1 10        		.uleb128 0x10
 2864 00b2 05        		.uleb128 0x5
 2865 00b3 00        		.byte	0x0
 2866 00b4 31        		.uleb128 0x31
 2867 00b5 13        		.uleb128 0x13
 2868 00b6 00        		.byte	0x0
 2869 00b7 00        		.byte	0x0
 2870 00b8 11        		.uleb128 0x11
 2871 00b9 34        		.uleb128 0x34
 2872 00ba 00        		.byte	0x0
 2873 00bb 31        		.uleb128 0x31
 2874 00bc 13        		.uleb128 0x13
 2875 00bd 00        		.byte	0x0
 2876 00be 00        		.byte	0x0
 2877 00bf 12        		.uleb128 0x12
 2878 00c0 2E        		.uleb128 0x2e
 2879 00c1 01        		.byte	0x1
 2880 00c2 3F        		.uleb128 0x3f
 2881 00c3 0C        		.uleb128 0xc
 2882 00c4 03        		.uleb128 0x3
 2883 00c5 0E        		.uleb128 0xe
 2884 00c6 3A        		.uleb128 0x3a
 2885 00c7 0B        		.uleb128 0xb
 2886 00c8 3B        		.uleb128 0x3b
 2887 00c9 0B        		.uleb128 0xb
 2888 00ca 27        		.uleb128 0x27
 2889 00cb 0C        		.uleb128 0xc
 2890 00cc 11        		.uleb128 0x11
 2891 00cd 01        		.uleb128 0x1
 2892 00ce 12        		.uleb128 0x12
 2893 00cf 01        		.uleb128 0x1
 2894 00d0 40        		.uleb128 0x40
 2895 00d1 0A        		.uleb128 0xa
 2896 00d2 01        		.uleb128 0x1
 2897 00d3 13        		.uleb128 0x13
 2898 00d4 00        		.byte	0x0
 2899 00d5 00        		.byte	0x0
 2900 00d6 13        		.uleb128 0x13
 2901 00d7 34        		.uleb128 0x34
 2902 00d8 00        		.byte	0x0
 2903 00d9 03        		.uleb128 0x3
 2904 00da 0E        		.uleb128 0xe
 2905 00db 3A        		.uleb128 0x3a
 2906 00dc 0B        		.uleb128 0xb
 2907 00dd 3B        		.uleb128 0x3b
GAS LISTING C:\Users\21030\AppData\Local\Temp/ccMLudhi.s 			page 52


 2908 00de 0B        		.uleb128 0xb
 2909 00df 49        		.uleb128 0x49
 2910 00e0 13        		.uleb128 0x13
 2911 00e1 02        		.uleb128 0x2
 2912 00e2 06        		.uleb128 0x6
 2913 00e3 00        		.byte	0x0
 2914 00e4 00        		.byte	0x0
 2915 00e5 14        		.uleb128 0x14
 2916 00e6 0B        		.uleb128 0xb
 2917 00e7 01        		.byte	0x1
 2918 00e8 11        		.uleb128 0x11
 2919 00e9 01        		.uleb128 0x1
 2920 00ea 12        		.uleb128 0x12
 2921 00eb 01        		.uleb128 0x1
 2922 00ec 01        		.uleb128 0x1
 2923 00ed 13        		.uleb128 0x13
 2924 00ee 00        		.byte	0x0
 2925 00ef 00        		.byte	0x0
 2926 00f0 15        		.uleb128 0x15
 2927 00f1 1D        		.uleb128 0x1d
 2928 00f2 01        		.byte	0x1
 2929 00f3 31        		.uleb128 0x31
 2930 00f4 13        		.uleb128 0x13
 2931 00f5 11        		.uleb128 0x11
 2932 00f6 01        		.uleb128 0x1
 2933 00f7 12        		.uleb128 0x12
 2934 00f8 01        		.uleb128 0x1
 2935 00f9 58        		.uleb128 0x58
 2936 00fa 0B        		.uleb128 0xb
 2937 00fb 59        		.uleb128 0x59
 2938 00fc 0B        		.uleb128 0xb
 2939 00fd 00        		.byte	0x0
 2940 00fe 00        		.byte	0x0
 2941 00ff 16        		.uleb128 0x16
 2942 0100 0B        		.uleb128 0xb
 2943 0101 01        		.byte	0x1
 2944 0102 11        		.uleb128 0x11
 2945 0103 01        		.uleb128 0x1
 2946 0104 12        		.uleb128 0x12
 2947 0105 01        		.uleb128 0x1
 2948 0106 00        		.byte	0x0
 2949 0107 00        		.byte	0x0
 2950 0108 17        		.uleb128 0x17
 2951 0109 34        		.uleb128 0x34
 2952 010a 00        		.byte	0x0
 2953 010b 31        		.uleb128 0x31
 2954 010c 13        		.uleb128 0x13
 2955 010d 02        		.uleb128 0x2
 2956 010e 06        		.uleb128 0x6
 2957 010f 00        		.byte	0x0
 2958 0110 00        		.byte	0x0
 2959 0111 18        		.uleb128 0x18
 2960 0112 34        		.uleb128 0x34
 2961 0113 00        		.byte	0x0
 2962 0114 31        		.uleb128 0x31
 2963 0115 13        		.uleb128 0x13
 2964 0116 02        		.uleb128 0x2
GAS LISTING C:\Users\21030\AppData\Local\Temp/ccMLudhi.s 			page 53


 2965 0117 0A        		.uleb128 0xa
 2966 0118 00        		.byte	0x0
 2967 0119 00        		.byte	0x0
 2968 011a 19        		.uleb128 0x19
 2969 011b 2E        		.uleb128 0x2e
 2970 011c 01        		.byte	0x1
 2971 011d 3F        		.uleb128 0x3f
 2972 011e 0C        		.uleb128 0xc
 2973 011f 03        		.uleb128 0x3
 2974 0120 0E        		.uleb128 0xe
 2975 0121 3A        		.uleb128 0x3a
 2976 0122 0B        		.uleb128 0xb
 2977 0123 3B        		.uleb128 0x3b
 2978 0124 0B        		.uleb128 0xb
 2979 0125 27        		.uleb128 0x27
 2980 0126 0C        		.uleb128 0xc
 2981 0127 49        		.uleb128 0x49
 2982 0128 13        		.uleb128 0x13
 2983 0129 11        		.uleb128 0x11
 2984 012a 01        		.uleb128 0x1
 2985 012b 12        		.uleb128 0x12
 2986 012c 01        		.uleb128 0x1
 2987 012d 40        		.uleb128 0x40
 2988 012e 0A        		.uleb128 0xa
 2989 012f 01        		.uleb128 0x1
 2990 0130 13        		.uleb128 0x13
 2991 0131 00        		.byte	0x0
 2992 0132 00        		.byte	0x0
 2993 0133 1A        		.uleb128 0x1a
 2994 0134 05        		.uleb128 0x5
 2995 0135 00        		.byte	0x0
 2996 0136 03        		.uleb128 0x3
 2997 0137 0E        		.uleb128 0xe
 2998 0138 3A        		.uleb128 0x3a
 2999 0139 0B        		.uleb128 0xb
 3000 013a 3B        		.uleb128 0x3b
 3001 013b 0B        		.uleb128 0xb
 3002 013c 49        		.uleb128 0x49
 3003 013d 13        		.uleb128 0x13
 3004 013e 02        		.uleb128 0x2
 3005 013f 06        		.uleb128 0x6
 3006 0140 00        		.byte	0x0
 3007 0141 00        		.byte	0x0
 3008 0142 1B        		.uleb128 0x1b
 3009 0143 34        		.uleb128 0x34
 3010 0144 00        		.byte	0x0
 3011 0145 03        		.uleb128 0x3
 3012 0146 08        		.uleb128 0x8
 3013 0147 3A        		.uleb128 0x3a
 3014 0148 0B        		.uleb128 0xb
 3015 0149 3B        		.uleb128 0x3b
 3016 014a 0B        		.uleb128 0xb
 3017 014b 49        		.uleb128 0x49
 3018 014c 13        		.uleb128 0x13
 3019 014d 02        		.uleb128 0x2
 3020 014e 06        		.uleb128 0x6
 3021 014f 00        		.byte	0x0
GAS LISTING C:\Users\21030\AppData\Local\Temp/ccMLudhi.s 			page 54


 3022 0150 00        		.byte	0x0
 3023 0151 1C        		.uleb128 0x1c
 3024 0152 05        		.uleb128 0x5
 3025 0153 00        		.byte	0x0
 3026 0154 31        		.uleb128 0x31
 3027 0155 13        		.uleb128 0x13
 3028 0156 02        		.uleb128 0x2
 3029 0157 06        		.uleb128 0x6
 3030 0158 00        		.byte	0x0
 3031 0159 00        		.byte	0x0
 3032 015a 1D        		.uleb128 0x1d
 3033 015b 34        		.uleb128 0x34
 3034 015c 00        		.byte	0x0
 3035 015d 03        		.uleb128 0x3
 3036 015e 0E        		.uleb128 0xe
 3037 015f 3A        		.uleb128 0x3a
 3038 0160 0B        		.uleb128 0xb
 3039 0161 3B        		.uleb128 0x3b
 3040 0162 05        		.uleb128 0x5
 3041 0163 49        		.uleb128 0x49
 3042 0164 13        		.uleb128 0x13
 3043 0165 02        		.uleb128 0x2
 3044 0166 06        		.uleb128 0x6
 3045 0167 00        		.byte	0x0
 3046 0168 00        		.byte	0x0
 3047 0169 1E        		.uleb128 0x1e
 3048 016a 1D        		.uleb128 0x1d
 3049 016b 01        		.byte	0x1
 3050 016c 31        		.uleb128 0x31
 3051 016d 13        		.uleb128 0x13
 3052 016e 11        		.uleb128 0x11
 3053 016f 01        		.uleb128 0x1
 3054 0170 12        		.uleb128 0x12
 3055 0171 01        		.uleb128 0x1
 3056 0172 58        		.uleb128 0x58
 3057 0173 0B        		.uleb128 0xb
 3058 0174 59        		.uleb128 0x59
 3059 0175 0B        		.uleb128 0xb
 3060 0176 01        		.uleb128 0x1
 3061 0177 13        		.uleb128 0x13
 3062 0178 00        		.byte	0x0
 3063 0179 00        		.byte	0x0
 3064 017a 1F        		.uleb128 0x1f
 3065 017b 1D        		.uleb128 0x1d
 3066 017c 01        		.byte	0x1
 3067 017d 31        		.uleb128 0x31
 3068 017e 13        		.uleb128 0x13
 3069 017f 55        		.uleb128 0x55
 3070 0180 06        		.uleb128 0x6
 3071 0181 58        		.uleb128 0x58
 3072 0182 0B        		.uleb128 0xb
 3073 0183 59        		.uleb128 0x59
 3074 0184 0B        		.uleb128 0xb
 3075 0185 00        		.byte	0x0
 3076 0186 00        		.byte	0x0
 3077 0187 20        		.uleb128 0x20
 3078 0188 0B        		.uleb128 0xb
GAS LISTING C:\Users\21030\AppData\Local\Temp/ccMLudhi.s 			page 55


 3079 0189 01        		.byte	0x1
 3080 018a 55        		.uleb128 0x55
 3081 018b 06        		.uleb128 0x6
 3082 018c 00        		.byte	0x0
 3083 018d 00        		.byte	0x0
 3084 018e 21        		.uleb128 0x21
 3085 018f 34        		.uleb128 0x34
 3086 0190 00        		.byte	0x0
 3087 0191 03        		.uleb128 0x3
 3088 0192 0E        		.uleb128 0xe
 3089 0193 3A        		.uleb128 0x3a
 3090 0194 0B        		.uleb128 0xb
 3091 0195 3B        		.uleb128 0x3b
 3092 0196 05        		.uleb128 0x5
 3093 0197 49        		.uleb128 0x49
 3094 0198 13        		.uleb128 0x13
 3095 0199 00        		.byte	0x0
 3096 019a 00        		.byte	0x0
 3097 019b 22        		.uleb128 0x22
 3098 019c 34        		.uleb128 0x34
 3099 019d 00        		.byte	0x0
 3100 019e 03        		.uleb128 0x3
 3101 019f 0E        		.uleb128 0xe
 3102 01a0 3A        		.uleb128 0x3a
 3103 01a1 0B        		.uleb128 0xb
 3104 01a2 3B        		.uleb128 0x3b
 3105 01a3 0B        		.uleb128 0xb
 3106 01a4 49        		.uleb128 0x49
 3107 01a5 13        		.uleb128 0x13
 3108 01a6 1C        		.uleb128 0x1c
 3109 01a7 0B        		.uleb128 0xb
 3110 01a8 00        		.byte	0x0
 3111 01a9 00        		.byte	0x0
 3112 01aa 23        		.uleb128 0x23
 3113 01ab 26        		.uleb128 0x26
 3114 01ac 00        		.byte	0x0
 3115 01ad 49        		.uleb128 0x49
 3116 01ae 13        		.uleb128 0x13
 3117 01af 00        		.byte	0x0
 3118 01b0 00        		.byte	0x0
 3119 01b1 24        		.uleb128 0x24
 3120 01b2 34        		.uleb128 0x34
 3121 01b3 00        		.byte	0x0
 3122 01b4 03        		.uleb128 0x3
 3123 01b5 0E        		.uleb128 0xe
 3124 01b6 3A        		.uleb128 0x3a
 3125 01b7 0B        		.uleb128 0xb
 3126 01b8 3B        		.uleb128 0x3b
 3127 01b9 0B        		.uleb128 0xb
 3128 01ba 49        		.uleb128 0x49
 3129 01bb 13        		.uleb128 0x13
 3130 01bc 02        		.uleb128 0x2
 3131 01bd 0A        		.uleb128 0xa
 3132 01be 00        		.byte	0x0
 3133 01bf 00        		.byte	0x0
 3134 01c0 25        		.uleb128 0x25
 3135 01c1 01        		.uleb128 0x1
GAS LISTING C:\Users\21030\AppData\Local\Temp/ccMLudhi.s 			page 56


 3136 01c2 01        		.byte	0x1
 3137 01c3 49        		.uleb128 0x49
 3138 01c4 13        		.uleb128 0x13
 3139 01c5 01        		.uleb128 0x1
 3140 01c6 13        		.uleb128 0x13
 3141 01c7 00        		.byte	0x0
 3142 01c8 00        		.byte	0x0
 3143 01c9 26        		.uleb128 0x26
 3144 01ca 21        		.uleb128 0x21
 3145 01cb 00        		.byte	0x0
 3146 01cc 00        		.byte	0x0
 3147 01cd 00        		.byte	0x0
 3148 01ce 27        		.uleb128 0x27
 3149 01cf 34        		.uleb128 0x34
 3150 01d0 00        		.byte	0x0
 3151 01d1 03        		.uleb128 0x3
 3152 01d2 0E        		.uleb128 0xe
 3153 01d3 3A        		.uleb128 0x3a
 3154 01d4 0B        		.uleb128 0xb
 3155 01d5 3B        		.uleb128 0x3b
 3156 01d6 0B        		.uleb128 0xb
 3157 01d7 49        		.uleb128 0x49
 3158 01d8 13        		.uleb128 0x13
 3159 01d9 3F        		.uleb128 0x3f
 3160 01da 0C        		.uleb128 0xc
 3161 01db 3C        		.uleb128 0x3c
 3162 01dc 0C        		.uleb128 0xc
 3163 01dd 00        		.byte	0x0
 3164 01de 00        		.byte	0x0
 3165 01df 28        		.uleb128 0x28
 3166 01e0 21        		.uleb128 0x21
 3167 01e1 00        		.byte	0x0
 3168 01e2 49        		.uleb128 0x49
 3169 01e3 13        		.uleb128 0x13
 3170 01e4 2F        		.uleb128 0x2f
 3171 01e5 0B        		.uleb128 0xb
 3172 01e6 00        		.byte	0x0
 3173 01e7 00        		.byte	0x0
 3174 01e8 29        		.uleb128 0x29
 3175 01e9 34        		.uleb128 0x34
 3176 01ea 00        		.byte	0x0
 3177 01eb 03        		.uleb128 0x3
 3178 01ec 0E        		.uleb128 0xe
 3179 01ed 3A        		.uleb128 0x3a
 3180 01ee 0B        		.uleb128 0xb
 3181 01ef 3B        		.uleb128 0x3b
 3182 01f0 0B        		.uleb128 0xb
 3183 01f1 49        		.uleb128 0x49
 3184 01f2 13        		.uleb128 0x13
 3185 01f3 3F        		.uleb128 0x3f
 3186 01f4 0C        		.uleb128 0xc
 3187 01f5 02        		.uleb128 0x2
 3188 01f6 0A        		.uleb128 0xa
 3189 01f7 00        		.byte	0x0
 3190 01f8 00        		.byte	0x0
 3191 01f9 00        		.byte	0x0
 3192               		.section	.debug_pubnames,"",@progbits
GAS LISTING C:\Users\21030\AppData\Local\Temp/ccMLudhi.s 			page 57


 3193 0000 A900 0000 		.long	0xa9
 3194 0004 0200      		.word	0x2
 3195 0006 0000 0000 		.long	.Ldebug_info0
 3196 000a AA0B 0000 		.long	0xbaa
 3197 000e E306 0000 		.long	0x6e3
 3198 0012 6B65 796D 		.string	"keymap_init"
 3198      6170 5F69 
 3198      6E69 7400 
 3199 001e 2A08 0000 		.long	0x82a
 3200 0022 6765 744C 		.string	"getLayer"
 3200      6179 6572 
 3200      00
 3201 002b B208 0000 		.long	0x8b2
 3202 002f 7072 6F63 		.string	"processFNkeys"
 3202      6573 7346 
 3202      4E6B 6579 
 3202      7300 
 3203 003d ED08 0000 		.long	0x8ed
 3204 0041 7363 616E 		.string	"scankey"
 3204      6B65 7900 
 3205 0049 F80A 0000 		.long	0xaf8
 3206 004d 7363 616E 		.string	"scankeycntms"
 3206      6B65 7963 
 3206      6E74 6D73 
 3206      00
 3207 005a 0A0B 0000 		.long	0xb0a
 3208 005e 6B62 6473 		.string	"kbdsleepmode"
 3208      6C65 6570 
 3208      6D6F 6465 
 3208      00
 3209 006b 2C0B 0000 		.long	0xb2c
 3210 006f 4D41 5452 		.string	"MATRIX"
 3210      4958 00
 3211 0076 3E0B 0000 		.long	0xb3e
 3212 007a 6375 724D 		.string	"curMATRIX"
 3212      4154 5249 
 3212      5800 
 3213 0084 660B 0000 		.long	0xb66
 3214 0088 7376 6B65 		.string	"svkeyidx"
 3214      7969 6478 
 3214      00
 3215 0091 780B 0000 		.long	0xb78
 3216 0095 6D61 7472 		.string	"matrixFN"
 3216      6978 464E 
 3216      00
 3217 009e 970B 0000 		.long	0xb97
 3218 00a2 746F 6767 		.string	"toggle"
 3218      6C65 00
 3219 00a9 0000 0000 		.long	0x0
 3220               		.section	.debug_aranges,"",@progbits
 3221 0000 1C00 0000 		.long	0x1c
 3222 0004 0200      		.word	0x2
 3223 0006 0000 0000 		.long	.Ldebug_info0
 3224 000a 04        		.byte	0x4
 3225 000b 00        		.byte	0x0
 3226 000c 0000      		.word	0x0
 3227 000e 0000      		.word	0x0
GAS LISTING C:\Users\21030\AppData\Local\Temp/ccMLudhi.s 			page 58


 3228 0010 0000 0000 		.long	.Ltext0
 3229 0014 0604 0000 		.long	.Letext0-.Ltext0
 3230 0018 0000 0000 		.long	0x0
 3231 001c 0000 0000 		.long	0x0
 3232               		.section	.debug_ranges,"",@progbits
 3233               	.Ldebug_ranges0:
 3234 0000 C601 0000 		.long	.LBB67-.Ltext0
 3235 0004 CA01 0000 		.long	.LBE67-.Ltext0
 3236 0008 EC01 0000 		.long	.LBB74-.Ltext0
 3237 000c F201 0000 		.long	.LBE74-.Ltext0
 3238 0010 0000 0000 		.long	0x0
 3239 0014 0000 0000 		.long	0x0
 3240 0018 C601 0000 		.long	.LBB68-.Ltext0
 3241 001c CA01 0000 		.long	.LBE68-.Ltext0
 3242 0020 EC01 0000 		.long	.LBB73-.Ltext0
 3243 0024 F201 0000 		.long	.LBE73-.Ltext0
 3244 0028 0000 0000 		.long	0x0
 3245 002c 0000 0000 		.long	0x0
 3246 0030 C601 0000 		.long	.LBB69-.Ltext0
 3247 0034 CA01 0000 		.long	.LBE69-.Ltext0
 3248 0038 EC01 0000 		.long	.LBB72-.Ltext0
 3249 003c F201 0000 		.long	.LBE72-.Ltext0
 3250 0040 0000 0000 		.long	0x0
 3251 0044 0000 0000 		.long	0x0
 3252               		.section	.debug_line
 3253 0000 2E04 0000 		.long	.LELT0-.LSLT0
 3254               	.LSLT0:
 3255 0004 0200      		.word	0x2
 3256 0006 C200 0000 		.long	.LELTP0-.LASLTP0
 3257               	.LASLTP0:
 3258 000a 01        		.byte	0x1
 3259 000b 01        		.byte	0x1
 3260 000c F6        		.byte	0xf6
 3261 000d F5        		.byte	0xf5
 3262 000e 0A        		.byte	0xa
 3263 000f 00        		.byte	0x0
 3264 0010 01        		.byte	0x1
 3265 0011 01        		.byte	0x1
 3266 0012 01        		.byte	0x1
 3267 0013 01        		.byte	0x1
 3268 0014 00        		.byte	0x0
 3269 0015 00        		.byte	0x0
 3270 0016 00        		.byte	0x0
 3271 0017 01        		.byte	0x1
 3272 0018 633A 2F77 		.ascii	"c:/winavr-20100110/lib/gcc/../../avr/include"
 3272      696E 6176 
 3272      722D 3230 
 3272      3130 3031 
 3272      3130 2F6C 
 3273 0044 00        		.byte	0
 3274 0045 633A 2F77 		.ascii	"c:/winavr-20100110/lib/gcc/../../avr/include/util"
 3274      696E 6176 
 3274      722D 3230 
 3274      3130 3031 
 3274      3130 2F6C 
 3275 0076 00        		.byte	0
 3276 0077 00        		.byte	0x0
GAS LISTING C:\Users\21030\AppData\Local\Temp/ccMLudhi.s 			page 59


 3277 0078 6D61 7472 		.string	"matrix.c"
 3277      6978 2E63 
 3277      00
 3278 0081 00        		.uleb128 0x0
 3279 0082 00        		.uleb128 0x0
 3280 0083 00        		.uleb128 0x0
 3281 0084 7574 696C 		.string	"util/delay_basic.h"
 3281      2F64 656C 
 3281      6179 5F62 
 3281      6173 6963 
 3281      2E68 00
 3282 0097 01        		.uleb128 0x1
 3283 0098 00        		.uleb128 0x0
 3284 0099 00        		.uleb128 0x0
 3285 009a 7374 6469 		.string	"stdint.h"
 3285      6E74 2E68 
 3285      00
 3286 00a3 01        		.uleb128 0x1
 3287 00a4 00        		.uleb128 0x0
 3288 00a5 00        		.uleb128 0x0
 3289 00a6 6B65 796D 		.string	"keymap.h"
 3289      6170 2E68 
 3289      00
 3290 00af 00        		.uleb128 0x0
 3291 00b0 00        		.uleb128 0x0
 3292 00b1 00        		.uleb128 0x0
 3293 00b2 6C65 642E 		.string	"led.h"
 3293      6800 
 3294 00b8 00        		.uleb128 0x0
 3295 00b9 00        		.uleb128 0x0
 3296 00ba 00        		.uleb128 0x0
 3297 00bb 7574 696C 		.string	"util/delay.h"
 3297      2F64 656C 
 3297      6179 2E68 
 3297      00
 3298 00c8 01        		.uleb128 0x1
 3299 00c9 00        		.uleb128 0x0
 3300 00ca 00        		.uleb128 0x0
 3301 00cb 00        		.byte	0x0
 3302               	.LELTP0:
 3303 00cc 00        		.byte	0x0
 3304 00cd 05        		.uleb128 0x5
 3305 00ce 02        		.byte	0x2
 3306 00cf 0000 0000 		.long	.LM1
 3307 00d3 59        		.byte	0x59
 3308 00d4 00        		.byte	0x0
 3309 00d5 05        		.uleb128 0x5
 3310 00d6 02        		.byte	0x2
 3311 00d7 0000 0000 		.long	.LM2
 3312 00db 01        		.byte	0x1
 3313 00dc 00        		.byte	0x0
 3314 00dd 05        		.uleb128 0x5
 3315 00de 02        		.byte	0x2
 3316 00df 0000 0000 		.long	.LM3
 3317 00e3 19        		.byte	0x19
 3318 00e4 00        		.byte	0x0
 3319 00e5 05        		.uleb128 0x5
GAS LISTING C:\Users\21030\AppData\Local\Temp/ccMLudhi.s 			page 60


 3320 00e6 02        		.byte	0x2
 3321 00e7 0000 0000 		.long	.LM4
 3322 00eb 13        		.byte	0x13
 3323 00ec 00        		.byte	0x0
 3324 00ed 05        		.uleb128 0x5
 3325 00ee 02        		.byte	0x2
 3326 00ef 0000 0000 		.long	.LM5
 3327 00f3 19        		.byte	0x19
 3328 00f4 00        		.byte	0x0
 3329 00f5 05        		.uleb128 0x5
 3330 00f6 02        		.byte	0x2
 3331 00f7 0000 0000 		.long	.LM6
 3332 00fb 13        		.byte	0x13
 3333 00fc 00        		.byte	0x0
 3334 00fd 05        		.uleb128 0x5
 3335 00fe 02        		.byte	0x2
 3336 00ff 0000 0000 		.long	.LM7
 3337 0103 17        		.byte	0x17
 3338 0104 00        		.byte	0x0
 3339 0105 05        		.uleb128 0x5
 3340 0106 02        		.byte	0x2
 3341 0107 0000 0000 		.long	.LM8
 3342 010b 13        		.byte	0x13
 3343 010c 00        		.byte	0x0
 3344 010d 05        		.uleb128 0x5
 3345 010e 02        		.byte	0x2
 3346 010f 0000 0000 		.long	.LM9
 3347 0113 17        		.byte	0x17
 3348 0114 00        		.byte	0x0
 3349 0115 05        		.uleb128 0x5
 3350 0116 02        		.byte	0x2
 3351 0117 0000 0000 		.long	.LM10
 3352 011b 13        		.byte	0x13
 3353 011c 00        		.byte	0x0
 3354 011d 05        		.uleb128 0x5
 3355 011e 02        		.byte	0x2
 3356 011f 0000 0000 		.long	.LM11
 3357 0123 17        		.byte	0x17
 3358 0124 00        		.byte	0x0
 3359 0125 05        		.uleb128 0x5
 3360 0126 02        		.byte	0x2
 3361 0127 0000 0000 		.long	.LM12
 3362 012b 13        		.byte	0x13
 3363 012c 00        		.byte	0x0
 3364 012d 05        		.uleb128 0x5
 3365 012e 02        		.byte	0x2
 3366 012f 0000 0000 		.long	.LM13
 3367 0133 17        		.byte	0x17
 3368 0134 00        		.byte	0x0
 3369 0135 05        		.uleb128 0x5
 3370 0136 02        		.byte	0x2
 3371 0137 0000 0000 		.long	.LM14
 3372 013b 13        		.byte	0x13
 3373 013c 00        		.byte	0x0
 3374 013d 05        		.uleb128 0x5
 3375 013e 02        		.byte	0x2
 3376 013f 0000 0000 		.long	.LM15
GAS LISTING C:\Users\21030\AppData\Local\Temp/ccMLudhi.s 			page 61


 3377 0143 19        		.byte	0x19
 3378 0144 00        		.byte	0x0
 3379 0145 05        		.uleb128 0x5
 3380 0146 02        		.byte	0x2
 3381 0147 0000 0000 		.long	.LM16
 3382 014b 13        		.byte	0x13
 3383 014c 00        		.byte	0x0
 3384 014d 05        		.uleb128 0x5
 3385 014e 02        		.byte	0x2
 3386 014f 0000 0000 		.long	.LM17
 3387 0153 03        		.byte	0x3
 3388 0154 5D        		.sleb128 -35
 3389 0155 01        		.byte	0x1
 3390 0156 00        		.byte	0x0
 3391 0157 05        		.uleb128 0x5
 3392 0158 02        		.byte	0x2
 3393 0159 0000 0000 		.long	.LM18
 3394 015d 17        		.byte	0x17
 3395 015e 00        		.byte	0x0
 3396 015f 05        		.uleb128 0x5
 3397 0160 02        		.byte	0x2
 3398 0161 0000 0000 		.long	.LM19
 3399 0165 16        		.byte	0x16
 3400 0166 00        		.byte	0x0
 3401 0167 05        		.uleb128 0x5
 3402 0168 02        		.byte	0x2
 3403 0169 0000 0000 		.long	.LM20
 3404 016d 0D        		.byte	0xd
 3405 016e 00        		.byte	0x0
 3406 016f 05        		.uleb128 0x5
 3407 0170 02        		.byte	0x2
 3408 0171 0000 0000 		.long	.LM21
 3409 0175 12        		.byte	0x12
 3410 0176 00        		.byte	0x0
 3411 0177 05        		.uleb128 0x5
 3412 0178 02        		.byte	0x2
 3413 0179 0000 0000 		.long	.LM22
 3414 017d 3E        		.byte	0x3e
 3415 017e 00        		.byte	0x0
 3416 017f 05        		.uleb128 0x5
 3417 0180 02        		.byte	0x2
 3418 0181 0000 0000 		.long	.LM23
 3419 0185 15        		.byte	0x15
 3420 0186 00        		.byte	0x0
 3421 0187 05        		.uleb128 0x5
 3422 0188 02        		.byte	0x2
 3423 0189 0000 0000 		.long	.LM24
 3424 018d 29        		.byte	0x29
 3425 018e 00        		.byte	0x0
 3426 018f 05        		.uleb128 0x5
 3427 0190 02        		.byte	0x2
 3428 0191 0000 0000 		.long	.LM25
 3429 0195 1A        		.byte	0x1a
 3430 0196 00        		.byte	0x0
 3431 0197 05        		.uleb128 0x5
 3432 0198 02        		.byte	0x2
 3433 0199 0000 0000 		.long	.LM26
GAS LISTING C:\Users\21030\AppData\Local\Temp/ccMLudhi.s 			page 62


 3434 019d 16        		.byte	0x16
 3435 019e 00        		.byte	0x0
 3436 019f 05        		.uleb128 0x5
 3437 01a0 02        		.byte	0x2
 3438 01a1 0000 0000 		.long	.LM27
 3439 01a5 15        		.byte	0x15
 3440 01a6 00        		.byte	0x0
 3441 01a7 05        		.uleb128 0x5
 3442 01a8 02        		.byte	0x2
 3443 01a9 0000 0000 		.long	.LM28
 3444 01ad 04        		.byte	0x4
 3445 01ae 02        		.uleb128 0x2
 3446 01af 03        		.byte	0x3
 3447 01b0 57        		.sleb128 -41
 3448 01b1 01        		.byte	0x1
 3449 01b2 00        		.byte	0x0
 3450 01b3 05        		.uleb128 0x5
 3451 01b4 02        		.byte	0x2
 3452 01b5 0000 0000 		.long	.LM29
 3453 01b9 04        		.byte	0x4
 3454 01ba 01        		.uleb128 0x1
 3455 01bb 41        		.byte	0x41
 3456 01bc 00        		.byte	0x0
 3457 01bd 05        		.uleb128 0x5
 3458 01be 02        		.byte	0x2
 3459 01bf 0000 0000 		.long	.LM30
 3460 01c3 15        		.byte	0x15
 3461 01c4 00        		.byte	0x0
 3462 01c5 05        		.uleb128 0x5
 3463 01c6 02        		.byte	0x2
 3464 01c7 0000 0000 		.long	.LM31
 3465 01cb 16        		.byte	0x16
 3466 01cc 00        		.byte	0x0
 3467 01cd 05        		.uleb128 0x5
 3468 01ce 02        		.byte	0x2
 3469 01cf 0000 0000 		.long	.LM32
 3470 01d3 15        		.byte	0x15
 3471 01d4 00        		.byte	0x0
 3472 01d5 05        		.uleb128 0x5
 3473 01d6 02        		.byte	0x2
 3474 01d7 0000 0000 		.long	.LM33
 3475 01db 16        		.byte	0x16
 3476 01dc 00        		.byte	0x0
 3477 01dd 05        		.uleb128 0x5
 3478 01de 02        		.byte	0x2
 3479 01df 0000 0000 		.long	.LM34
 3480 01e3 1B        		.byte	0x1b
 3481 01e4 00        		.byte	0x0
 3482 01e5 05        		.uleb128 0x5
 3483 01e6 02        		.byte	0x2
 3484 01e7 0000 0000 		.long	.LM35
 3485 01eb 03        		.byte	0x3
 3486 01ec 54        		.sleb128 -44
 3487 01ed 01        		.byte	0x1
 3488 01ee 00        		.byte	0x0
 3489 01ef 05        		.uleb128 0x5
 3490 01f0 02        		.byte	0x2
GAS LISTING C:\Users\21030\AppData\Local\Temp/ccMLudhi.s 			page 63


 3491 01f1 0000 0000 		.long	.LM36
 3492 01f5 16        		.byte	0x16
 3493 01f6 00        		.byte	0x0
 3494 01f7 05        		.uleb128 0x5
 3495 01f8 02        		.byte	0x2
 3496 01f9 0000 0000 		.long	.LM37
 3497 01fd 15        		.byte	0x15
 3498 01fe 00        		.byte	0x0
 3499 01ff 05        		.uleb128 0x5
 3500 0200 02        		.byte	0x2
 3501 0201 0000 0000 		.long	.LM38
 3502 0205 16        		.byte	0x16
 3503 0206 00        		.byte	0x0
 3504 0207 05        		.uleb128 0x5
 3505 0208 02        		.byte	0x2
 3506 0209 0000 0000 		.long	.LM39
 3507 020d 16        		.byte	0x16
 3508 020e 00        		.byte	0x0
 3509 020f 05        		.uleb128 0x5
 3510 0210 02        		.byte	0x2
 3511 0211 0000 0000 		.long	.LM40
 3512 0215 17        		.byte	0x17
 3513 0216 00        		.byte	0x0
 3514 0217 05        		.uleb128 0x5
 3515 0218 02        		.byte	0x2
 3516 0219 0000 0000 		.long	.LM41
 3517 021d 18        		.byte	0x18
 3518 021e 00        		.byte	0x0
 3519 021f 05        		.uleb128 0x5
 3520 0220 02        		.byte	0x2
 3521 0221 0000 0000 		.long	.LM42
 3522 0225 7C        		.byte	0x7c
 3523 0226 00        		.byte	0x0
 3524 0227 05        		.uleb128 0x5
 3525 0228 02        		.byte	0x2
 3526 0229 0000 0000 		.long	.LM43
 3527 022d 01        		.byte	0x1
 3528 022e 00        		.byte	0x0
 3529 022f 05        		.uleb128 0x5
 3530 0230 02        		.byte	0x2
 3531 0231 0000 0000 		.long	.LM44
 3532 0235 03        		.byte	0x3
 3533 0236 52        		.sleb128 -46
 3534 0237 01        		.byte	0x1
 3535 0238 00        		.byte	0x0
 3536 0239 05        		.uleb128 0x5
 3537 023a 02        		.byte	0x2
 3538 023b 0000 0000 		.long	.LM45
 3539 023f 04        		.byte	0x4
 3540 0240 02        		.uleb128 0x2
 3541 0241 03        		.byte	0x3
 3542 0242 AA7F      		.sleb128 -86
 3543 0244 01        		.byte	0x1
 3544 0245 00        		.byte	0x0
 3545 0246 05        		.uleb128 0x5
 3546 0247 02        		.byte	0x2
 3547 0248 0000 0000 		.long	.LM46
GAS LISTING C:\Users\21030\AppData\Local\Temp/ccMLudhi.s 			page 64


 3548 024c 04        		.byte	0x4
 3549 024d 01        		.uleb128 0x1
 3550 024e 7C        		.byte	0x7c
 3551 024f 00        		.byte	0x0
 3552 0250 05        		.uleb128 0x5
 3553 0251 02        		.byte	0x2
 3554 0252 0000 0000 		.long	.LM47
 3555 0256 12        		.byte	0x12
 3556 0257 00        		.byte	0x0
 3557 0258 05        		.uleb128 0x5
 3558 0259 02        		.byte	0x2
 3559 025a 0000 0000 		.long	.LM48
 3560 025e 03        		.byte	0x3
 3561 025f 70        		.sleb128 -16
 3562 0260 01        		.byte	0x1
 3563 0261 00        		.byte	0x0
 3564 0262 05        		.uleb128 0x5
 3565 0263 02        		.byte	0x2
 3566 0264 0000 0000 		.long	.LM49
 3567 0268 15        		.byte	0x15
 3568 0269 00        		.byte	0x0
 3569 026a 05        		.uleb128 0x5
 3570 026b 02        		.byte	0x2
 3571 026c 0000 0000 		.long	.LM50
 3572 0270 04        		.byte	0x4
 3573 0271 02        		.uleb128 0x2
 3574 0272 03        		.byte	0x3
 3575 0273 A97F      		.sleb128 -87
 3576 0275 01        		.byte	0x1
 3577 0276 00        		.byte	0x0
 3578 0277 05        		.uleb128 0x5
 3579 0278 02        		.byte	0x2
 3580 0279 0000 0000 		.long	.LM51
 3581 027d 04        		.byte	0x4
 3582 027e 01        		.uleb128 0x1
 3583 027f 6F        		.byte	0x6f
 3584 0280 00        		.byte	0x0
 3585 0281 05        		.uleb128 0x5
 3586 0282 02        		.byte	0x2
 3587 0283 0000 0000 		.long	.LM52
 3588 0287 15        		.byte	0x15
 3589 0288 00        		.byte	0x0
 3590 0289 05        		.uleb128 0x5
 3591 028a 02        		.byte	0x2
 3592 028b 0000 0000 		.long	.LM53
 3593 028f 15        		.byte	0x15
 3594 0290 00        		.byte	0x0
 3595 0291 05        		.uleb128 0x5
 3596 0292 02        		.byte	0x2
 3597 0293 0000 0000 		.long	.LM54
 3598 0297 29        		.byte	0x29
 3599 0298 00        		.byte	0x0
 3600 0299 05        		.uleb128 0x5
 3601 029a 02        		.byte	0x2
 3602 029b 0000 0000 		.long	.LM55
 3603 029f 03        		.byte	0x3
 3604 02a0 6B        		.sleb128 -21
GAS LISTING C:\Users\21030\AppData\Local\Temp/ccMLudhi.s 			page 65


 3605 02a1 01        		.byte	0x1
 3606 02a2 00        		.byte	0x0
 3607 02a3 05        		.uleb128 0x5
 3608 02a4 02        		.byte	0x2
 3609 02a5 0000 0000 		.long	.LM56
 3610 02a9 19        		.byte	0x19
 3611 02aa 00        		.byte	0x0
 3612 02ab 05        		.uleb128 0x5
 3613 02ac 02        		.byte	0x2
 3614 02ad 0000 0000 		.long	.LM57
 3615 02b1 15        		.byte	0x15
 3616 02b2 00        		.byte	0x0
 3617 02b3 05        		.uleb128 0x5
 3618 02b4 02        		.byte	0x2
 3619 02b5 0000 0000 		.long	.LM58
 3620 02b9 16        		.byte	0x16
 3621 02ba 00        		.byte	0x0
 3622 02bb 05        		.uleb128 0x5
 3623 02bc 02        		.byte	0x2
 3624 02bd 0000 0000 		.long	.LM59
 3625 02c1 15        		.byte	0x15
 3626 02c2 00        		.byte	0x0
 3627 02c3 05        		.uleb128 0x5
 3628 02c4 02        		.byte	0x2
 3629 02c5 0000 0000 		.long	.LM60
 3630 02c9 16        		.byte	0x16
 3631 02ca 00        		.byte	0x0
 3632 02cb 05        		.uleb128 0x5
 3633 02cc 02        		.byte	0x2
 3634 02cd 0000 0000 		.long	.LM61
 3635 02d1 17        		.byte	0x17
 3636 02d2 00        		.byte	0x0
 3637 02d3 05        		.uleb128 0x5
 3638 02d4 02        		.byte	0x2
 3639 02d5 0000 0000 		.long	.LM62
 3640 02d9 15        		.byte	0x15
 3641 02da 00        		.byte	0x0
 3642 02db 05        		.uleb128 0x5
 3643 02dc 02        		.byte	0x2
 3644 02dd 0000 0000 		.long	.LM63
 3645 02e1 16        		.byte	0x16
 3646 02e2 00        		.byte	0x0
 3647 02e3 05        		.uleb128 0x5
 3648 02e4 02        		.byte	0x2
 3649 02e5 0000 0000 		.long	.LM64
 3650 02e9 16        		.byte	0x16
 3651 02ea 00        		.byte	0x0
 3652 02eb 05        		.uleb128 0x5
 3653 02ec 02        		.byte	0x2
 3654 02ed 0000 0000 		.long	.LM65
 3655 02f1 16        		.byte	0x16
 3656 02f2 00        		.byte	0x0
 3657 02f3 05        		.uleb128 0x5
 3658 02f4 02        		.byte	0x2
 3659 02f5 0000 0000 		.long	.LM66
 3660 02f9 15        		.byte	0x15
 3661 02fa 00        		.byte	0x0
GAS LISTING C:\Users\21030\AppData\Local\Temp/ccMLudhi.s 			page 66


 3662 02fb 05        		.uleb128 0x5
 3663 02fc 02        		.byte	0x2
 3664 02fd 0000 0000 		.long	.LM67
 3665 0301 15        		.byte	0x15
 3666 0302 00        		.byte	0x0
 3667 0303 05        		.uleb128 0x5
 3668 0304 02        		.byte	0x2
 3669 0305 0000 0000 		.long	.LM68
 3670 0309 16        		.byte	0x16
 3671 030a 00        		.byte	0x0
 3672 030b 05        		.uleb128 0x5
 3673 030c 02        		.byte	0x2
 3674 030d 0000 0000 		.long	.LM69
 3675 0311 15        		.byte	0x15
 3676 0312 00        		.byte	0x0
 3677 0313 05        		.uleb128 0x5
 3678 0314 02        		.byte	0x2
 3679 0315 0000 0000 		.long	.LM70
 3680 0319 03        		.byte	0x3
 3681 031a 69        		.sleb128 -23
 3682 031b 01        		.byte	0x1
 3683 031c 00        		.byte	0x0
 3684 031d 05        		.uleb128 0x5
 3685 031e 02        		.byte	0x2
 3686 031f 0000 0000 		.long	.LM71
 3687 0323 03        		.byte	0x3
 3688 0324 73        		.sleb128 -13
 3689 0325 01        		.byte	0x1
 3690 0326 00        		.byte	0x0
 3691 0327 05        		.uleb128 0x5
 3692 0328 02        		.byte	0x2
 3693 0329 0000 0000 		.long	.LM72
 3694 032d 5E        		.byte	0x5e
 3695 032e 00        		.byte	0x0
 3696 032f 05        		.uleb128 0x5
 3697 0330 02        		.byte	0x2
 3698 0331 0000 0000 		.long	.LM73
 3699 0335 17        		.byte	0x17
 3700 0336 00        		.byte	0x0
 3701 0337 05        		.uleb128 0x5
 3702 0338 02        		.byte	0x2
 3703 0339 0000 0000 		.long	.LM74
 3704 033d 18        		.byte	0x18
 3705 033e 00        		.byte	0x0
 3706 033f 05        		.uleb128 0x5
 3707 0340 02        		.byte	0x2
 3708 0341 0000 0000 		.long	.LM75
 3709 0345 20        		.byte	0x20
 3710 0346 00        		.byte	0x0
 3711 0347 05        		.uleb128 0x5
 3712 0348 02        		.byte	0x2
 3713 0349 0000 0000 		.long	.LM76
 3714 034d 15        		.byte	0x15
 3715 034e 00        		.byte	0x0
 3716 034f 05        		.uleb128 0x5
 3717 0350 02        		.byte	0x2
 3718 0351 0000 0000 		.long	.LM77
GAS LISTING C:\Users\21030\AppData\Local\Temp/ccMLudhi.s 			page 67


 3719 0355 1F        		.byte	0x1f
 3720 0356 00        		.byte	0x0
 3721 0357 05        		.uleb128 0x5
 3722 0358 02        		.byte	0x2
 3723 0359 0000 0000 		.long	.LM78
 3724 035d 15        		.byte	0x15
 3725 035e 00        		.byte	0x0
 3726 035f 05        		.uleb128 0x5
 3727 0360 02        		.byte	0x2
 3728 0361 0000 0000 		.long	.LM79
 3729 0365 15        		.byte	0x15
 3730 0366 00        		.byte	0x0
 3731 0367 05        		.uleb128 0x5
 3732 0368 02        		.byte	0x2
 3733 0369 0000 0000 		.long	.LM80
 3734 036d 15        		.byte	0x15
 3735 036e 00        		.byte	0x0
 3736 036f 05        		.uleb128 0x5
 3737 0370 02        		.byte	0x2
 3738 0371 0000 0000 		.long	.LM81
 3739 0375 11        		.byte	0x11
 3740 0376 00        		.byte	0x0
 3741 0377 05        		.uleb128 0x5
 3742 0378 02        		.byte	0x2
 3743 0379 0000 0000 		.long	.LM82
 3744 037d 15        		.byte	0x15
 3745 037e 00        		.byte	0x0
 3746 037f 05        		.uleb128 0x5
 3747 0380 02        		.byte	0x2
 3748 0381 0000 0000 		.long	.LM83
 3749 0385 1B        		.byte	0x1b
 3750 0386 00        		.byte	0x0
 3751 0387 05        		.uleb128 0x5
 3752 0388 02        		.byte	0x2
 3753 0389 0000 0000 		.long	.LM84
 3754 038d 16        		.byte	0x16
 3755 038e 00        		.byte	0x0
 3756 038f 05        		.uleb128 0x5
 3757 0390 02        		.byte	0x2
 3758 0391 0000 0000 		.long	.LM85
 3759 0395 17        		.byte	0x17
 3760 0396 00        		.byte	0x0
 3761 0397 05        		.uleb128 0x5
 3762 0398 02        		.byte	0x2
 3763 0399 0000 0000 		.long	.LM86
 3764 039d 16        		.byte	0x16
 3765 039e 00        		.byte	0x0
 3766 039f 05        		.uleb128 0x5
 3767 03a0 02        		.byte	0x2
 3768 03a1 0000 0000 		.long	.LM87
 3769 03a5 18        		.byte	0x18
 3770 03a6 00        		.byte	0x0
 3771 03a7 05        		.uleb128 0x5
 3772 03a8 02        		.byte	0x2
 3773 03a9 0000 0000 		.long	.LM88
 3774 03ad 16        		.byte	0x16
 3775 03ae 00        		.byte	0x0
GAS LISTING C:\Users\21030\AppData\Local\Temp/ccMLudhi.s 			page 68


 3776 03af 05        		.uleb128 0x5
 3777 03b0 02        		.byte	0x2
 3778 03b1 0000 0000 		.long	.LM89
 3779 03b5 16        		.byte	0x16
 3780 03b6 00        		.byte	0x0
 3781 03b7 05        		.uleb128 0x5
 3782 03b8 02        		.byte	0x2
 3783 03b9 0000 0000 		.long	.LM90
 3784 03bd 18        		.byte	0x18
 3785 03be 00        		.byte	0x0
 3786 03bf 05        		.uleb128 0x5
 3787 03c0 02        		.byte	0x2
 3788 03c1 0000 0000 		.long	.LM91
 3789 03c5 16        		.byte	0x16
 3790 03c6 00        		.byte	0x0
 3791 03c7 05        		.uleb128 0x5
 3792 03c8 02        		.byte	0x2
 3793 03c9 0000 0000 		.long	.LM92
 3794 03cd 15        		.byte	0x15
 3795 03ce 00        		.byte	0x0
 3796 03cf 05        		.uleb128 0x5
 3797 03d0 02        		.byte	0x2
 3798 03d1 0000 0000 		.long	.LM93
 3799 03d5 16        		.byte	0x16
 3800 03d6 00        		.byte	0x0
 3801 03d7 05        		.uleb128 0x5
 3802 03d8 02        		.byte	0x2
 3803 03d9 0000 0000 		.long	.LM94
 3804 03dd 16        		.byte	0x16
 3805 03de 00        		.byte	0x0
 3806 03df 05        		.uleb128 0x5
 3807 03e0 02        		.byte	0x2
 3808 03e1 0000 0000 		.long	.LM95
 3809 03e5 15        		.byte	0x15
 3810 03e6 00        		.byte	0x0
 3811 03e7 05        		.uleb128 0x5
 3812 03e8 02        		.byte	0x2
 3813 03e9 0000 0000 		.long	.LM96
 3814 03ed 03        		.byte	0x3
 3815 03ee 5B        		.sleb128 -37
 3816 03ef 01        		.byte	0x1
 3817 03f0 00        		.byte	0x0
 3818 03f1 05        		.uleb128 0x5
 3819 03f2 02        		.byte	0x2
 3820 03f3 0000 0000 		.long	.LM97
 3821 03f7 12        		.byte	0x12
 3822 03f8 00        		.byte	0x0
 3823 03f9 05        		.uleb128 0x5
 3824 03fa 02        		.byte	0x2
 3825 03fb 0000 0000 		.long	.LM98
 3826 03ff 18        		.byte	0x18
 3827 0400 00        		.byte	0x0
 3828 0401 05        		.uleb128 0x5
 3829 0402 02        		.byte	0x2
 3830 0403 0000 0000 		.long	.LM99
 3831 0407 3E        		.byte	0x3e
 3832 0408 00        		.byte	0x0
GAS LISTING C:\Users\21030\AppData\Local\Temp/ccMLudhi.s 			page 69


 3833 0409 05        		.uleb128 0x5
 3834 040a 02        		.byte	0x2
 3835 040b 0000 0000 		.long	.LM100
 3836 040f 13        		.byte	0x13
 3837 0410 00        		.byte	0x0
 3838 0411 05        		.uleb128 0x5
 3839 0412 02        		.byte	0x2
 3840 0413 0000 0000 		.long	.LM101
 3841 0417 16        		.byte	0x16
 3842 0418 00        		.byte	0x0
 3843 0419 05        		.uleb128 0x5
 3844 041a 02        		.byte	0x2
 3845 041b 0000 0000 		.long	.LM102
 3846 041f 16        		.byte	0x16
 3847 0420 00        		.byte	0x0
 3848 0421 05        		.uleb128 0x5
 3849 0422 02        		.byte	0x2
 3850 0423 0000 0000 		.long	.LM103
 3851 0427 16        		.byte	0x16
 3852 0428 00        		.byte	0x0
 3853 0429 05        		.uleb128 0x5
 3854 042a 02        		.byte	0x2
 3855 042b 0000 0000 		.long	.Letext0
 3856 042f 00        		.byte	0x0
 3857 0430 01        		.uleb128 0x1
 3858 0431 01        		.byte	0x1
 3859               	.LELT0:
 3860 0432 1600 0000 		.section	.debug_str,"MS",@progbits,1
 3860      0200 1000 
 3860      0000 0101 
 3860      FB0E 0A00 
 3860      0101 0101 
 3861               	.LASF149:
 3862 0000 4B45 595F 		.string	"KEY_LSHIFT"
 3862      4C53 4849 
 3862      4654 00
 3863               	.LASF210:
 3864 000b 7072 6576 		.string	"prev"
 3864      00
 3865               	.LASF145:
 3866 0010 4B45 595F 		.string	"KEY_KL_NUM"
 3866      4B4C 5F4E 
 3866      554D 00
 3867               	.LASF218:
 3868 001b 7265 7456 		.string	"retVal"
 3868      616C 00
 3869               	.LASF70:
 3870 0022 4B45 595F 		.string	"KEY_SLASH"
 3870      534C 4153 
 3870      4800 
 3871               	.LASF173:
 3872 002c 4B45 595F 		.string	"KEY_PLAY"
 3872      504C 4159 
 3872      00
 3873               	.LASF97:
 3874 0035 4B45 595F 		.string	"KEY_NUMLOCK"
 3874      4E55 4D4C 
GAS LISTING C:\Users\21030\AppData\Local\Temp/ccMLudhi.s 			page 70


 3874      4F43 4B00 
 3875               	.LASF181:
 3876 0041 4B45 595F 		.string	"KEY_REC"
 3876      5245 4300 
 3877               	.LASF230:
 3878 0049 6B65 796D 		.string	"keymap_code"
 3878      6170 5F63 
 3878      6F64 6500 
 3879               	.LASF153:
 3880 0055 4B45 595F 		.string	"KEY_RSHIFT"
 3880      5253 4849 
 3880      4654 00
 3881               	.LASF148:
 3882 0060 4B45 595F 		.string	"KEY_LCTRL"
 3882      4C43 5452 
 3882      4C00 
 3883               	.LASF81:
 3884 006a 4B45 595F 		.string	"KEY_F10"
 3884      4631 3000 
 3885               	.LASF82:
 3886 0072 4B45 595F 		.string	"KEY_F11"
 3886      4631 3100 
 3887               	.LASF83:
 3888 007a 4B45 595F 		.string	"KEY_F12"
 3888      4631 3200 
 3889               	.LASF118:
 3890 0082 4B45 595F 		.string	"KEY_F13"
 3890      4631 3300 
 3891               	.LASF119:
 3892 008a 4B45 595F 		.string	"KEY_F14"
 3892      4631 3400 
 3893               	.LASF120:
 3894 0092 4B45 595F 		.string	"KEY_F15"
 3894      4631 3500 
 3895               	.LASF121:
 3896 009a 4B45 595F 		.string	"KEY_F16"
 3896      4631 3600 
 3897               	.LASF122:
 3898 00a2 4B45 595F 		.string	"KEY_F17"
 3898      4631 3700 
 3899               	.LASF123:
 3900 00aa 4B45 595F 		.string	"KEY_F18"
 3900      4631 3800 
 3901               	.LASF113:
 3902 00b2 4B45 595F 		.string	"KEY_KP_DOT"
 3902      4B50 5F44 
 3902      4F54 00
 3903               	.LASF172:
 3904 00bd 4B45 595F 		.string	"KEY_STOP"
 3904      5354 4F50 
 3904      00
 3905               	.LASF228:
 3906 00c6 6B65 7963 		.string	"keycode_set2_extend"
 3906      6F64 655F 
 3906      7365 7432 
 3906      5F65 7874 
 3906      656E 6400 
GAS LISTING C:\Users\21030\AppData\Local\Temp/ccMLudhi.s 			page 71


 3907               	.LASF241:
 3908 00da 433A 5C55 		.string	"C:\\Users\\21030\\Documents\\GitHub\\mx1830\\source"
 3908      7365 7273 
 3908      5C32 3130 
 3908      3330 5C44 
 3908      6F63 756D 
 3909               	.LASF91:
 3910 0108 4B45 595F 		.string	"KEY_END"
 3910      454E 4400 
 3911               	.LASF6:
 3912 0110 6C6F 6E67 		.string	"long long unsigned int"
 3912      206C 6F6E 
 3912      6720 756E 
 3912      7369 676E 
 3912      6564 2069 
 3913               	.LASF206:
 3914 0127 5F64 656C 		.string	"_delay_us"
 3914      6179 5F75 
 3914      7300 
 3915               	.LASF56:
 3916 0131 4B45 595F 		.string	"KEY_BKSP"
 3916      424B 5350 
 3916      00
 3917               	.LASF90:
 3918 013a 4B45 595F 		.string	"KEY_DEL"
 3918      4445 4C00 
 3919               	.LASF232:
 3920 0142 7363 616E 		.string	"scankeycntms"
 3920      6B65 7963 
 3920      6E74 6D73 
 3920      00
 3921               	.LASF171:
 3922 014f 4B45 595F 		.string	"KEY_PREV_TRK"
 3922      5052 4556 
 3922      5F54 524B 
 3922      00
 3923               	.LASF65:
 3924 015c 4B45 595F 		.string	"KEY_COLON"
 3924      434F 4C4F 
 3924      4E00 
 3925               	.LASF212:
 3926 0166 7650 696E 		.string	"vPinC"
 3926      4300 
 3927               	.LASF213:
 3928 016c 7650 696E 		.string	"vPinD"
 3928      4400 
 3929               	.LASF159:
 3930 0172 4B45 595F 		.string	"KEY_POWER"
 3930      504F 5745 
 3930      5200 
 3931               	.LASF177:
 3932 017c 4B45 595F 		.string	"KEY_MEDIA"
 3932      4D45 4449 
 3932      4100 
 3933               	.LASF7:
 3934 0186 6C6F 6E67 		.string	"long long int"
 3934      206C 6F6E 
GAS LISTING C:\Users\21030\AppData\Local\Temp/ccMLudhi.s 			page 72


 3934      6720 696E 
 3934      7400 
 3935               	.LASF1:
 3936 0194 7369 676E 		.string	"signed char"
 3936      6564 2063 
 3936      6861 7200 
 3937               	.LASF100:
 3938 01a0 4B45 595F 		.string	"KEY_KP_MINUS"
 3938      4B50 5F4D 
 3938      494E 5553 
 3938      00
 3939               	.LASF225:
 3940 01ad 6B65 7963 		.string	"keycode_set2_special"
 3940      6F64 655F 
 3940      7365 7432 
 3940      5F73 7065 
 3940      6369 616C 
 3941               	.LASF175:
 3942 01c2 4B45 595F 		.string	"KEY_VOL_UP"
 3942      564F 4C5F 
 3942      5550 00
 3943               	.LASF208:
 3944 01cd 6669 6E64 		.string	"findFNkey"
 3944      464E 6B65 
 3944      7900 
 3945               	.LASF130:
 3946 01d7 4B45 595F 		.string	"KEY_EXECUTE"
 3946      4558 4543 
 3946      5554 4500 
 3947               	.LASF125:
 3948 01e3 4B45 595F 		.string	"KEY_F20"
 3948      4632 3000 
 3949               	.LASF126:
 3950 01eb 4B45 595F 		.string	"KEY_F21"
 3950      4632 3100 
 3951               	.LASF62:
 3952 01f3 4B45 595F 		.string	"KEY_RBR"
 3952      5242 5200 
 3953               	.LASF128:
 3954 01fb 4B45 595F 		.string	"KEY_F23"
 3954      4632 3300 
 3955               	.LASF129:
 3956 0203 4B45 595F 		.string	"KEY_F24"
 3956      4632 3400 
 3957               	.LASF5:
 3958 020b 6C6F 6E67 		.string	"long int"
 3958      2069 6E74 
 3958      00
 3959               	.LASF165:
 3960 0214 4B45 595F 		.string	"KEY_WWW_BACK"
 3960      5757 575F 
 3960      4241 434B 
 3960      00
 3961               	.LASF64:
 3962 0221 4B45 595F 		.string	"KEY_Europe1"
 3962      4575 726F 
 3962      7065 3100 
GAS LISTING C:\Users\21030\AppData\Local\Temp/ccMLudhi.s 			page 73


 3963               	.LASF114:
 3964 022d 4B45 595F 		.string	"KEY_Europe2"
 3964      4575 726F 
 3964      7065 3200 
 3965               	.LASF98:
 3966 0239 4B45 595F 		.string	"KEY_KP_SLASH"
 3966      4B50 5F53 
 3966      4C41 5348 
 3966      00
 3967               	.LASF93:
 3968 0246 4B45 595F 		.string	"KEY_RIGHT"
 3968      5249 4748 
 3968      5400 
 3969               	.LASF139:
 3970 0250 4B45 595F 		.string	"KEY_PASTE"
 3970      5041 5354 
 3970      4500 
 3971               	.LASF223:
 3972 025a 6375 7272 		.string	"currentKeymap"
 3972      656E 744B 
 3972      6579 6D61 
 3972      7000 
 3973               	.LASF67:
 3974 0268 4B45 595F 		.string	"KEY_HASH"
 3974      4841 5348 
 3974      00
 3975               	.LASF154:
 3976 0271 4B45 595F 		.string	"KEY_RALT"
 3976      5241 4C54 
 3976      00
 3977               	.LASF12:
 3978 027a 7569 6E74 		.string	"uint16_t"
 3978      3136 5F74 
 3978      00
 3979               	.LASF200:
 3980 0283 646F 7562 		.string	"double"
 3980      6C65 00
 3981               	.LASF168:
 3982 028a 4B45 595F 		.string	"KEY_WWW_REFRESH"
 3982      5757 575F 
 3982      5245 4652 
 3982      4553 4800 
 3983               	.LASF146:
 3984 029a 4B45 595F 		.string	"KEY_KL_SCL"
 3984      4B4C 5F53 
 3984      434C 00
 3985               	.LASF205:
 3986 02a5 5F5F 7265 		.string	"__result"
 3986      7375 6C74 
 3986      00
 3987               	.LASF185:
 3988 02ae 4C45 445F 		.string	"LED_FADING"
 3988      4641 4449 
 3988      4E47 00
 3989               	.LASF61:
 3990 02b9 4B45 595F 		.string	"KEY_LBR"
 3990      4C42 5200 
GAS LISTING C:\Users\21030\AppData\Local\Temp/ccMLudhi.s 			page 74


 3991               	.LASF216:
 3992 02c1 7072 6F63 		.string	"processFNkeys"
 3992      6573 7346 
 3992      4E6B 6579 
 3992      7300 
 3993               	.LASF87:
 3994 02cf 4B45 595F 		.string	"KEY_INSERT"
 3994      494E 5345 
 3994      5254 00
 3995               	.LASF234:
 3996 02da 4D41 5452 		.string	"MATRIX"
 3996      4958 00
 3997               	.LASF199:
 3998 02e1 5F5F 746D 		.string	"__tmp"
 3998      7000 
 3999               	.LASF239:
 4000 02e7 474E 5520 		.string	"GNU C 4.3.3"
 4000      4320 342E 
 4000      332E 3300 
 4001               	.LASF84:
 4002 02f3 4B45 595F 		.string	"KEY_PRNSCR"
 4002      5052 4E53 
 4002      4352 00
 4003               	.LASF92:
 4004 02fe 4B45 595F 		.string	"KEY_PGDN"
 4004      5047 444E 
 4004      00
 4005               	.LASF155:
 4006 0307 4B45 595F 		.string	"KEY_RGUI"
 4006      5247 5549 
 4006      00
 4007               	.LASF164:
 4008 0310 4B45 595F 		.string	"KEY_WWW_HOME"
 4008      5757 575F 
 4008      484F 4D45 
 4008      00
 4009               	.LASF16:
 4010 031d 504F 5354 		.string	"POSTFail"
 4010      4661 696C 
 4010      00
 4011               	.LASF190:
 4012 0326 4C45 445F 		.string	"LED_ALWASY"
 4012      414C 5741 
 4012      5359 00
 4013               	.LASF132:
 4014 0331 4B45 595F 		.string	"KEY_MENU"
 4014      4D45 4E55 
 4014      00
 4015               	.LASF8:
 4016 033a 756E 7369 		.string	"unsigned int"
 4016      676E 6564 
 4016      2069 6E74 
 4016      00
 4017               	.LASF193:
 4018 0347 4C45 445F 		.string	"LED_MODE"
 4018      4D4F 4445 
 4018      00
GAS LISTING C:\Users\21030\AppData\Local\Temp/ccMLudhi.s 			page 75


 4019               	.LASF238:
 4020 0350 746F 6767 		.string	"toggle"
 4020      6C65 00
 4021               	.LASF140:
 4022 0357 4B45 595F 		.string	"KEY_FIND"
 4022      4649 4E44 
 4022      00
 4023               	.LASF201:
 4024 0360 5F64 656C 		.string	"_delay_loop_1"
 4024      6179 5F6C 
 4024      6F6F 705F 
 4024      3100 
 4025               	.LASF85:
 4026 036e 4B45 595F 		.string	"KEY_SCRLCK"
 4026      5343 524C 
 4026      434B 00
 4027               	.LASF4:
 4028 0379 6C6F 6E67 		.string	"long unsigned int"
 4028      2075 6E73 
 4028      6967 6E65 
 4028      6420 696E 
 4028      7400 
 4029               	.LASF158:
 4030 038b 4B45 595F 		.string	"KEY_HANGLE"
 4030      4841 4E47 
 4030      4C45 00
 4031               	.LASF66:
 4032 0396 4B45 595F 		.string	"KEY_QUOTE"
 4032      5155 4F54 
 4032      4500 
 4033               	.LASF144:
 4034 03a0 4B45 595F 		.string	"KEY_KL_CAP"
 4034      4B4C 5F43 
 4034      4150 00
 4035               	.LASF195:
 4036 03ab 5F64 656C 		.string	"_delay_ms"
 4036      6179 5F6D 
 4036      7300 
 4037               	.LASF14:
 4038 03b5 4B45 595F 		.string	"KEY_NONE"
 4038      4E4F 4E45 
 4038      00
 4039               	.LASF102:
 4040 03be 4B45 595F 		.string	"KEY_KP_ENTER"
 4040      4B50 5F45 
 4040      4E54 4552 
 4040      00
 4041               	.LASF40:
 4042 03cb 4B45 595F 		.string	"KEY_W"
 4042      5700 
 4043               	.LASF101:
 4044 03d1 4B45 595F 		.string	"KEY_KP_PLUS"
 4044      4B50 5F50 
 4044      4C55 5300 
 4045               	.LASF2:
 4046 03dd 7368 6F72 		.string	"short unsigned int"
 4046      7420 756E 
GAS LISTING C:\Users\21030\AppData\Local\Temp/ccMLudhi.s 			page 76


 4046      7369 676E 
 4046      6564 2069 
 4046      6E74 00
 4047               	.LASF138:
 4048 03f0 4B45 595F 		.string	"KEY_COPY"
 4048      434F 5059 
 4048      00
 4049               	.LASF137:
 4050 03f9 4B45 595F 		.string	"KEY_CUT"
 4050      4355 5400 
 4051               	.LASF71:
 4052 0401 4B45 595F 		.string	"KEY_CAPS"
 4052      4341 5053 
 4052      00
 4053               	.LASF197:
 4054 040a 5F5F 6D73 		.string	"__ms"
 4054      00
 4055               	.LASF242:
 4056 040f 6B65 796D 		.string	"keymap_init"
 4056      6170 5F69 
 4056      6E69 7400 
 4057               	.LASF231:
 4058 041b 6C65 645F 		.string	"led_mode"
 4058      6D6F 6465 
 4058      00
 4059               	.LASF69:
 4060 0424 4B45 595F 		.string	"KEY_DOT"
 4060      444F 5400 
 4061               	.LASF240:
 4062 042c 6D61 7472 		.string	"matrix.c"
 4062      6978 2E63 
 4062      00
 4063               	.LASF183:
 4064 0435 4B45 595F 		.string	"KEY_MINIMIZE"
 4064      4D49 4E49 
 4064      4D49 5A45 
 4064      00
 4065               	.LASF207:
 4066 0442 5F5F 7573 		.string	"__us"
 4066      00
 4067               	.LASF58:
 4068 0447 4B45 595F 		.string	"KEY_SPACE"
 4068      5350 4143 
 4068      4500 
 4069               	.LASF160:
 4070 0451 4B45 595F 		.string	"KEY_SLEEP"
 4070      534C 4545 
 4070      5000 
 4071               	.LASF203:
 4072 045b 6B65 7969 		.string	"keyidx"
 4072      6478 00
 4073               	.LASF202:
 4074 0462 6D61 7472 		.string	"matrixFN"
 4074      6978 464E 
 4074      00
 4075               	.LASF196:
 4076 046b 5F5F 636F 		.string	"__count"
GAS LISTING C:\Users\21030\AppData\Local\Temp/ccMLudhi.s 			page 77


 4076      756E 7400 
 4077               	.LASF116:
 4078 0473 4B45 595F 		.string	"KEY_POWER_HID"
 4078      504F 5745 
 4078      525F 4849 
 4078      4400 
 4079               	.LASF167:
 4080 0481 4B45 595F 		.string	"KEY_WWW_STOP"
 4080      5757 575F 
 4080      5354 4F50 
 4080      00
 4081               	.LASF117:
 4082 048e 4B45 595F 		.string	"KEY_KP_EQUAL"
 4082      4B50 5F45 
 4082      5155 414C 
 4082      00
 4083               	.LASF136:
 4084 049b 4B45 595F 		.string	"KEY_UNDO"
 4084      554E 444F 
 4084      00
 4085               	.LASF53:
 4086 04a4 4B45 595F 		.string	"KEY_0"
 4086      3000 
 4087               	.LASF44:
 4088 04aa 4B45 595F 		.string	"KEY_1"
 4088      3100 
 4089               	.LASF45:
 4090 04b0 4B45 595F 		.string	"KEY_2"
 4090      3200 
 4091               	.LASF46:
 4092 04b6 4B45 595F 		.string	"KEY_3"
 4092      3300 
 4093               	.LASF47:
 4094 04bc 4B45 595F 		.string	"KEY_4"
 4094      3400 
 4095               	.LASF48:
 4096 04c2 4B45 595F 		.string	"KEY_5"
 4096      3500 
 4097               	.LASF49:
 4098 04c8 4B45 595F 		.string	"KEY_6"
 4098      3600 
 4099               	.LASF50:
 4100 04ce 4B45 595F 		.string	"KEY_7"
 4100      3700 
 4101               	.LASF51:
 4102 04d4 4B45 595F 		.string	"KEY_8"
 4102      3800 
 4103               	.LASF52:
 4104 04da 4B45 595F 		.string	"KEY_9"
 4104      3900 
 4105               	.LASF59:
 4106 04e0 4B45 595F 		.string	"KEY_MINUS"
 4106      4D49 4E55 
 4106      5300 
 4107               	.LASF174:
 4108 04ea 4B45 595F 		.string	"KEY_MUTE"
 4108      4D55 5445 
GAS LISTING C:\Users\21030\AppData\Local\Temp/ccMLudhi.s 			page 78


 4108      00
 4109               	.LASF161:
 4110 04f3 4B45 595F 		.string	"KEY_WAKE"
 4110      5741 4B45 
 4110      00
 4111               	.LASF18:
 4112 04fc 4B45 595F 		.string	"KEY_A"
 4112      4100 
 4113               	.LASF19:
 4114 0502 4B45 595F 		.string	"KEY_B"
 4114      4200 
 4115               	.LASF20:
 4116 0508 4B45 595F 		.string	"KEY_C"
 4116      4300 
 4117               	.LASF21:
 4118 050e 4B45 595F 		.string	"KEY_D"
 4118      4400 
 4119               	.LASF22:
 4120 0514 4B45 595F 		.string	"KEY_E"
 4120      4500 
 4121               	.LASF23:
 4122 051a 4B45 595F 		.string	"KEY_F"
 4122      4600 
 4123               	.LASF24:
 4124 0520 4B45 595F 		.string	"KEY_G"
 4124      4700 
 4125               	.LASF25:
 4126 0526 4B45 595F 		.string	"KEY_H"
 4126      4800 
 4127               	.LASF26:
 4128 052c 4B45 595F 		.string	"KEY_I"
 4128      4900 
 4129               	.LASF27:
 4130 0532 4B45 595F 		.string	"KEY_J"
 4130      4A00 
 4131               	.LASF28:
 4132 0538 4B45 595F 		.string	"KEY_K"
 4132      4B00 
 4133               	.LASF29:
 4134 053e 4B45 595F 		.string	"KEY_L"
 4134      4C00 
 4135               	.LASF30:
 4136 0544 4B45 595F 		.string	"KEY_M"
 4136      4D00 
 4137               	.LASF31:
 4138 054a 4B45 595F 		.string	"KEY_N"
 4138      4E00 
 4139               	.LASF32:
 4140 0550 4B45 595F 		.string	"KEY_O"
 4140      4F00 
 4141               	.LASF33:
 4142 0556 4B45 595F 		.string	"KEY_P"
 4142      5000 
 4143               	.LASF34:
 4144 055c 4B45 595F 		.string	"KEY_Q"
 4144      5100 
 4145               	.LASF35:
GAS LISTING C:\Users\21030\AppData\Local\Temp/ccMLudhi.s 			page 79


 4146 0562 4B45 595F 		.string	"KEY_R"
 4146      5200 
 4147               	.LASF36:
 4148 0568 4B45 595F 		.string	"KEY_S"
 4148      5300 
 4149               	.LASF37:
 4150 056e 4B45 595F 		.string	"KEY_T"
 4150      5400 
 4151               	.LASF38:
 4152 0574 4B45 595F 		.string	"KEY_U"
 4152      5500 
 4153               	.LASF39:
 4154 057a 4B45 595F 		.string	"KEY_V"
 4154      5600 
 4155               	.LASF15:
 4156 0580 4572 726F 		.string	"ErrorRollOver"
 4156      7252 6F6C 
 4156      6C4F 7665 
 4156      7200 
 4157               	.LASF41:
 4158 058e 4B45 595F 		.string	"KEY_X"
 4158      5800 
 4159               	.LASF42:
 4160 0594 4B45 595F 		.string	"KEY_Y"
 4160      5900 
 4161               	.LASF43:
 4162 059a 4B45 595F 		.string	"KEY_Z"
 4162      5A00 
 4163               	.LASF188:
 4164 05a0 4C45 445F 		.string	"LED_PUSH_ON"
 4164      5055 5348 
 4164      5F4F 4E00 
 4165               	.LASF127:
 4166 05ac 4B45 595F 		.string	"KEY_F22"
 4166      4632 3200 
 4167               	.LASF131:
 4168 05b4 4B45 595F 		.string	"KEY_HELP"
 4168      4845 4C50 
 4168      00
 4169               	.LASF219:
 4170 05bd 7363 616E 		.string	"scankey"
 4170      6B65 7900 
 4171               	.LASF170:
 4172 05c5 4B45 595F 		.string	"KEY_NEXT_TRK"
 4172      4E45 5854 
 4172      5F54 524B 
 4172      00
 4173               	.LASF99:
 4174 05d2 4B45 595F 		.string	"KEY_KP_AST"
 4174      4B50 5F41 
 4174      5354 00
 4175               	.LASF143:
 4176 05dd 4B45 595F 		.string	"KEY_VOLDN"
 4176      564F 4C44 
 4176      4E00 
 4177               	.LASF214:
 4178 05e7 6D61 7472 		.string	"matrixState"
GAS LISTING C:\Users\21030\AppData\Local\Temp/ccMLudhi.s 			page 80


 4178      6978 5374 
 4178      6174 6500 
 4179               	.LASF176:
 4180 05f3 4B45 595F 		.string	"KEY_VOL_DOWN"
 4180      564F 4C5F 
 4180      444F 574E 
 4180      00
 4181               	.LASF184:
 4182 0600 4B45 595F 		.string	"KEY_EJECT"
 4182      454A 4543 
 4182      5400 
 4183               	.LASF156:
 4184 060a 4B45 595F 		.string	"KEY_Modifiers_end"
 4184      4D6F 6469 
 4184      6669 6572 
 4184      735F 656E 
 4184      6400 
 4185               	.LASF194:
 4186 061c 5F64 656C 		.string	"_delay_loop_2"
 4186      6179 5F6C 
 4186      6F6F 705F 
 4186      3200 
 4187               	.LASF0:
 4188 062a 756E 7369 		.string	"unsigned char"
 4188      676E 6564 
 4188      2063 6861 
 4188      7200 
 4189               	.LASF180:
 4190 0638 4B45 595F 		.string	"KEY_SCREENSAVE"
 4190      5343 5245 
 4190      454E 5341 
 4190      5645 00
 4191               	.LASF124:
 4192 0647 4B45 595F 		.string	"KEY_F19"
 4192      4631 3900 
 4193               	.LASF68:
 4194 064f 4B45 595F 		.string	"KEY_COMMA"
 4194      434F 4D4D 
 4194      4100 
 4195               	.LASF217:
 4196 0659 464E 636F 		.string	"FNcolrow"
 4196      6C72 6F77 
 4196      00
 4197               	.LASF57:
 4198 0662 4B45 595F 		.string	"KEY_TAB"
 4198      5441 4200 
 4199               	.LASF227:
 4200 066a 6B65 7963 		.string	"keycode_set2_make_break"
 4200      6F64 655F 
 4200      7365 7432 
 4200      5F6D 616B 
 4200      655F 6272 
 4201               	.LASF3:
 4202 0682 7368 6F72 		.string	"short int"
 4202      7420 696E 
 4202      7400 
 4203               	.LASF95:
GAS LISTING C:\Users\21030\AppData\Local\Temp/ccMLudhi.s 			page 81


 4204 068c 4B45 595F 		.string	"KEY_DOWN"
 4204      444F 574E 
 4204      00
 4205               	.LASF224:
 4206 0695 4B46 4C41 		.string	"KFLA"
 4206      00
 4207               	.LASF60:
 4208 069a 4B45 595F 		.string	"KEY_EQUAL"
 4208      4551 5541 
 4208      4C00 
 4209               	.LASF229:
 4210 06a4 6B65 7963 		.string	"keycode_set2_proc_shift"
 4210      6F64 655F 
 4210      7365 7432 
 4210      5F70 726F 
 4210      635F 7368 
 4211               	.LASF191:
 4212 06bc 4C45 445F 		.string	"LED_FULLCAPS"
 4212      4655 4C4C 
 4212      4341 5053 
 4212      00
 4213               	.LASF233:
 4214 06c9 6B62 6473 		.string	"kbdsleepmode"
 4214      6C65 6570 
 4214      6D6F 6465 
 4214      00
 4215               	.LASF86:
 4216 06d6 4B45 595F 		.string	"KEY_PAUSE"
 4216      5041 5553 
 4216      4500 
 4217               	.LASF103:
 4218 06e0 4B45 595F 		.string	"KEY_KP_1"
 4218      4B50 5F31 
 4218      00
 4219               	.LASF104:
 4220 06e9 4B45 595F 		.string	"KEY_KP_2"
 4220      4B50 5F32 
 4220      00
 4221               	.LASF105:
 4222 06f2 4B45 595F 		.string	"KEY_KP_3"
 4222      4B50 5F33 
 4222      00
 4223               	.LASF89:
 4224 06fb 4B45 595F 		.string	"KEY_PGUP"
 4224      5047 5550 
 4224      00
 4225               	.LASF107:
 4226 0704 4B45 595F 		.string	"KEY_KP_5"
 4226      4B50 5F35 
 4226      00
 4227               	.LASF108:
 4228 070d 4B45 595F 		.string	"KEY_KP_6"
 4228      4B50 5F36 
 4228      00
 4229               	.LASF109:
 4230 0716 4B45 595F 		.string	"KEY_KP_7"
 4230      4B50 5F37 
GAS LISTING C:\Users\21030\AppData\Local\Temp/ccMLudhi.s 			page 82


 4230      00
 4231               	.LASF13:
 4232 071f 7569 6E74 		.string	"uint32_t"
 4232      3332 5F74 
 4232      00
 4233               	.LASF54:
 4234 0728 4B45 595F 		.string	"KEY_ENTER"
 4234      454E 5445 
 4234      5200 
 4235               	.LASF55:
 4236 0732 4B45 595F 		.string	"KEY_ESC"
 4236      4553 4300 
 4237               	.LASF112:
 4238 073a 4B45 595F 		.string	"KEY_KP_0"
 4238      4B50 5F30 
 4238      00
 4239               	.LASF226:
 4240 0743 6B65 7963 		.string	"keycode_set2_makeonly"
 4240      6F64 655F 
 4240      7365 7432 
 4240      5F6D 616B 
 4240      656F 6E6C 
 4241               	.LASF133:
 4242 0759 4B45 595F 		.string	"KEY_SEL"
 4242      5345 4C00 
 4243               	.LASF9:
 4244 0761 6368 6172 		.string	"char"
 4244      00
 4245               	.LASF157:
 4246 0766 4B45 595F 		.string	"KEY_HANJA"
 4246      4841 4E4A 
 4246      4100 
 4247               	.LASF222:
 4248 0770 6973 4265 		.string	"isBeyondFN"
 4248      796F 6E64 
 4248      464E 00
 4249               	.LASF166:
 4250 077b 4B45 595F 		.string	"KEY_WWW_FORWARD"
 4250      5757 575F 
 4250      464F 5257 
 4250      4152 4400 
 4251               	.LASF110:
 4252 078b 4B45 595F 		.string	"KEY_KP_8"
 4252      4B50 5F38 
 4252      00
 4253               	.LASF111:
 4254 0794 4B45 595F 		.string	"KEY_KP_9"
 4254      4B50 5F39 
 4254      00
 4255               	.LASF215:
 4256 079d 6765 744C 		.string	"getLayer"
 4256      6179 6572 
 4256      00
 4257               	.LASF106:
 4258 07a6 4B45 595F 		.string	"KEY_KP_4"
 4258      4B50 5F34 
 4258      00
GAS LISTING C:\Users\21030\AppData\Local\Temp/ccMLudhi.s 			page 83


 4259               	.LASF162:
 4260 07af 4B45 595F 		.string	"KEY_EMAIL"
 4260      454D 4149 
 4260      4C00 
 4261               	.LASF169:
 4262 07b9 4B45 595F 		.string	"KEY_WWW_FAVORITE"
 4262      5757 575F 
 4262      4641 564F 
 4262      5249 5445 
 4262      00
 4263               	.LASF235:
 4264 07ca 6375 724D 		.string	"curMATRIX"
 4264      4154 5249 
 4264      5800 
 4265               	.LASF204:
 4266 07d4 5F5F 6164 		.string	"__addr16"
 4266      6472 3136 
 4266      00
 4267               	.LASF178:
 4268 07dd 4B45 595F 		.string	"KEY_CALC"
 4268      4341 4C43 
 4268      00
 4269               	.LASF152:
 4270 07e6 4B45 595F 		.string	"KEY_RCTRL"
 4270      5243 5452 
 4270      4C00 
 4271               	.LASF187:
 4272 07f0 4C45 445F 		.string	"LED_PUSHED_LEVEL"
 4272      5055 5348 
 4272      4544 5F4C 
 4272      4556 454C 
 4272      00
 4273               	.LASF63:
 4274 0801 4B45 595F 		.string	"KEY_BKSLASH"
 4274      424B 534C 
 4274      4153 4800 
 4275               	.LASF10:
 4276 080d 696E 7438 		.string	"int8_t"
 4276      5F74 00
 4277               	.LASF17:
 4278 0814 4572 726F 		.string	"ErrorUndefined"
 4278      7255 6E64 
 4278      6566 696E 
 4278      6564 00
 4279               	.LASF221:
 4280 0823 6B65 796D 		.string	"keymap"
 4280      6170 00
 4281               	.LASF192:
 4282 082a 4C45 445F 		.string	"LED_OFF"
 4282      4F46 4600 
 4283               	.LASF142:
 4284 0832 4B45 595F 		.string	"KEY_VOLUP"
 4284      564F 4C55 
 4284      5000 
 4285               	.LASF134:
 4286 083c 4B45 595F 		.string	"KEY_STOP_HID"
 4286      5354 4F50 
GAS LISTING C:\Users\21030\AppData\Local\Temp/ccMLudhi.s 			page 84


 4286      5F48 4944 
 4286      00
 4287               	.LASF150:
 4288 0849 4B45 595F 		.string	"KEY_LALT"
 4288      4C41 4C54 
 4288      00
 4289               	.LASF72:
 4290 0852 4B45 595F 		.string	"KEY_F1"
 4290      4631 00
 4291               	.LASF73:
 4292 0859 4B45 595F 		.string	"KEY_F2"
 4292      4632 00
 4293               	.LASF74:
 4294 0860 4B45 595F 		.string	"KEY_F3"
 4294      4633 00
 4295               	.LASF75:
 4296 0867 4B45 595F 		.string	"KEY_F4"
 4296      4634 00
 4297               	.LASF76:
 4298 086e 4B45 595F 		.string	"KEY_F5"
 4298      4635 00
 4299               	.LASF77:
 4300 0875 4B45 595F 		.string	"KEY_F6"
 4300      4636 00
 4301               	.LASF78:
 4302 087c 4B45 595F 		.string	"KEY_F7"
 4302      4637 00
 4303               	.LASF79:
 4304 0883 4B45 595F 		.string	"KEY_F8"
 4304      4638 00
 4305               	.LASF11:
 4306 088a 7569 6E74 		.string	"uint8_t"
 4306      385F 7400 
 4307               	.LASF88:
 4308 0892 4B45 595F 		.string	"KEY_HOME"
 4308      484F 4D45 
 4308      00
 4309               	.LASF211:
 4310 089b 7650 696E 		.string	"vPinA"
 4310      4100 
 4311               	.LASF182:
 4312 08a1 4B45 595F 		.string	"KEY_REWIND"
 4312      5245 5749 
 4312      4E44 00
 4313               	.LASF209:
 4314 08ac 7363 616E 		.string	"scanmatrix"
 4314      6D61 7472 
 4314      6978 00
 4315               	.LASF115:
 4316 08b7 4B45 595F 		.string	"KEY_APPS"
 4316      4150 5053 
 4316      00
 4317               	.LASF163:
 4318 08c0 4B45 595F 		.string	"KEY_WWW_SEARCH"
 4318      5757 575F 
 4318      5345 4152 
 4318      4348 00
GAS LISTING C:\Users\21030\AppData\Local\Temp/ccMLudhi.s 			page 85


 4319               	.LASF96:
 4320 08cf 4B45 595F 		.string	"KEY_UP"
 4320      5550 00
 4321               	.LASF220:
 4322 08d6 6465 626F 		.string	"debounce"
 4322      756E 6365 
 4322      00
 4323               	.LASF179:
 4324 08df 4B45 595F 		.string	"KEY_MYCOM"
 4324      4D59 434F 
 4324      4D00 
 4325               	.LASF237:
 4326 08e9 7573 626D 		.string	"usbmode"
 4326      6F64 6500 
 4327               	.LASF135:
 4328 08f1 4B45 595F 		.string	"KEY_AGAIN"
 4328      4147 4149 
 4328      4E00 
 4329               	.LASF141:
 4330 08fb 4B45 595F 		.string	"KEY_MUTE_HID"
 4330      4D55 5445 
 4330      5F48 4944 
 4330      00
 4331               	.LASF80:
 4332 0908 4B45 595F 		.string	"KEY_F9"
 4332      4639 00
 4333               	.LASF236:
 4334 090f 7376 6B65 		.string	"svkeyidx"
 4334      7969 6478 
 4334      00
 4335               	.LASF151:
 4336 0918 4B45 595F 		.string	"KEY_LGUI"
 4336      4C47 5549 
 4336      00
 4337               	.LASF186:
 4338 0921 4C45 445F 		.string	"LED_FADING_PUSH_ON"
 4338      4641 4449 
 4338      4E47 5F50 
 4338      5553 485F 
 4338      4F4E 00
 4339               	.LASF189:
 4340 0934 4C45 445F 		.string	"LED_PUSH_OFF"
 4340      5055 5348 
 4340      5F4F 4646 
 4340      00
 4341               	.LASF147:
 4342 0941 4B45 595F 		.string	"KEY_Modifiers"
 4342      4D6F 6469 
 4342      6669 6572 
 4342      7300 
 4343               	.LASF94:
 4344 094f 4B45 595F 		.string	"KEY_LEFT"
 4344      4C45 4654 
 4344      00
 4345               	.LASF198:
 4346 0958 5F5F 7469 		.string	"__ticks"
 4346      636B 7300 
GAS LISTING C:\Users\21030\AppData\Local\Temp/ccMLudhi.s 			page 86


 4347               	.global __do_clear_bss
GAS LISTING C:\Users\21030\AppData\Local\Temp/ccMLudhi.s 			page 87


DEFINED SYMBOLS
                            *ABS*:00000000 matrix.c
C:\Users\21030\AppData\Local\Temp/ccMLudhi.s:2      *ABS*:0000003f __SREG__
C:\Users\21030\AppData\Local\Temp/ccMLudhi.s:3      *ABS*:0000003e __SP_H__
C:\Users\21030\AppData\Local\Temp/ccMLudhi.s:4      *ABS*:0000003d __SP_L__
C:\Users\21030\AppData\Local\Temp/ccMLudhi.s:5      *ABS*:00000034 __CCP__
C:\Users\21030\AppData\Local\Temp/ccMLudhi.s:6      *ABS*:00000000 __tmp_reg__
C:\Users\21030\AppData\Local\Temp/ccMLudhi.s:7      *ABS*:00000001 __zero_reg__
C:\Users\21030\AppData\Local\Temp/ccMLudhi.s:18     .text:00000000 keymap_init
                            *COM*:0000000d MATRIX
                            *COM*:00000001 matrixFN
C:\Users\21030\AppData\Local\Temp/ccMLudhi.s:266    .text:000000f4 getLayer
C:\Users\21030\AppData\Local\Temp/ccMLudhi.s:372    .text:0000015e processFNkeys
C:\Users\21030\AppData\Local\Temp/ccMLudhi.s:416    .text:00000198 scankey
                            *COM*:0000000d curMATRIX
                            *COM*:00000068 svkeyidx
                             .bss:00000006 currentKeymap
C:\Users\21030\AppData\Local\Temp/ccMLudhi.s:863    .bss:00000000 scankeycntms
C:\Users\21030\AppData\Local\Temp/ccMLudhi.s:869    .bss:00000004 kbdsleepmode
C:\Users\21030\AppData\Local\Temp/ccMLudhi.s:875    .bss:00000005 toggle

UNDEFINED SYMBOLS
KFLA
keycode_set2_special
keycode_set2_makeonly
keycode_set2_make_break
keycode_set2_extend
keycode_set2_proc_shift
keymap_code
led_mode
led_mode_change
led_blink
led_fader
clearReportBuffer
led_pushed_level_cal
usbmode
buildHIDreports
putKey
__do_clear_bss
